(dp1
S'output'
p2
S"<type 'exceptions.IndexError'> list index out of range"
p3
sS'layer'
p4
S'/home/shipra/Desktop/Semester 1.2/ITWS-2/web2py/applications/shipra/views/default/resume_display.html'
p5
sS'code'
p6
S'response.write(\' <script src="\', escape=False)\nresponse.write(URL(\'static\',\'glissade/style.css\'))\nresponse.write(\'"></script>\\r\\n\\r\\n<html xmlns="http://www.w3.org/1999/xhtml">\\r\\n<head>\\r\\n<meta name="keywords" content="" />\\r\\n<meta name="description" content="" />\\r\\n<meta http-equiv="content-type" content="text/html; charset=utf-8" />\\r\\n<title>RESUME : Builder & Searcher </title>\\r\\n<link href="http://fonts.googleapis.com/css?family=Oxygen:400,700,300" rel="stylesheet" type="text/css" />\\r\\n<link href="\', escape=False)\nresponse.write(URL(\'static\', \'glissade/style.css\'))\nresponse.write(\'" rel="stylesheet" type="text/css" media="screen" />\\r\\n</head>\\r\\n<body>\\r\\n\\t<style>\\r\\n\\t.right\\r\\n\\t{\\r\\n\\tfloat:right;\\r\\n\\twidth:300px;\\r\\n\\t}\\r\\n\\t</style>\\r\\n\\t\\r\\n<div id="wrapper">\\r\\n\\t<div id="logo" class="container">\\r\\n\\t\\r\\n\\t\\t<h1 style="color:#F87217">resume</h1>\\r\\n\\t\\t<p>Searcher and Builder</p>\\r\\n\\t</div>\\r\\n\\r\\n\\t<div class="right">\\r\\n\\t\\r\\n\\t\\t\', escape=False)\nresponse.write(auth.navbar())\nresponse.write(\'\\r\\n\\t</div>\\r\\n\\t\\r\\n\\t<br/>\\r\\n\\t\\r\\n\\t<div id="menu-wrapper">\\r\\n\\t\\t<div id="menu" class="container">\\r\\n\\t\\t\\t<ul>\\r\\n\\t\\t\\t\\t<li><a href=http://127.0.0.1:8000/shipra/default/index>Homepage</a>  </li>\\r\\n\\t\\t\\t\\t<li><a href="#">view resume</a></li>\\r\\n\\t\\t\\t\\t<li><a href="http://127.0.0.1:8000/shipra/default/create">Update resume</a></li>\\r\\n\\t\\t\\t\\t<li><a href="#">Download Resume</a></li>\\r\\n\\t\\t\\t\\t<li><a href="#">search</a></li>\\r\\n\\t\\t\\t\\t<li><a href="#">Contact Us</a></li>\\r\\n\\t\\t\\t</ul>\\r\\n\\t\\t</div>\\r\\n\\t</div>\\r\\n\\r\\n\\t\', escape=False)\nresponse.write(\'\\n\', escape=False)\nresponse.write(c)\nresponse.write(\'\\n<p><h3>PERSONAL</h3></p><br/>\\n<ol>\\n\\t<li> First Name : \', escape=False)\nresponse.write(cont[0][\'first_name\'])\nresponse.write(\'</li><br/>\\n\\t<li> Last Name : \', escape=False)\nresponse.write(cont[0][\'last_name\'])\nresponse.write(\'</li><br/>\\n\\t<li> Email: \', escape=False)\nresponse.write(cont[0][\'email\'])\nresponse.write(\'</li><br/>\\n\\t<li> Age    : \', escape=False)\nresponse.write(pers[0][\'Age\'])\nresponse.write(\'</li><br/>\\n\\t<li> Gender : \', escape=False)\nresponse.write(pers[0][\'Gender\'])\nresponse.write(\'</li><br/>\\n\\t<li>Contact : \', escape=False)\nresponse.write(pers[0][\'Contact\'])\nresponse.write(\'</li><br/>\\n</ol>\\n<br/><br/><br/>\\n<p><h3>EDUCATION</h3></p><br/>\\n<ol>\\n\\t<li>Degree  :\', escape=False)\nresponse.write(edu[0][\'Deg\'])\nresponse.write(\'</li><br/>\\n\\t<li>Branch  :\', escape=False)\nresponse.write(edu[0][\'Branch\'])\nresponse.write(\'</li><br/>\\n\\t<li>Duration:\', escape=False)\nresponse.write(edu[0][\'Duration\'])\nresponse.write(\'</li><br/>\\n\\t<li>Accomplishments:\', escape=False)\nresponse.write(edu[0][\'Accomplishments\'])\nresponse.write(\'</li><br/>\\n</ol>\\n<br/><br/><br/>\\n<p><h3>MERIT</h3></p><br/>\\n<ol>\\n\\t<li>Marks in X :\', escape=False)\nresponse.write(mer[0][\'XMarks\'])\nresponse.write(\'</li><br/>\\n\\t<li>Marks in XII  :\', escape=False)\nresponse.write(mer[0][\'XIIMarks\'])\nresponse.write(\'</li><br/>\\n\\t<li>Cgpa:\', escape=False)\nresponse.write(mer[0][\'CGPA\'])\nresponse.write(\'</li><br/>\\n</ol>\\n<br/><br/><br/>\\n<p><h3>EXPERIENCE</h3></p><br/>\\n<ol>\\n\\t<li>Company  :\', escape=False)\nresponse.write(exp[0][\'Company\'])\nresponse.write(\'</li><br/>\\n\\t<li>Duration  :\', escape=False)\nresponse.write(exp[0][\'Duration\'])\nresponse.write(\'</li><br/>\\n\\t<li>Post:\', escape=False)\nresponse.write(exp[0][\'Post\'])\nresponse.write(\'</li><br/>\\n\\t<li>Accomplishments:\', escape=False)\nresponse.write(exp[0][\'Accomplishments\'])\nresponse.write(\'</li><br/>\\n</ol>\\n\\n\\n\', escape=False)\nresponse.write(\'\\r\\n\\t<div id="three-column" class="container">\\r\\n\\t\\t<div id="tbox1">\\r\\n\\t\\t\\t<div class="box-style box-style01">\\r\\n\\t\\t\\t\\t<div class="content">\\r\\n\\t\\t\\t\\t\\t<div class="image"><img src="\', escape=False)\nresponse.write(URL(\'static\',\'images/img01.jpg\'))\nresponse.write(\'" width="324" height="200" alt="" /></div>\\r\\n\\t\\t\\t\\t\\t<h2>View your Resume</h2>\\r\\n\\t\\t\\t\\t\\t<p>See how your resume looks. Different templates are available. Just pick one. You can also download it as PDF.\\r\\n\\t\\t\\t\\t\\t\\r\\n\\t\\t\\t\\t\\t</p>\\r\\n\\t\\t\\t\\t</div>\\r\\n\\t\\t\\t</div>\\r\\n\\t\\t</div>\\r\\n\\t\\t<div id="tbox2">\\r\\n\\t\\t\\t<div class="box-style box-style02">\\r\\n\\t\\t\\t\\t<div class="content">\\r\\n\\t\\t\\t\\t\\t<div class="image"><img src="\', escape=False)\nresponse.write(URL(\'static\',\'images/img02.jpg\'))\nresponse.write(\'" width="324" height="200" alt="" /></div>\\r\\n\\t\\t\\t\\t\\t<h2>Are you Hiring?</h2>\\r\\n\\t\\t\\t\\t\\t<p>Search for student profiles based on keywords,\\r\\n\\t\\t\\t\\t\\teducational qualification, some university, matching specific skills,\\r\\n\\t\\t\\t\\t\\tCGPA cutoffs, etc.</p>\\r\\n\\t\\t\\t\\t</div>\\r\\n\\t\\t\\t</div>\\r\\n\\t\\t</div>\\r\\n\\t\\t<div id="tbox3">\\r\\n\\t\\t\\t<div class="box-style box-style03">\\r\\n\\t\\t\\t\\t<div class="content">\\r\\n\\t\\t\\t\\t\\t<a href=http://127.0.0.1:8000/shipra/default/create><div class="image"><img src="\', escape=False)\nresponse.write(URL(\'static\',\'images/img03.jpg\'))\nresponse.write(\'" width="324" height="200" alt="" /></div>\\r\\n\\t\\t\\t\\t\\t\\t<h2>Download your Resume </h2></a>\\r\\n\\t\\t\\t\\t\\t<p> You can download your Resume as a PDF in different templates. Choose a template of your choice, click and you\\\'re done! As simple as that.</p>\\r\\n\\t\\t\\t\\t</div>\\r\\n\\t\\t\\t</div>\\r\\n\\t\\t</div>\\r\\n\\t</div>\\r\\n<div id="footer">\\r\\n\\t<p>\\xc2\\xa9 Somya Mehdiratta , Shipra Banga </a>.</p>\\r\\n</div>\\r\\n<!-- end #footer -->\\r\\n</body>\\r\\n</html>\\r\\n\', escape=False)'
p7
sS'snapshot'
p8
(dp9
S'exception'
p10
(dp11
S'__hash__'
p12
S"<method-wrapper '__hash__' of exceptions.IndexError object>"
p13
sS'__setattr__'
p14
S"<method-wrapper '__setattr__' of exceptions.IndexError object>"
p15
sS'__reduce_ex__'
p16
S'<built-in method __reduce_ex__ of exceptions.IndexError object>'
p17
sS'__getslice__'
p18
S"<method-wrapper '__getslice__' of exceptions.IndexError object>"
p19
sS'__getitem__'
p20
S"<method-wrapper '__getitem__' of exceptions.IndexError object>"
p21
sS'__setstate__'
p22
S'<built-in method __setstate__ of exceptions.IndexError object>'
p23
sS'args'
p24
S"('list index out of range',)"
p25
sS'__reduce__'
p26
S'<built-in method __reduce__ of exceptions.IndexError object>'
p27
sS'__str__'
p28
S"<method-wrapper '__str__' of exceptions.IndexError object>"
p29
sS'__format__'
p30
S'<built-in method __format__ of exceptions.IndexError object>'
p31
sS'__getattribute__'
p32
S"<method-wrapper '__getattribute__' of exceptions.IndexError object>"
p33
sS'__class__'
p34
S"<type 'exceptions.IndexError'>"
p35
sS'__unicode__'
p36
S'<built-in method __unicode__ of exceptions.IndexError object>'
p37
sS'__delattr__'
p38
S"<method-wrapper '__delattr__' of exceptions.IndexError object>"
p39
sS'__subclasshook__'
p40
S'<built-in method __subclasshook__ of type object>'
p41
sS'__repr__'
p42
S"<method-wrapper '__repr__' of exceptions.IndexError object>"
p43
sS'__dict__'
p44
S'{}'
p45
sS'__sizeof__'
p46
S'<built-in method __sizeof__ of exceptions.IndexError object>'
p47
sS'__doc__'
p48
S"'Sequence index out of range.'"
p49
sS'__init__'
p50
S"<method-wrapper '__init__' of exceptions.IndexError object>"
p51
sS'__new__'
p52
S'<built-in method __new__ of type object>'
p53
ssS'evalue'
p54
S'list index out of range'
p55
sS'request'
p56
ccopy_reg
_reconstructor
p57
(cgluon.html
BEAUTIFY
p58
c__builtin__
object
p59
NtRp60
(dp61
S'attributes'
p62
(dp63
sS'components'
p64
(lp65
g57
(cgluon.html
TABLE
p66
g59
NtRp67
(dp68
g62
(dp69
S'level'
p70
I5
ssS'parent'
p71
Nsg64
(lp72
g57
(cgluon.html
TR
p73
g59
NtRp74
(dp75
g62
(dp76
sg71
g67
sg64
(lp77
g57
(cgluon.html
TD
p78
g59
NtRp79
(dp80
g62
(dp81
S'_style'
p82
S'font-weight:bold;vertical-align:top'
p83
ssg71
g74
sg64
(lp84
S'ajax'
p85
asbag57
(g78
g59
NtRp86
(dp87
g62
(dp88
S'_valign'
p89
S'top'
p90
ssg71
g74
sg64
(lp91
S':'
asbag57
(g78
g59
NtRp92
(dp93
g62
(dp94
sg71
g74
sg64
(lp95
g57
(g58
g59
NtRp96
(dp97
g62
(dp98
g70
I5
ssg71
g92
sg64
(lp99
S'False'
p100
asbasbasbag57
(g73
g59
NtRp101
(dp102
g62
(dp103
sg71
g67
sg64
(lp104
g57
(g78
g59
NtRp105
(dp106
g62
(dp107
g82
g83
ssg71
g101
sg64
(lp108
S'application'
p109
asbag57
(g78
g59
NtRp110
(dp111
g62
(dp112
g89
g90
ssg71
g101
sg64
(lp113
S':'
asbag57
(g78
g59
NtRp114
(dp115
g62
(dp116
sg71
g101
sg64
(lp117
g57
(g58
g59
NtRp118
(dp119
g62
(dp120
g70
I5
ssg71
g114
sg64
(lp121
S'shipra'
p122
asbasbasbag57
(g73
g59
NtRp123
(dp124
g62
(dp125
sg71
g67
sg64
(lp126
g57
(g78
g59
NtRp127
(dp128
g62
(dp129
g82
g83
ssg71
g123
sg64
(lp130
g24
asbag57
(g78
g59
NtRp131
(dp132
g62
(dp133
g89
g90
ssg71
g123
sg64
(lp134
S':'
asbag57
(g78
g59
NtRp135
(dp136
g62
(dp137
sg71
g123
sg64
(lp138
g57
(g58
g59
NtRp139
(dp140
g62
(dp141
g70
I5
ssg71
g135
sg64
(lp142
g57
(g66
g59
NtRp143
(dp144
g62
(dp145
g70
I4
ssg71
Nsg64
(lp146
g57
(g73
g59
NtRp147
(dp148
g62
(dp149
sg71
g143
sg64
(lp150
g57
(g78
g59
NtRp151
(dp152
g62
(dp153
sg71
g147
sg64
(lp154
g57
(g58
g59
NtRp155
(dp156
g62
(dp157
g70
I4
ssg71
g151
sg64
(lp158
S'4'
asbasbasbasbasbasbasbag57
(g73
g59
NtRp159
(dp160
g62
(dp161
sg71
g67
sg64
(lp162
g57
(g78
g59
NtRp163
(dp164
g62
(dp165
g82
g83
ssg71
g159
sg64
(lp166
S'body'
p167
asbag57
(g78
g59
NtRp168
(dp169
g62
(dp170
g89
g90
ssg71
g159
sg64
(lp171
S':'
asbag57
(g78
g59
NtRp172
(dp173
g62
(dp174
sg71
g159
sg64
(lp175
g57
(g58
g59
NtRp176
(dp177
g62
(dp178
g70
I5
ssg71
g172
sg64
(lp179
S'<cStringIO.StringO object at 0x7f6fe03c5a40>'
p180
asbasbasbag57
(g73
g59
NtRp181
(dp182
g62
(dp183
sg71
g67
sg64
(lp184
g57
(g78
g59
NtRp185
(dp186
g62
(dp187
g82
g83
ssg71
g181
sg64
(lp188
S'cid'
p189
asbag57
(g78
g59
NtRp190
(dp191
g62
(dp192
g89
g90
ssg71
g181
sg64
(lp193
S':'
asbag57
(g78
g59
NtRp194
(dp195
g62
(dp196
sg71
g181
sg64
(lp197
g57
(g58
g59
NtRp198
(dp199
g62
(dp200
g70
I5
ssg71
g194
sg64
(lp201
S'None'
p202
asbasbasbag57
(g73
g59
NtRp203
(dp204
g62
(dp205
sg71
g67
sg64
(lp206
g57
(g78
g59
NtRp207
(dp208
g62
(dp209
g82
g83
ssg71
g203
sg64
(lp210
S'client'
p211
asbag57
(g78
g59
NtRp212
(dp213
g62
(dp214
g89
g90
ssg71
g203
sg64
(lp215
S':'
asbag57
(g78
g59
NtRp216
(dp217
g62
(dp218
sg71
g203
sg64
(lp219
g57
(g58
g59
NtRp220
(dp221
g62
(dp222
g70
I5
ssg71
g216
sg64
(lp223
S'127.0.0.1'
p224
asbasbasbag57
(g73
g59
NtRp225
(dp226
g62
(dp227
sg71
g67
sg64
(lp228
g57
(g78
g59
NtRp229
(dp230
g62
(dp231
g82
g83
ssg71
g225
sg64
(lp232
S'controller'
p233
asbag57
(g78
g59
NtRp234
(dp235
g62
(dp236
g89
g90
ssg71
g225
sg64
(lp237
S':'
asbag57
(g78
g59
NtRp238
(dp239
g62
(dp240
sg71
g225
sg64
(lp241
g57
(g58
g59
NtRp242
(dp243
g62
(dp244
g70
I5
ssg71
g238
sg64
(lp245
S'default'
p246
asbasbasbag57
(g73
g59
NtRp247
(dp248
g62
(dp249
sg71
g67
sg64
(lp250
g57
(g78
g59
NtRp251
(dp252
g62
(dp253
g82
g83
ssg71
g247
sg64
(lp254
S'cookies'
p255
asbag57
(g78
g59
NtRp256
(dp257
g62
(dp258
g89
g90
ssg71
g247
sg64
(lp259
S':'
asbag57
(g78
g59
NtRp260
(dp261
g62
(dp262
sg71
g247
sg64
(lp263
g57
(g58
g59
NtRp264
(dp265
g62
(dp266
g70
I5
ssg71
g260
sg64
(lp267
g57
(g66
g59
NtRp268
(dp269
g62
(dp270
g70
I4
ssg71
Nsg64
(lp271
g57
(g73
g59
NtRp272
(dp273
g62
(dp274
sg71
g268
sg64
(lp275
g57
(g78
g59
NtRp276
(dp277
g62
(dp278
g82
g83
ssg71
g272
sg64
(lp279
S'mp_2093ad9ff9c5428a2228386de2f2b0e4_mixpanel'
p280
asbag57
(g78
g59
NtRp281
(dp282
g62
(dp283
g89
g90
ssg71
g272
sg64
(lp284
S':'
asbag57
(g78
g59
NtRp285
(dp286
g62
(dp287
sg71
g272
sg64
(lp288
g57
(g58
g59
NtRp289
(dp290
g62
(dp291
g70
I4
ssg71
g285
sg64
(lp292
S'%7B%22distinct_id%22%3A%20%2262ffc2d0-7b9f-0130-efb0-22000a1cbb2a%22%2C%22is_registered_user%22%3A%20false%2C%22%24initial_referrer%22%3A%20%22%24direct%22%2C%22%24initial_referring_domain%22%3A%20%22%24direct%22%7D'
p293
ag57
(g66
g59
NtRp294
(dp295
g62
(dp296
g70
I3
ssg71
Nsg64
(lp297
g57
(g73
g59
NtRp298
(dp299
g62
(dp300
sg71
g294
sg64
(lp301
g57
(g78
g59
NtRp302
(dp303
g62
(dp304
g82
g83
ssg71
g298
sg64
(lp305
S'comment'
p306
asbag57
(g78
g59
NtRp307
(dp308
g62
(dp309
g89
g90
ssg71
g298
sg64
(lp310
S':'
asbag57
(g78
g59
NtRp311
(dp312
g62
(dp313
sg71
g298
sg64
(lp314
g57
(g58
g59
NtRp315
(dp316
g62
(dp317
g70
I3
ssg71
g311
sg64
(lp318
S''
asbasbasbag57
(g73
g59
NtRp319
(dp320
g62
(dp321
sg71
g294
sg64
(lp322
g57
(g78
g59
NtRp323
(dp324
g62
(dp325
g82
g83
ssg71
g319
sg64
(lp326
S'domain'
p327
asbag57
(g78
g59
NtRp328
(dp329
g62
(dp330
g89
g90
ssg71
g319
sg64
(lp331
S':'
asbag57
(g78
g59
NtRp332
(dp333
g62
(dp334
sg71
g319
sg64
(lp335
g57
(g58
g59
NtRp336
(dp337
g62
(dp338
g70
I3
ssg71
g332
sg64
(lp339
S''
asbasbasbag57
(g73
g59
NtRp340
(dp341
g62
(dp342
sg71
g294
sg64
(lp343
g57
(g78
g59
NtRp344
(dp345
g62
(dp346
g82
g83
ssg71
g340
sg64
(lp347
S'expires'
p348
asbag57
(g78
g59
NtRp349
(dp350
g62
(dp351
g89
g90
ssg71
g340
sg64
(lp352
S':'
asbag57
(g78
g59
NtRp353
(dp354
g62
(dp355
sg71
g340
sg64
(lp356
g57
(g58
g59
NtRp357
(dp358
g62
(dp359
g70
I3
ssg71
g353
sg64
(lp360
S''
asbasbasbag57
(g73
g59
NtRp361
(dp362
g62
(dp363
sg71
g294
sg64
(lp364
g57
(g78
g59
NtRp365
(dp366
g62
(dp367
g82
g83
ssg71
g361
sg64
(lp368
S'httponly'
p369
asbag57
(g78
g59
NtRp370
(dp371
g62
(dp372
g89
g90
ssg71
g361
sg64
(lp373
S':'
asbag57
(g78
g59
NtRp374
(dp375
g62
(dp376
sg71
g361
sg64
(lp377
g57
(g58
g59
NtRp378
(dp379
g62
(dp380
g70
I3
ssg71
g374
sg64
(lp381
S''
asbasbasbag57
(g73
g59
NtRp382
(dp383
g62
(dp384
sg71
g294
sg64
(lp385
g57
(g78
g59
NtRp386
(dp387
g62
(dp388
g82
g83
ssg71
g382
sg64
(lp389
S'max-age'
p390
asbag57
(g78
g59
NtRp391
(dp392
g62
(dp393
g89
g90
ssg71
g382
sg64
(lp394
S':'
asbag57
(g78
g59
NtRp395
(dp396
g62
(dp397
sg71
g382
sg64
(lp398
g57
(g58
g59
NtRp399
(dp400
g62
(dp401
g70
I3
ssg71
g395
sg64
(lp402
S''
asbasbasbag57
(g73
g59
NtRp403
(dp404
g62
(dp405
sg71
g294
sg64
(lp406
g57
(g78
g59
NtRp407
(dp408
g62
(dp409
g82
g83
ssg71
g403
sg64
(lp410
S'path'
p411
asbag57
(g78
g59
NtRp412
(dp413
g62
(dp414
g89
g90
ssg71
g403
sg64
(lp415
S':'
asbag57
(g78
g59
NtRp416
(dp417
g62
(dp418
sg71
g403
sg64
(lp419
g57
(g58
g59
NtRp420
(dp421
g62
(dp422
g70
I3
ssg71
g416
sg64
(lp423
S''
asbasbasbag57
(g73
g59
NtRp424
(dp425
g62
(dp426
sg71
g294
sg64
(lp427
g57
(g78
g59
NtRp428
(dp429
g62
(dp430
g82
g83
ssg71
g424
sg64
(lp431
S'secure'
p432
asbag57
(g78
g59
NtRp433
(dp434
g62
(dp435
g89
g90
ssg71
g424
sg64
(lp436
S':'
asbag57
(g78
g59
NtRp437
(dp438
g62
(dp439
sg71
g424
sg64
(lp440
g57
(g58
g59
NtRp441
(dp442
g62
(dp443
g70
I3
ssg71
g437
sg64
(lp444
S''
asbasbasbag57
(g73
g59
NtRp445
(dp446
g62
(dp447
sg71
g294
sg64
(lp448
g57
(g78
g59
NtRp449
(dp450
g62
(dp451
g82
g83
ssg71
g445
sg64
(lp452
S'version'
p453
asbag57
(g78
g59
NtRp454
(dp455
g62
(dp456
g89
g90
ssg71
g445
sg64
(lp457
S':'
asbag57
(g78
g59
NtRp458
(dp459
g62
(dp460
sg71
g445
sg64
(lp461
g57
(g58
g59
NtRp462
(dp463
g62
(dp464
g70
I3
ssg71
g458
sg64
(lp465
S''
asbasbasbasbasbasbasbag57
(g73
g59
NtRp466
(dp467
g62
(dp468
sg71
g268
sg64
(lp469
g57
(g78
g59
NtRp470
(dp471
g62
(dp472
g82
g83
ssg71
g466
sg64
(lp473
S'session_id_admin'
p474
asbag57
(g78
g59
NtRp475
(dp476
g62
(dp477
g89
g90
ssg71
g466
sg64
(lp478
S':'
asbag57
(g78
g59
NtRp479
(dp480
g62
(dp481
sg71
g466
sg64
(lp482
g57
(g58
g59
NtRp483
(dp484
g62
(dp485
g70
I4
ssg71
g479
sg64
(lp486
S'127.0.0.1-486691c0-1416-4962-88fb-2d24e40268c1'
p487
ag57
(g66
g59
NtRp488
(dp489
g62
(dp490
g70
I3
ssg71
Nsg64
(lp491
g57
(g73
g59
NtRp492
(dp493
g62
(dp494
sg71
g488
sg64
(lp495
g57
(g78
g59
NtRp496
(dp497
g62
(dp498
g82
g83
ssg71
g492
sg64
(lp499
g306
asbag57
(g78
g59
NtRp500
(dp501
g62
(dp502
g89
g90
ssg71
g492
sg64
(lp503
S':'
asbag57
(g78
g59
NtRp504
(dp505
g62
(dp506
sg71
g492
sg64
(lp507
g57
(g58
g59
NtRp508
(dp509
g62
(dp510
g70
I3
ssg71
g504
sg64
(lp511
S''
asbasbasbag57
(g73
g59
NtRp512
(dp513
g62
(dp514
sg71
g488
sg64
(lp515
g57
(g78
g59
NtRp516
(dp517
g62
(dp518
g82
g83
ssg71
g512
sg64
(lp519
g327
asbag57
(g78
g59
NtRp520
(dp521
g62
(dp522
g89
g90
ssg71
g512
sg64
(lp523
S':'
asbag57
(g78
g59
NtRp524
(dp525
g62
(dp526
sg71
g512
sg64
(lp527
g57
(g58
g59
NtRp528
(dp529
g62
(dp530
g70
I3
ssg71
g524
sg64
(lp531
S''
asbasbasbag57
(g73
g59
NtRp532
(dp533
g62
(dp534
sg71
g488
sg64
(lp535
g57
(g78
g59
NtRp536
(dp537
g62
(dp538
g82
g83
ssg71
g532
sg64
(lp539
g348
asbag57
(g78
g59
NtRp540
(dp541
g62
(dp542
g89
g90
ssg71
g532
sg64
(lp543
S':'
asbag57
(g78
g59
NtRp544
(dp545
g62
(dp546
sg71
g532
sg64
(lp547
g57
(g58
g59
NtRp548
(dp549
g62
(dp550
g70
I3
ssg71
g544
sg64
(lp551
S''
asbasbasbag57
(g73
g59
NtRp552
(dp553
g62
(dp554
sg71
g488
sg64
(lp555
g57
(g78
g59
NtRp556
(dp557
g62
(dp558
g82
g83
ssg71
g552
sg64
(lp559
g369
asbag57
(g78
g59
NtRp560
(dp561
g62
(dp562
g89
g90
ssg71
g552
sg64
(lp563
S':'
asbag57
(g78
g59
NtRp564
(dp565
g62
(dp566
sg71
g552
sg64
(lp567
g57
(g58
g59
NtRp568
(dp569
g62
(dp570
g70
I3
ssg71
g564
sg64
(lp571
S''
asbasbasbag57
(g73
g59
NtRp572
(dp573
g62
(dp574
sg71
g488
sg64
(lp575
g57
(g78
g59
NtRp576
(dp577
g62
(dp578
g82
g83
ssg71
g572
sg64
(lp579
g390
asbag57
(g78
g59
NtRp580
(dp581
g62
(dp582
g89
g90
ssg71
g572
sg64
(lp583
S':'
asbag57
(g78
g59
NtRp584
(dp585
g62
(dp586
sg71
g572
sg64
(lp587
g57
(g58
g59
NtRp588
(dp589
g62
(dp590
g70
I3
ssg71
g584
sg64
(lp591
S''
asbasbasbag57
(g73
g59
NtRp592
(dp593
g62
(dp594
sg71
g488
sg64
(lp595
g57
(g78
g59
NtRp596
(dp597
g62
(dp598
g82
g83
ssg71
g592
sg64
(lp599
g411
asbag57
(g78
g59
NtRp600
(dp601
g62
(dp602
g89
g90
ssg71
g592
sg64
(lp603
S':'
asbag57
(g78
g59
NtRp604
(dp605
g62
(dp606
sg71
g592
sg64
(lp607
g57
(g58
g59
NtRp608
(dp609
g62
(dp610
g70
I3
ssg71
g604
sg64
(lp611
S''
asbasbasbag57
(g73
g59
NtRp612
(dp613
g62
(dp614
sg71
g488
sg64
(lp615
g57
(g78
g59
NtRp616
(dp617
g62
(dp618
g82
g83
ssg71
g612
sg64
(lp619
g432
asbag57
(g78
g59
NtRp620
(dp621
g62
(dp622
g89
g90
ssg71
g612
sg64
(lp623
S':'
asbag57
(g78
g59
NtRp624
(dp625
g62
(dp626
sg71
g612
sg64
(lp627
g57
(g58
g59
NtRp628
(dp629
g62
(dp630
g70
I3
ssg71
g624
sg64
(lp631
S''
asbasbasbag57
(g73
g59
NtRp632
(dp633
g62
(dp634
sg71
g488
sg64
(lp635
g57
(g78
g59
NtRp636
(dp637
g62
(dp638
g82
g83
ssg71
g632
sg64
(lp639
g453
asbag57
(g78
g59
NtRp640
(dp641
g62
(dp642
g89
g90
ssg71
g632
sg64
(lp643
S':'
asbag57
(g78
g59
NtRp644
(dp645
g62
(dp646
sg71
g632
sg64
(lp647
g57
(g58
g59
NtRp648
(dp649
g62
(dp650
g70
I3
ssg71
g644
sg64
(lp651
S''
asbasbasbasbasbasbasbag57
(g73
g59
NtRp652
(dp653
g62
(dp654
sg71
g268
sg64
(lp655
g57
(g78
g59
NtRp656
(dp657
g62
(dp658
g82
g83
ssg71
g652
sg64
(lp659
S'session_id_resume'
p660
asbag57
(g78
g59
NtRp661
(dp662
g62
(dp663
g89
g90
ssg71
g652
sg64
(lp664
S':'
asbag57
(g78
g59
NtRp665
(dp666
g62
(dp667
sg71
g652
sg64
(lp668
g57
(g58
g59
NtRp669
(dp670
g62
(dp671
g70
I4
ssg71
g665
sg64
(lp672
S'127.0.0.1-464cf9d5-c296-4ac5-b85c-7e50aed192ac'
p673
ag57
(g66
g59
NtRp674
(dp675
g62
(dp676
g70
I3
ssg71
Nsg64
(lp677
g57
(g73
g59
NtRp678
(dp679
g62
(dp680
sg71
g674
sg64
(lp681
g57
(g78
g59
NtRp682
(dp683
g62
(dp684
g82
g83
ssg71
g678
sg64
(lp685
g306
asbag57
(g78
g59
NtRp686
(dp687
g62
(dp688
g89
g90
ssg71
g678
sg64
(lp689
S':'
asbag57
(g78
g59
NtRp690
(dp691
g62
(dp692
sg71
g678
sg64
(lp693
g57
(g58
g59
NtRp694
(dp695
g62
(dp696
g70
I3
ssg71
g690
sg64
(lp697
S''
asbasbasbag57
(g73
g59
NtRp698
(dp699
g62
(dp700
sg71
g674
sg64
(lp701
g57
(g78
g59
NtRp702
(dp703
g62
(dp704
g82
g83
ssg71
g698
sg64
(lp705
g327
asbag57
(g78
g59
NtRp706
(dp707
g62
(dp708
g89
g90
ssg71
g698
sg64
(lp709
S':'
asbag57
(g78
g59
NtRp710
(dp711
g62
(dp712
sg71
g698
sg64
(lp713
g57
(g58
g59
NtRp714
(dp715
g62
(dp716
g70
I3
ssg71
g710
sg64
(lp717
S''
asbasbasbag57
(g73
g59
NtRp718
(dp719
g62
(dp720
sg71
g674
sg64
(lp721
g57
(g78
g59
NtRp722
(dp723
g62
(dp724
g82
g83
ssg71
g718
sg64
(lp725
g348
asbag57
(g78
g59
NtRp726
(dp727
g62
(dp728
g89
g90
ssg71
g718
sg64
(lp729
S':'
asbag57
(g78
g59
NtRp730
(dp731
g62
(dp732
sg71
g718
sg64
(lp733
g57
(g58
g59
NtRp734
(dp735
g62
(dp736
g70
I3
ssg71
g730
sg64
(lp737
S''
asbasbasbag57
(g73
g59
NtRp738
(dp739
g62
(dp740
sg71
g674
sg64
(lp741
g57
(g78
g59
NtRp742
(dp743
g62
(dp744
g82
g83
ssg71
g738
sg64
(lp745
g369
asbag57
(g78
g59
NtRp746
(dp747
g62
(dp748
g89
g90
ssg71
g738
sg64
(lp749
S':'
asbag57
(g78
g59
NtRp750
(dp751
g62
(dp752
sg71
g738
sg64
(lp753
g57
(g58
g59
NtRp754
(dp755
g62
(dp756
g70
I3
ssg71
g750
sg64
(lp757
S''
asbasbasbag57
(g73
g59
NtRp758
(dp759
g62
(dp760
sg71
g674
sg64
(lp761
g57
(g78
g59
NtRp762
(dp763
g62
(dp764
g82
g83
ssg71
g758
sg64
(lp765
g390
asbag57
(g78
g59
NtRp766
(dp767
g62
(dp768
g89
g90
ssg71
g758
sg64
(lp769
S':'
asbag57
(g78
g59
NtRp770
(dp771
g62
(dp772
sg71
g758
sg64
(lp773
g57
(g58
g59
NtRp774
(dp775
g62
(dp776
g70
I3
ssg71
g770
sg64
(lp777
S''
asbasbasbag57
(g73
g59
NtRp778
(dp779
g62
(dp780
sg71
g674
sg64
(lp781
g57
(g78
g59
NtRp782
(dp783
g62
(dp784
g82
g83
ssg71
g778
sg64
(lp785
g411
asbag57
(g78
g59
NtRp786
(dp787
g62
(dp788
g89
g90
ssg71
g778
sg64
(lp789
S':'
asbag57
(g78
g59
NtRp790
(dp791
g62
(dp792
sg71
g778
sg64
(lp793
g57
(g58
g59
NtRp794
(dp795
g62
(dp796
g70
I3
ssg71
g790
sg64
(lp797
S''
asbasbasbag57
(g73
g59
NtRp798
(dp799
g62
(dp800
sg71
g674
sg64
(lp801
g57
(g78
g59
NtRp802
(dp803
g62
(dp804
g82
g83
ssg71
g798
sg64
(lp805
g432
asbag57
(g78
g59
NtRp806
(dp807
g62
(dp808
g89
g90
ssg71
g798
sg64
(lp809
S':'
asbag57
(g78
g59
NtRp810
(dp811
g62
(dp812
sg71
g798
sg64
(lp813
g57
(g58
g59
NtRp814
(dp815
g62
(dp816
g70
I3
ssg71
g810
sg64
(lp817
S''
asbasbasbag57
(g73
g59
NtRp818
(dp819
g62
(dp820
sg71
g674
sg64
(lp821
g57
(g78
g59
NtRp822
(dp823
g62
(dp824
g82
g83
ssg71
g818
sg64
(lp825
g453
asbag57
(g78
g59
NtRp826
(dp827
g62
(dp828
g89
g90
ssg71
g818
sg64
(lp829
S':'
asbag57
(g78
g59
NtRp830
(dp831
g62
(dp832
sg71
g818
sg64
(lp833
g57
(g58
g59
NtRp834
(dp835
g62
(dp836
g70
I3
ssg71
g830
sg64
(lp837
S''
asbasbasbasbasbasbasbag57
(g73
g59
NtRp838
(dp839
g62
(dp840
sg71
g268
sg64
(lp841
g57
(g78
g59
NtRp842
(dp843
g62
(dp844
g82
g83
ssg71
g838
sg64
(lp845
S'session_id_shipra'
p846
asbag57
(g78
g59
NtRp847
(dp848
g62
(dp849
g89
g90
ssg71
g838
sg64
(lp850
S':'
asbag57
(g78
g59
NtRp851
(dp852
g62
(dp853
sg71
g838
sg64
(lp854
g57
(g58
g59
NtRp855
(dp856
g62
(dp857
g70
I4
ssg71
g851
sg64
(lp858
S'127.0.0.1-d391ed2c-8322-46b3-b175-091fd330da7e'
p859
ag57
(g66
g59
NtRp860
(dp861
g62
(dp862
g70
I3
ssg71
Nsg64
(lp863
g57
(g73
g59
NtRp864
(dp865
g62
(dp866
sg71
g860
sg64
(lp867
g57
(g78
g59
NtRp868
(dp869
g62
(dp870
g82
g83
ssg71
g864
sg64
(lp871
g306
asbag57
(g78
g59
NtRp872
(dp873
g62
(dp874
g89
g90
ssg71
g864
sg64
(lp875
S':'
asbag57
(g78
g59
NtRp876
(dp877
g62
(dp878
sg71
g864
sg64
(lp879
g57
(g58
g59
NtRp880
(dp881
g62
(dp882
g70
I3
ssg71
g876
sg64
(lp883
S''
asbasbasbag57
(g73
g59
NtRp884
(dp885
g62
(dp886
sg71
g860
sg64
(lp887
g57
(g78
g59
NtRp888
(dp889
g62
(dp890
g82
g83
ssg71
g884
sg64
(lp891
g327
asbag57
(g78
g59
NtRp892
(dp893
g62
(dp894
g89
g90
ssg71
g884
sg64
(lp895
S':'
asbag57
(g78
g59
NtRp896
(dp897
g62
(dp898
sg71
g884
sg64
(lp899
g57
(g58
g59
NtRp900
(dp901
g62
(dp902
g70
I3
ssg71
g896
sg64
(lp903
S''
asbasbasbag57
(g73
g59
NtRp904
(dp905
g62
(dp906
sg71
g860
sg64
(lp907
g57
(g78
g59
NtRp908
(dp909
g62
(dp910
g82
g83
ssg71
g904
sg64
(lp911
g348
asbag57
(g78
g59
NtRp912
(dp913
g62
(dp914
g89
g90
ssg71
g904
sg64
(lp915
S':'
asbag57
(g78
g59
NtRp916
(dp917
g62
(dp918
sg71
g904
sg64
(lp919
g57
(g58
g59
NtRp920
(dp921
g62
(dp922
g70
I3
ssg71
g916
sg64
(lp923
S''
asbasbasbag57
(g73
g59
NtRp924
(dp925
g62
(dp926
sg71
g860
sg64
(lp927
g57
(g78
g59
NtRp928
(dp929
g62
(dp930
g82
g83
ssg71
g924
sg64
(lp931
g369
asbag57
(g78
g59
NtRp932
(dp933
g62
(dp934
g89
g90
ssg71
g924
sg64
(lp935
S':'
asbag57
(g78
g59
NtRp936
(dp937
g62
(dp938
sg71
g924
sg64
(lp939
g57
(g58
g59
NtRp940
(dp941
g62
(dp942
g70
I3
ssg71
g936
sg64
(lp943
S''
asbasbasbag57
(g73
g59
NtRp944
(dp945
g62
(dp946
sg71
g860
sg64
(lp947
g57
(g78
g59
NtRp948
(dp949
g62
(dp950
g82
g83
ssg71
g944
sg64
(lp951
g390
asbag57
(g78
g59
NtRp952
(dp953
g62
(dp954
g89
g90
ssg71
g944
sg64
(lp955
S':'
asbag57
(g78
g59
NtRp956
(dp957
g62
(dp958
sg71
g944
sg64
(lp959
g57
(g58
g59
NtRp960
(dp961
g62
(dp962
g70
I3
ssg71
g956
sg64
(lp963
S''
asbasbasbag57
(g73
g59
NtRp964
(dp965
g62
(dp966
sg71
g860
sg64
(lp967
g57
(g78
g59
NtRp968
(dp969
g62
(dp970
g82
g83
ssg71
g964
sg64
(lp971
g411
asbag57
(g78
g59
NtRp972
(dp973
g62
(dp974
g89
g90
ssg71
g964
sg64
(lp975
S':'
asbag57
(g78
g59
NtRp976
(dp977
g62
(dp978
sg71
g964
sg64
(lp979
g57
(g58
g59
NtRp980
(dp981
g62
(dp982
g70
I3
ssg71
g976
sg64
(lp983
S''
asbasbasbag57
(g73
g59
NtRp984
(dp985
g62
(dp986
sg71
g860
sg64
(lp987
g57
(g78
g59
NtRp988
(dp989
g62
(dp990
g82
g83
ssg71
g984
sg64
(lp991
g432
asbag57
(g78
g59
NtRp992
(dp993
g62
(dp994
g89
g90
ssg71
g984
sg64
(lp995
S':'
asbag57
(g78
g59
NtRp996
(dp997
g62
(dp998
sg71
g984
sg64
(lp999
g57
(g58
g59
NtRp1000
(dp1001
g62
(dp1002
g70
I3
ssg71
g996
sg64
(lp1003
S''
asbasbasbag57
(g73
g59
NtRp1004
(dp1005
g62
(dp1006
sg71
g860
sg64
(lp1007
g57
(g78
g59
NtRp1008
(dp1009
g62
(dp1010
g82
g83
ssg71
g1004
sg64
(lp1011
g453
asbag57
(g78
g59
NtRp1012
(dp1013
g62
(dp1014
g89
g90
ssg71
g1004
sg64
(lp1015
S':'
asbag57
(g78
g59
NtRp1016
(dp1017
g62
(dp1018
sg71
g1004
sg64
(lp1019
g57
(g58
g59
NtRp1020
(dp1021
g62
(dp1022
g70
I3
ssg71
g1016
sg64
(lp1023
S''
asbasbasbasbasbasbasbag57
(g73
g59
NtRp1024
(dp1025
g62
(dp1026
sg71
g268
sg64
(lp1027
g57
(g78
g59
NtRp1028
(dp1029
g62
(dp1030
g82
g83
ssg71
g1024
sg64
(lp1031
S'session_id_welcome'
p1032
asbag57
(g78
g59
NtRp1033
(dp1034
g62
(dp1035
g89
g90
ssg71
g1024
sg64
(lp1036
S':'
asbag57
(g78
g59
NtRp1037
(dp1038
g62
(dp1039
sg71
g1024
sg64
(lp1040
g57
(g58
g59
NtRp1041
(dp1042
g62
(dp1043
g70
I4
ssg71
g1037
sg64
(lp1044
S'127.0.0.1-c25cd84e-65ab-4d2d-9093-60de5ab222c6'
p1045
ag57
(g66
g59
NtRp1046
(dp1047
g62
(dp1048
g70
I3
ssg71
Nsg64
(lp1049
g57
(g73
g59
NtRp1050
(dp1051
g62
(dp1052
sg71
g1046
sg64
(lp1053
g57
(g78
g59
NtRp1054
(dp1055
g62
(dp1056
g82
g83
ssg71
g1050
sg64
(lp1057
g306
asbag57
(g78
g59
NtRp1058
(dp1059
g62
(dp1060
g89
g90
ssg71
g1050
sg64
(lp1061
S':'
asbag57
(g78
g59
NtRp1062
(dp1063
g62
(dp1064
sg71
g1050
sg64
(lp1065
g57
(g58
g59
NtRp1066
(dp1067
g62
(dp1068
g70
I3
ssg71
g1062
sg64
(lp1069
S''
asbasbasbag57
(g73
g59
NtRp1070
(dp1071
g62
(dp1072
sg71
g1046
sg64
(lp1073
g57
(g78
g59
NtRp1074
(dp1075
g62
(dp1076
g82
g83
ssg71
g1070
sg64
(lp1077
g327
asbag57
(g78
g59
NtRp1078
(dp1079
g62
(dp1080
g89
g90
ssg71
g1070
sg64
(lp1081
S':'
asbag57
(g78
g59
NtRp1082
(dp1083
g62
(dp1084
sg71
g1070
sg64
(lp1085
g57
(g58
g59
NtRp1086
(dp1087
g62
(dp1088
g70
I3
ssg71
g1082
sg64
(lp1089
S''
asbasbasbag57
(g73
g59
NtRp1090
(dp1091
g62
(dp1092
sg71
g1046
sg64
(lp1093
g57
(g78
g59
NtRp1094
(dp1095
g62
(dp1096
g82
g83
ssg71
g1090
sg64
(lp1097
g348
asbag57
(g78
g59
NtRp1098
(dp1099
g62
(dp1100
g89
g90
ssg71
g1090
sg64
(lp1101
S':'
asbag57
(g78
g59
NtRp1102
(dp1103
g62
(dp1104
sg71
g1090
sg64
(lp1105
g57
(g58
g59
NtRp1106
(dp1107
g62
(dp1108
g70
I3
ssg71
g1102
sg64
(lp1109
S''
asbasbasbag57
(g73
g59
NtRp1110
(dp1111
g62
(dp1112
sg71
g1046
sg64
(lp1113
g57
(g78
g59
NtRp1114
(dp1115
g62
(dp1116
g82
g83
ssg71
g1110
sg64
(lp1117
g369
asbag57
(g78
g59
NtRp1118
(dp1119
g62
(dp1120
g89
g90
ssg71
g1110
sg64
(lp1121
S':'
asbag57
(g78
g59
NtRp1122
(dp1123
g62
(dp1124
sg71
g1110
sg64
(lp1125
g57
(g58
g59
NtRp1126
(dp1127
g62
(dp1128
g70
I3
ssg71
g1122
sg64
(lp1129
S''
asbasbasbag57
(g73
g59
NtRp1130
(dp1131
g62
(dp1132
sg71
g1046
sg64
(lp1133
g57
(g78
g59
NtRp1134
(dp1135
g62
(dp1136
g82
g83
ssg71
g1130
sg64
(lp1137
g390
asbag57
(g78
g59
NtRp1138
(dp1139
g62
(dp1140
g89
g90
ssg71
g1130
sg64
(lp1141
S':'
asbag57
(g78
g59
NtRp1142
(dp1143
g62
(dp1144
sg71
g1130
sg64
(lp1145
g57
(g58
g59
NtRp1146
(dp1147
g62
(dp1148
g70
I3
ssg71
g1142
sg64
(lp1149
S''
asbasbasbag57
(g73
g59
NtRp1150
(dp1151
g62
(dp1152
sg71
g1046
sg64
(lp1153
g57
(g78
g59
NtRp1154
(dp1155
g62
(dp1156
g82
g83
ssg71
g1150
sg64
(lp1157
g411
asbag57
(g78
g59
NtRp1158
(dp1159
g62
(dp1160
g89
g90
ssg71
g1150
sg64
(lp1161
S':'
asbag57
(g78
g59
NtRp1162
(dp1163
g62
(dp1164
sg71
g1150
sg64
(lp1165
g57
(g58
g59
NtRp1166
(dp1167
g62
(dp1168
g70
I3
ssg71
g1162
sg64
(lp1169
S''
asbasbasbag57
(g73
g59
NtRp1170
(dp1171
g62
(dp1172
sg71
g1046
sg64
(lp1173
g57
(g78
g59
NtRp1174
(dp1175
g62
(dp1176
g82
g83
ssg71
g1170
sg64
(lp1177
g432
asbag57
(g78
g59
NtRp1178
(dp1179
g62
(dp1180
g89
g90
ssg71
g1170
sg64
(lp1181
S':'
asbag57
(g78
g59
NtRp1182
(dp1183
g62
(dp1184
sg71
g1170
sg64
(lp1185
g57
(g58
g59
NtRp1186
(dp1187
g62
(dp1188
g70
I3
ssg71
g1182
sg64
(lp1189
S''
asbasbasbag57
(g73
g59
NtRp1190
(dp1191
g62
(dp1192
sg71
g1046
sg64
(lp1193
g57
(g78
g59
NtRp1194
(dp1195
g62
(dp1196
g82
g83
ssg71
g1190
sg64
(lp1197
g453
asbag57
(g78
g59
NtRp1198
(dp1199
g62
(dp1200
g89
g90
ssg71
g1190
sg64
(lp1201
S':'
asbag57
(g78
g59
NtRp1202
(dp1203
g62
(dp1204
sg71
g1190
sg64
(lp1205
g57
(g58
g59
NtRp1206
(dp1207
g62
(dp1208
g70
I3
ssg71
g1202
sg64
(lp1209
S''
asbasbasbasbasbasbasbasbasbasbasbag57
(g73
g59
NtRp1210
(dp1211
g62
(dp1212
sg71
g67
sg64
(lp1213
g57
(g78
g59
NtRp1214
(dp1215
g62
(dp1216
g82
g83
ssg71
g1210
sg64
(lp1217
S'env'
p1218
asbag57
(g78
g59
NtRp1219
(dp1220
g62
(dp1221
g89
g90
ssg71
g1210
sg64
(lp1222
S':'
asbag57
(g78
g59
NtRp1223
(dp1224
g62
(dp1225
sg71
g1210
sg64
(lp1226
g57
(g58
g59
NtRp1227
(dp1228
g62
(dp1229
g70
I5
ssg71
g1223
sg64
(lp1230
g57
(g66
g59
NtRp1231
(dp1232
g62
(dp1233
g70
I4
ssg71
Nsg64
(lp1234
g57
(g73
g59
NtRp1235
(dp1236
g62
(dp1237
sg71
g1231
sg64
(lp1238
g57
(g78
g59
NtRp1239
(dp1240
g62
(dp1241
g82
g83
ssg71
g1235
sg64
(lp1242
S'app_folders'
p1243
asbag57
(g78
g59
NtRp1244
(dp1245
g62
(dp1246
g89
g90
ssg71
g1235
sg64
(lp1247
S':'
asbag57
(g78
g59
NtRp1248
(dp1249
g62
(dp1250
sg71
g1235
sg64
(lp1251
g57
(g58
g59
NtRp1252
(dp1253
g62
(dp1254
g70
I4
ssg71
g1248
sg64
(lp1255
S"set(['/home/shipra/Desktop/Semester 1.2/ITWS-2/web2py/applications/shipra/', '/home/shipra/Desktop/Semester 1.2/ITWS-2/web2py/applications/welcome/', '/home/shipra/Desktop/Semester 1.2/ITWS-2/web2py/applications/resume/', '/home/shipra/Desktop/Semester 1.2/ITWS-2/web2py/applications/admin/'])"
p1256
asbasbasbag57
(g73
g59
NtRp1257
(dp1258
g62
(dp1259
sg71
g1231
sg64
(lp1260
g57
(g78
g59
NtRp1261
(dp1262
g62
(dp1263
g82
g83
ssg71
g1257
sg64
(lp1264
S'applications_parent'
p1265
asbag57
(g78
g59
NtRp1266
(dp1267
g62
(dp1268
g89
g90
ssg71
g1257
sg64
(lp1269
S':'
asbag57
(g78
g59
NtRp1270
(dp1271
g62
(dp1272
sg71
g1257
sg64
(lp1273
g57
(g58
g59
NtRp1274
(dp1275
g62
(dp1276
g70
I4
ssg71
g1270
sg64
(lp1277
S'/home/shipra/Desktop/Semester 1.2/ITWS-2/web2py'
p1278
asbasbasbag57
(g73
g59
NtRp1279
(dp1280
g62
(dp1281
sg71
g1231
sg64
(lp1282
g57
(g78
g59
NtRp1283
(dp1284
g62
(dp1285
g82
g83
ssg71
g1279
sg64
(lp1286
S'cmd_args'
p1287
asbag57
(g78
g59
NtRp1288
(dp1289
g62
(dp1290
g89
g90
ssg71
g1279
sg64
(lp1291
S':'
asbag57
(g78
g59
NtRp1292
(dp1293
g62
(dp1294
sg71
g1279
sg64
(lp1295
g57
(g58
g59
NtRp1296
(dp1297
g62
(dp1298
g70
I4
ssg71
g1292
sg64
(lp1299
g57
(g66
g59
NtRp1300
(dp1301
g62
(dp1302
g70
I3
ssg71
Nsg64
(lp1303
sbasbasbasbag57
(g73
g59
NtRp1304
(dp1305
g62
(dp1306
sg71
g1231
sg64
(lp1307
g57
(g78
g59
NtRp1308
(dp1309
g62
(dp1310
g82
g83
ssg71
g1304
sg64
(lp1311
S'cmd_options'
p1312
asbag57
(g78
g59
NtRp1313
(dp1314
g62
(dp1315
g89
g90
ssg71
g1304
sg64
(lp1316
S':'
asbag57
(g78
g59
NtRp1317
(dp1318
g62
(dp1319
sg71
g1304
sg64
(lp1320
g57
(g58
g59
NtRp1321
(dp1322
g62
(dp1323
g70
I4
ssg71
g1317
sg64
(lp1324
S"<Values at 0x1c11248: {'verbose': False, 'ip': '127.0.0.1', 'with_scheduler': False, 'ips': ['10.42.0.1', '192.168.122.1', 'fe80::8a53:2eff:fe7d:9d6c%wlan0', 'fe80::e611:5bff:fe38:8d0d%p5p1', '10.1.97.43'], 'shutdown_timeout': 5, 'taskbar': False, 'port': 8000, 'maxthreads': None, 'softcron': False, 'server_name': 'shipra', 'bpython': False, 'nogui': False, 'pid_filename': 'httpserver.pid', 'extcron': False, 'runcron': False, 'run_system_tests': False, 'test': None, 'folder': '/home/shipra/Desktop/Semester 1.2/ITWS-2/web2py', 'config': '', 'minthreads': None, 'winservice': '', 'shell': None, 'run': '', 'log_filename': 'httpserver.log', 'debuglevel': 30, 'args': [''], 'socket_timeout': 5, 'ssl_ca_certificate': None, 'scheduler': None, 'profiler_filename': None, 'ssl_private_key': '', 'scheduler_groups': None, 'password': '<ask>', 'request_queue_size': 5, 'ssl_certificate': '', 'cronjob': False, 'numthreads': None, 'quiet': False, 'interfaces': None, 'import_models': False, 'timeout': 10, 'plain': False, 'nobanner': False}>"
p1325
asbasbasbag57
(g73
g59
NtRp1326
(dp1327
g62
(dp1328
sg71
g1231
sg64
(lp1329
g57
(g78
g59
NtRp1330
(dp1331
g62
(dp1332
g82
g83
ssg71
g1326
sg64
(lp1333
S'db_sessions'
p1334
asbag57
(g78
g59
NtRp1335
(dp1336
g62
(dp1337
g89
g90
ssg71
g1326
sg64
(lp1338
S':'
asbag57
(g78
g59
NtRp1339
(dp1340
g62
(dp1341
sg71
g1326
sg64
(lp1342
g57
(g58
g59
NtRp1343
(dp1344
g62
(dp1345
g70
I4
ssg71
g1339
sg64
(lp1346
S'set([])'
p1347
asbasbasbag57
(g73
g59
NtRp1348
(dp1349
g62
(dp1350
sg71
g1231
sg64
(lp1351
g57
(g78
g59
NtRp1352
(dp1353
g62
(dp1354
g82
g83
ssg71
g1348
sg64
(lp1355
S'debugging'
p1356
asbag57
(g78
g59
NtRp1357
(dp1358
g62
(dp1359
g89
g90
ssg71
g1348
sg64
(lp1360
S':'
asbag57
(g78
g59
NtRp1361
(dp1362
g62
(dp1363
sg71
g1348
sg64
(lp1364
g57
(g58
g59
NtRp1365
(dp1366
g62
(dp1367
g70
I4
ssg71
g1361
sg64
(lp1368
g100
asbasbasbag57
(g73
g59
NtRp1369
(dp1370
g62
(dp1371
sg71
g1231
sg64
(lp1372
g57
(g78
g59
NtRp1373
(dp1374
g62
(dp1375
g82
g83
ssg71
g1369
sg64
(lp1376
S'gluon_parent'
p1377
asbag57
(g78
g59
NtRp1378
(dp1379
g62
(dp1380
g89
g90
ssg71
g1369
sg64
(lp1381
S':'
asbag57
(g78
g59
NtRp1382
(dp1383
g62
(dp1384
sg71
g1369
sg64
(lp1385
g57
(g58
g59
NtRp1386
(dp1387
g62
(dp1388
g70
I4
ssg71
g1382
sg64
(lp1389
S'/home/shipra/Desktop/Semester 1.2/ITWS-2/web2py'
p1390
asbasbasbag57
(g73
g59
NtRp1391
(dp1392
g62
(dp1393
sg71
g1231
sg64
(lp1394
g57
(g78
g59
NtRp1395
(dp1396
g62
(dp1397
g82
g83
ssg71
g1391
sg64
(lp1398
S'http_accept'
p1399
asbag57
(g78
g59
NtRp1400
(dp1401
g62
(dp1402
g89
g90
ssg71
g1391
sg64
(lp1403
S':'
asbag57
(g78
g59
NtRp1404
(dp1405
g62
(dp1406
sg71
g1391
sg64
(lp1407
g57
(g58
g59
NtRp1408
(dp1409
g62
(dp1410
g70
I4
ssg71
g1404
sg64
(lp1411
S'text/html,application/xhtml+xml,application/xml;q=0.9,*/*;q=0.8'
p1412
asbasbasbag57
(g73
g59
NtRp1413
(dp1414
g62
(dp1415
sg71
g1231
sg64
(lp1416
g57
(g78
g59
NtRp1417
(dp1418
g62
(dp1419
g82
g83
ssg71
g1413
sg64
(lp1420
S'http_accept_encoding'
p1421
asbag57
(g78
g59
NtRp1422
(dp1423
g62
(dp1424
g89
g90
ssg71
g1413
sg64
(lp1425
S':'
asbag57
(g78
g59
NtRp1426
(dp1427
g62
(dp1428
sg71
g1413
sg64
(lp1429
g57
(g58
g59
NtRp1430
(dp1431
g62
(dp1432
g70
I4
ssg71
g1426
sg64
(lp1433
S'gzip, deflate'
p1434
asbasbasbag57
(g73
g59
NtRp1435
(dp1436
g62
(dp1437
sg71
g1231
sg64
(lp1438
g57
(g78
g59
NtRp1439
(dp1440
g62
(dp1441
g82
g83
ssg71
g1435
sg64
(lp1442
S'http_accept_language'
p1443
asbag57
(g78
g59
NtRp1444
(dp1445
g62
(dp1446
g89
g90
ssg71
g1435
sg64
(lp1447
S':'
asbag57
(g78
g59
NtRp1448
(dp1449
g62
(dp1450
sg71
g1435
sg64
(lp1451
g57
(g58
g59
NtRp1452
(dp1453
g62
(dp1454
g70
I4
ssg71
g1448
sg64
(lp1455
S'en-us,en;q=0.5'
p1456
asbasbasbag57
(g73
g59
NtRp1457
(dp1458
g62
(dp1459
sg71
g1231
sg64
(lp1460
g57
(g78
g59
NtRp1461
(dp1462
g62
(dp1463
g82
g83
ssg71
g1457
sg64
(lp1464
S'http_connection'
p1465
asbag57
(g78
g59
NtRp1466
(dp1467
g62
(dp1468
g89
g90
ssg71
g1457
sg64
(lp1469
S':'
asbag57
(g78
g59
NtRp1470
(dp1471
g62
(dp1472
sg71
g1457
sg64
(lp1473
g57
(g58
g59
NtRp1474
(dp1475
g62
(dp1476
g70
I4
ssg71
g1470
sg64
(lp1477
S'keep-alive'
p1478
asbasbasbag57
(g73
g59
NtRp1479
(dp1480
g62
(dp1481
sg71
g1231
sg64
(lp1482
g57
(g78
g59
NtRp1483
(dp1484
g62
(dp1485
g82
g83
ssg71
g1479
sg64
(lp1486
S'http_cookie'
p1487
asbag57
(g78
g59
NtRp1488
(dp1489
g62
(dp1490
g89
g90
ssg71
g1479
sg64
(lp1491
S':'
asbag57
(g78
g59
NtRp1492
(dp1493
g62
(dp1494
sg71
g1479
sg64
(lp1495
g57
(g58
g59
NtRp1496
(dp1497
g62
(dp1498
g70
I4
ssg71
g1492
sg64
(lp1499
S'__utma=96992031.1334412862.1364672878.1364672878.1364718243.2; __utmz=96992031.1364672878.1.1.utmcsr=(direct)|utmccn=(direct)|utmcmd=(none); __lc.visitor_id.1195381=S1364672235.4faffcf2d2; __ar_v4=OWHSPOGHTNEIPPPBMHVFTA%3A20130329%3A12%7CAMEDRHI4VZG4TIA2AZ565D%3A20130329%3A12%7CWAEQXC4B2NH3DDBR3TZM6I%3A20130329%3A12; mp_2093ad9ff9c5428a2228386de2f2b0e4_mixpanel=%7B%22distinct_id%22%3A%20%2262ffc2d0-7b9f-0130-efb0-22000a1cbb2a%22%2C%22is_registered_user%22%3A%20false%2C%22%24initial_referrer%22%3A%20%22%24direct%22%2C%22%24initial_referring_domain%22%3A%20%22%24direct%22%7D; session_id_welcome=127.0.0.1-c25cd84e-65ab-4d2d-9093-60de5ab222c6; session_id_shipra=127.0.0.1-d391ed2c-8322-46b3-b175-091fd330da7e; session_id_admin=127.0.0.1-486691c0-1416-4962-88fb-2d24e40268c1; session_id_resume=127.0.0.1-464cf9d5-c296-4ac5-b85c-7e50aed192ac'
p1500
asbasbasbag57
(g73
g59
NtRp1501
(dp1502
g62
(dp1503
sg71
g1231
sg64
(lp1504
g57
(g78
g59
NtRp1505
(dp1506
g62
(dp1507
g82
g83
ssg71
g1501
sg64
(lp1508
S'http_host'
p1509
asbag57
(g78
g59
NtRp1510
(dp1511
g62
(dp1512
g89
g90
ssg71
g1501
sg64
(lp1513
S':'
asbag57
(g78
g59
NtRp1514
(dp1515
g62
(dp1516
sg71
g1501
sg64
(lp1517
g57
(g58
g59
NtRp1518
(dp1519
g62
(dp1520
g70
I4
ssg71
g1514
sg64
(lp1521
S'127.0.0.1:8000'
p1522
asbasbasbag57
(g73
g59
NtRp1523
(dp1524
g62
(dp1525
sg71
g1231
sg64
(lp1526
g57
(g78
g59
NtRp1527
(dp1528
g62
(dp1529
g82
g83
ssg71
g1523
sg64
(lp1530
S'http_referer'
p1531
asbag57
(g78
g59
NtRp1532
(dp1533
g62
(dp1534
g89
g90
ssg71
g1523
sg64
(lp1535
S':'
asbag57
(g78
g59
NtRp1536
(dp1537
g62
(dp1538
sg71
g1523
sg64
(lp1539
g57
(g58
g59
NtRp1540
(dp1541
g62
(dp1542
g70
I4
ssg71
g1536
sg64
(lp1543
S'http://127.0.0.1:8000/resume/default/resume_search'
p1544
asbasbasbag57
(g73
g59
NtRp1545
(dp1546
g62
(dp1547
sg71
g1231
sg64
(lp1548
g57
(g78
g59
NtRp1549
(dp1550
g62
(dp1551
g82
g83
ssg71
g1545
sg64
(lp1552
S'http_user_agent'
p1553
asbag57
(g78
g59
NtRp1554
(dp1555
g62
(dp1556
g89
g90
ssg71
g1545
sg64
(lp1557
S':'
asbag57
(g78
g59
NtRp1558
(dp1559
g62
(dp1560
sg71
g1545
sg64
(lp1561
g57
(g58
g59
NtRp1562
(dp1563
g62
(dp1564
g70
I4
ssg71
g1558
sg64
(lp1565
S'Mozilla/5.0 (X11; Linux x86_64; rv:12.0) Gecko/20100101 Firefox/12.0'
p1566
asbasbasbag57
(g73
g59
NtRp1567
(dp1568
g62
(dp1569
sg71
g1231
sg64
(lp1570
g57
(g78
g59
NtRp1571
(dp1572
g62
(dp1573
g82
g83
ssg71
g1567
sg64
(lp1574
S'is_jython'
p1575
asbag57
(g78
g59
NtRp1576
(dp1577
g62
(dp1578
g89
g90
ssg71
g1567
sg64
(lp1579
S':'
asbag57
(g78
g59
NtRp1580
(dp1581
g62
(dp1582
sg71
g1567
sg64
(lp1583
g57
(g58
g59
NtRp1584
(dp1585
g62
(dp1586
g70
I4
ssg71
g1580
sg64
(lp1587
g100
asbasbasbag57
(g73
g59
NtRp1588
(dp1589
g62
(dp1590
sg71
g1231
sg64
(lp1591
g57
(g78
g59
NtRp1592
(dp1593
g62
(dp1594
g82
g83
ssg71
g1588
sg64
(lp1595
S'is_pypy'
p1596
asbag57
(g78
g59
NtRp1597
(dp1598
g62
(dp1599
g89
g90
ssg71
g1588
sg64
(lp1600
S':'
asbag57
(g78
g59
NtRp1601
(dp1602
g62
(dp1603
sg71
g1588
sg64
(lp1604
g57
(g58
g59
NtRp1605
(dp1606
g62
(dp1607
g70
I4
ssg71
g1601
sg64
(lp1608
g100
asbasbasbag57
(g73
g59
NtRp1609
(dp1610
g62
(dp1611
sg71
g1231
sg64
(lp1612
g57
(g78
g59
NtRp1613
(dp1614
g62
(dp1615
g82
g83
ssg71
g1609
sg64
(lp1616
S'local_hosts'
p1617
asbag57
(g78
g59
NtRp1618
(dp1619
g62
(dp1620
g89
g90
ssg71
g1609
sg64
(lp1621
S':'
asbag57
(g78
g59
NtRp1622
(dp1623
g62
(dp1624
sg71
g1609
sg64
(lp1625
g57
(g58
g59
NtRp1626
(dp1627
g62
(dp1628
g70
I4
ssg71
g1622
sg64
(lp1629
g57
(g66
g59
NtRp1630
(dp1631
g62
(dp1632
g70
I3
ssg71
Nsg64
(lp1633
g57
(g73
g59
NtRp1634
(dp1635
g62
(dp1636
sg71
g1630
sg64
(lp1637
g57
(g78
g59
NtRp1638
(dp1639
g62
(dp1640
sg71
g1634
sg64
(lp1641
g57
(g58
g59
NtRp1642
(dp1643
g62
(dp1644
g70
I3
ssg71
g1638
sg64
(lp1645
S'10.42.0.1'
p1646
asbasbasbag57
(g73
g59
NtRp1647
(dp1648
g62
(dp1649
sg71
g1630
sg64
(lp1650
g57
(g78
g59
NtRp1651
(dp1652
g62
(dp1653
sg71
g1647
sg64
(lp1654
g57
(g58
g59
NtRp1655
(dp1656
g62
(dp1657
g70
I3
ssg71
g1651
sg64
(lp1658
S'192.168.122.1'
p1659
asbasbasbag57
(g73
g59
NtRp1660
(dp1661
g62
(dp1662
sg71
g1630
sg64
(lp1663
g57
(g78
g59
NtRp1664
(dp1665
g62
(dp1666
sg71
g1660
sg64
(lp1667
g57
(g58
g59
NtRp1668
(dp1669
g62
(dp1670
g70
I3
ssg71
g1664
sg64
(lp1671
S'::ffff:127.0.0.1'
p1672
asbasbasbag57
(g73
g59
NtRp1673
(dp1674
g62
(dp1675
sg71
g1630
sg64
(lp1676
g57
(g78
g59
NtRp1677
(dp1678
g62
(dp1679
sg71
g1673
sg64
(lp1680
g57
(g58
g59
NtRp1681
(dp1682
g62
(dp1683
g70
I3
ssg71
g1677
sg64
(lp1684
S'::1'
p1685
asbasbasbag57
(g73
g59
NtRp1686
(dp1687
g62
(dp1688
sg71
g1630
sg64
(lp1689
g57
(g78
g59
NtRp1690
(dp1691
g62
(dp1692
sg71
g1686
sg64
(lp1693
g57
(g58
g59
NtRp1694
(dp1695
g62
(dp1696
g70
I3
ssg71
g1690
sg64
(lp1697
S'10.1.97.43'
p1698
asbasbasbag57
(g73
g59
NtRp1699
(dp1700
g62
(dp1701
sg71
g1630
sg64
(lp1702
g57
(g78
g59
NtRp1703
(dp1704
g62
(dp1705
sg71
g1699
sg64
(lp1706
g57
(g58
g59
NtRp1707
(dp1708
g62
(dp1709
g70
I3
ssg71
g1703
sg64
(lp1710
S'fe80::8a53:2eff:fe7d:9d6c%wlan0'
p1711
asbasbasbag57
(g73
g59
NtRp1712
(dp1713
g62
(dp1714
sg71
g1630
sg64
(lp1715
g57
(g78
g59
NtRp1716
(dp1717
g62
(dp1718
sg71
g1712
sg64
(lp1719
g57
(g58
g59
NtRp1720
(dp1721
g62
(dp1722
g70
I3
ssg71
g1716
sg64
(lp1723
S'fe80::e611:5bff:fe38:8d0d%p5p1'
p1724
asbasbasbag57
(g73
g59
NtRp1725
(dp1726
g62
(dp1727
sg71
g1630
sg64
(lp1728
g57
(g78
g59
NtRp1729
(dp1730
g62
(dp1731
sg71
g1725
sg64
(lp1732
g57
(g58
g59
NtRp1733
(dp1734
g62
(dp1735
g70
I3
ssg71
g1729
sg64
(lp1736
S'127.0.0.1'
p1737
asbasbasbag57
(g73
g59
NtRp1738
(dp1739
g62
(dp1740
sg71
g1630
sg64
(lp1741
g57
(g78
g59
NtRp1742
(dp1743
g62
(dp1744
sg71
g1738
sg64
(lp1745
g57
(g58
g59
NtRp1746
(dp1747
g62
(dp1748
g70
I3
ssg71
g1742
sg64
(lp1749
S'shipra'
p1750
asbasbasbasbasbasbasbag57
(g73
g59
NtRp1751
(dp1752
g62
(dp1753
sg71
g1231
sg64
(lp1754
g57
(g78
g59
NtRp1755
(dp1756
g62
(dp1757
g82
g83
ssg71
g1751
sg64
(lp1758
S'path_info'
p1759
asbag57
(g78
g59
NtRp1760
(dp1761
g62
(dp1762
g89
g90
ssg71
g1751
sg64
(lp1763
S':'
asbag57
(g78
g59
NtRp1764
(dp1765
g62
(dp1766
sg71
g1751
sg64
(lp1767
g57
(g58
g59
NtRp1768
(dp1769
g62
(dp1770
g70
I4
ssg71
g1764
sg64
(lp1771
S'/shipra/default/resume_display/4'
p1772
asbasbasbag57
(g73
g59
NtRp1773
(dp1774
g62
(dp1775
sg71
g1231
sg64
(lp1776
g57
(g78
g59
NtRp1777
(dp1778
g62
(dp1779
g82
g83
ssg71
g1773
sg64
(lp1780
S'query_string'
p1781
asbag57
(g78
g59
NtRp1782
(dp1783
g62
(dp1784
g89
g90
ssg71
g1773
sg64
(lp1785
S':'
asbag57
(g78
g59
NtRp1786
(dp1787
g62
(dp1788
sg71
g1773
sg64
(lp1789
g57
(g58
g59
NtRp1790
(dp1791
g62
(dp1792
g70
I4
ssg71
g1786
sg64
(lp1793
S''
asbasbasbag57
(g73
g59
NtRp1794
(dp1795
g62
(dp1796
sg71
g1231
sg64
(lp1797
g57
(g78
g59
NtRp1798
(dp1799
g62
(dp1800
g82
g83
ssg71
g1794
sg64
(lp1801
S'remote_addr'
p1802
asbag57
(g78
g59
NtRp1803
(dp1804
g62
(dp1805
g89
g90
ssg71
g1794
sg64
(lp1806
S':'
asbag57
(g78
g59
NtRp1807
(dp1808
g62
(dp1809
sg71
g1794
sg64
(lp1810
g57
(g58
g59
NtRp1811
(dp1812
g62
(dp1813
g70
I4
ssg71
g1807
sg64
(lp1814
g224
asbasbasbag57
(g73
g59
NtRp1815
(dp1816
g62
(dp1817
sg71
g1231
sg64
(lp1818
g57
(g78
g59
NtRp1819
(dp1820
g62
(dp1821
g82
g83
ssg71
g1815
sg64
(lp1822
S'remote_port'
p1823
asbag57
(g78
g59
NtRp1824
(dp1825
g62
(dp1826
g89
g90
ssg71
g1815
sg64
(lp1827
S':'
asbag57
(g78
g59
NtRp1828
(dp1829
g62
(dp1830
sg71
g1815
sg64
(lp1831
g57
(g58
g59
NtRp1832
(dp1833
g62
(dp1834
g70
I4
ssg71
g1828
sg64
(lp1835
S'48439'
p1836
asbasbasbag57
(g73
g59
NtRp1837
(dp1838
g62
(dp1839
sg71
g1231
sg64
(lp1840
g57
(g78
g59
NtRp1841
(dp1842
g62
(dp1843
g82
g83
ssg71
g1837
sg64
(lp1844
S'request_method'
p1845
asbag57
(g78
g59
NtRp1846
(dp1847
g62
(dp1848
g89
g90
ssg71
g1837
sg64
(lp1849
S':'
asbag57
(g78
g59
NtRp1850
(dp1851
g62
(dp1852
sg71
g1837
sg64
(lp1853
g57
(g58
g59
NtRp1854
(dp1855
g62
(dp1856
g70
I4
ssg71
g1850
sg64
(lp1857
S'GET'
p1858
asbasbasbag57
(g73
g59
NtRp1859
(dp1860
g62
(dp1861
sg71
g1231
sg64
(lp1862
g57
(g78
g59
NtRp1863
(dp1864
g62
(dp1865
g82
g83
ssg71
g1859
sg64
(lp1866
S'request_uri'
p1867
asbag57
(g78
g59
NtRp1868
(dp1869
g62
(dp1870
g89
g90
ssg71
g1859
sg64
(lp1871
S':'
asbag57
(g78
g59
NtRp1872
(dp1873
g62
(dp1874
sg71
g1859
sg64
(lp1875
g57
(g58
g59
NtRp1876
(dp1877
g62
(dp1878
g70
I4
ssg71
g1872
sg64
(lp1879
g1772
asbasbasbag57
(g73
g59
NtRp1880
(dp1881
g62
(dp1882
sg71
g1231
sg64
(lp1883
g57
(g78
g59
NtRp1884
(dp1885
g62
(dp1886
g82
g83
ssg71
g1880
sg64
(lp1887
S'script_name'
p1888
asbag57
(g78
g59
NtRp1889
(dp1890
g62
(dp1891
g89
g90
ssg71
g1880
sg64
(lp1892
S':'
asbag57
(g78
g59
NtRp1893
(dp1894
g62
(dp1895
sg71
g1880
sg64
(lp1896
g57
(g58
g59
NtRp1897
(dp1898
g62
(dp1899
g70
I4
ssg71
g1893
sg64
(lp1900
S''
asbasbasbag57
(g73
g59
NtRp1901
(dp1902
g62
(dp1903
sg71
g1231
sg64
(lp1904
g57
(g78
g59
NtRp1905
(dp1906
g62
(dp1907
g82
g83
ssg71
g1901
sg64
(lp1908
S'server_name'
p1909
asbag57
(g78
g59
NtRp1910
(dp1911
g62
(dp1912
g89
g90
ssg71
g1901
sg64
(lp1913
S':'
asbag57
(g78
g59
NtRp1914
(dp1915
g62
(dp1916
sg71
g1901
sg64
(lp1917
g57
(g58
g59
NtRp1918
(dp1919
g62
(dp1920
g70
I4
ssg71
g1914
sg64
(lp1921
S'shipra'
p1922
asbasbasbag57
(g73
g59
NtRp1923
(dp1924
g62
(dp1925
sg71
g1231
sg64
(lp1926
g57
(g78
g59
NtRp1927
(dp1928
g62
(dp1929
g82
g83
ssg71
g1923
sg64
(lp1930
S'server_port'
p1931
asbag57
(g78
g59
NtRp1932
(dp1933
g62
(dp1934
g89
g90
ssg71
g1923
sg64
(lp1935
S':'
asbag57
(g78
g59
NtRp1936
(dp1937
g62
(dp1938
sg71
g1923
sg64
(lp1939
g57
(g58
g59
NtRp1940
(dp1941
g62
(dp1942
g70
I4
ssg71
g1936
sg64
(lp1943
S'8000'
p1944
asbasbasbag57
(g73
g59
NtRp1945
(dp1946
g62
(dp1947
sg71
g1231
sg64
(lp1948
g57
(g78
g59
NtRp1949
(dp1950
g62
(dp1951
g82
g83
ssg71
g1945
sg64
(lp1952
S'server_protocol'
p1953
asbag57
(g78
g59
NtRp1954
(dp1955
g62
(dp1956
g89
g90
ssg71
g1945
sg64
(lp1957
S':'
asbag57
(g78
g59
NtRp1958
(dp1959
g62
(dp1960
sg71
g1945
sg64
(lp1961
g57
(g58
g59
NtRp1962
(dp1963
g62
(dp1964
g70
I4
ssg71
g1958
sg64
(lp1965
S'HTTP/1.1'
p1966
asbasbasbag57
(g73
g59
NtRp1967
(dp1968
g62
(dp1969
sg71
g1231
sg64
(lp1970
g57
(g78
g59
NtRp1971
(dp1972
g62
(dp1973
g82
g83
ssg71
g1967
sg64
(lp1974
S'server_software'
p1975
asbag57
(g78
g59
NtRp1976
(dp1977
g62
(dp1978
g89
g90
ssg71
g1967
sg64
(lp1979
S':'
asbag57
(g78
g59
NtRp1980
(dp1981
g62
(dp1982
sg71
g1967
sg64
(lp1983
g57
(g58
g59
NtRp1984
(dp1985
g62
(dp1986
g70
I4
ssg71
g1980
sg64
(lp1987
S'Rocket 1.2.6'
p1988
asbasbasbag57
(g73
g59
NtRp1989
(dp1990
g62
(dp1991
sg71
g1231
sg64
(lp1992
g57
(g78
g59
NtRp1993
(dp1994
g62
(dp1995
g82
g83
ssg71
g1989
sg64
(lp1996
S'web2py_path'
p1997
asbag57
(g78
g59
NtRp1998
(dp1999
g62
(dp2000
g89
g90
ssg71
g1989
sg64
(lp2001
S':'
asbag57
(g78
g59
NtRp2002
(dp2003
g62
(dp2004
sg71
g1989
sg64
(lp2005
g57
(g58
g59
NtRp2006
(dp2007
g62
(dp2008
g70
I4
ssg71
g2002
sg64
(lp2009
g1278
asbasbasbag57
(g73
g59
NtRp2010
(dp2011
g62
(dp2012
sg71
g1231
sg64
(lp2013
g57
(g78
g59
NtRp2014
(dp2015
g62
(dp2016
g82
g83
ssg71
g2010
sg64
(lp2017
S'web2py_version'
p2018
asbag57
(g78
g59
NtRp2019
(dp2020
g62
(dp2021
g89
g90
ssg71
g2010
sg64
(lp2022
S':'
asbag57
(g78
g59
NtRp2023
(dp2024
g62
(dp2025
sg71
g2010
sg64
(lp2026
g57
(g58
g59
NtRp2027
(dp2028
g62
(dp2029
g70
I4
ssg71
g2023
sg64
(lp2030
g57
(g66
g59
NtRp2031
(dp2032
g62
(dp2033
g70
I3
ssg71
Nsg64
(lp2034
g57
(g73
g59
NtRp2035
(dp2036
g62
(dp2037
sg71
g2031
sg64
(lp2038
g57
(g78
g59
NtRp2039
(dp2040
g62
(dp2041
sg71
g2035
sg64
(lp2042
g57
(g58
g59
NtRp2043
(dp2044
g62
(dp2045
g70
I3
ssg71
g2039
sg64
(lp2046
S'2'
asbasbasbag57
(g73
g59
NtRp2047
(dp2048
g62
(dp2049
sg71
g2031
sg64
(lp2050
g57
(g78
g59
NtRp2051
(dp2052
g62
(dp2053
sg71
g2047
sg64
(lp2054
g57
(g58
g59
NtRp2055
(dp2056
g62
(dp2057
g70
I3
ssg71
g2051
sg64
(lp2058
S'3'
asbasbasbag57
(g73
g59
NtRp2059
(dp2060
g62
(dp2061
sg71
g2031
sg64
(lp2062
g57
(g78
g59
NtRp2063
(dp2064
g62
(dp2065
sg71
g2059
sg64
(lp2066
g57
(g58
g59
NtRp2067
(dp2068
g62
(dp2069
g70
I3
ssg71
g2063
sg64
(lp2070
S'2'
asbasbasbag57
(g73
g59
NtRp2071
(dp2072
g62
(dp2073
sg71
g2031
sg64
(lp2074
g57
(g78
g59
NtRp2075
(dp2076
g62
(dp2077
sg71
g2071
sg64
(lp2078
g57
(g58
g59
NtRp2079
(dp2080
g62
(dp2081
g70
I3
ssg71
g2075
sg64
(lp2082
S'datetime.datetime(2012, 12, 17, 15, 3, 30)'
p2083
asbasbasbag57
(g73
g59
NtRp2084
(dp2085
g62
(dp2086
sg71
g2031
sg64
(lp2087
g57
(g78
g59
NtRp2088
(dp2089
g62
(dp2090
sg71
g2084
sg64
(lp2091
g57
(g58
g59
NtRp2092
(dp2093
g62
(dp2094
g70
I3
ssg71
g2088
sg64
(lp2095
S'stable'
p2096
asbasbasbasbasbasbasbag57
(g73
g59
NtRp2097
(dp2098
g62
(dp2099
sg71
g1231
sg64
(lp2100
g57
(g78
g59
NtRp2101
(dp2102
g62
(dp2103
g82
g83
ssg71
g2097
sg64
(lp2104
S'wsgi_errors'
p2105
asbag57
(g78
g59
NtRp2106
(dp2107
g62
(dp2108
g89
g90
ssg71
g2097
sg64
(lp2109
S':'
asbag57
(g78
g59
NtRp2110
(dp2111
g62
(dp2112
sg71
g2097
sg64
(lp2113
g57
(g58
g59
NtRp2114
(dp2115
g62
(dp2116
g70
I4
ssg71
g2110
sg64
(lp2117
S"<open file '<stderr>', mode 'w' at 0x7f701b86f270>"
p2118
asbasbasbag57
(g73
g59
NtRp2119
(dp2120
g62
(dp2121
sg71
g1231
sg64
(lp2122
g57
(g78
g59
NtRp2123
(dp2124
g62
(dp2125
g82
g83
ssg71
g2119
sg64
(lp2126
S'wsgi_file_wrapper'
p2127
asbag57
(g78
g59
NtRp2128
(dp2129
g62
(dp2130
g89
g90
ssg71
g2119
sg64
(lp2131
S':'
asbag57
(g78
g59
NtRp2132
(dp2133
g62
(dp2134
sg71
g2119
sg64
(lp2135
g57
(g58
g59
NtRp2136
(dp2137
g62
(dp2138
g70
I4
ssg71
g2132
sg64
(lp2139
S'<class wsgiref.util.FileWrapper at 0x1b9adb8>'
p2140
asbasbasbag57
(g73
g59
NtRp2141
(dp2142
g62
(dp2143
sg71
g1231
sg64
(lp2144
g57
(g78
g59
NtRp2145
(dp2146
g62
(dp2147
g82
g83
ssg71
g2141
sg64
(lp2148
S'wsgi_input'
p2149
asbag57
(g78
g59
NtRp2150
(dp2151
g62
(dp2152
g89
g90
ssg71
g2141
sg64
(lp2153
S':'
asbag57
(g78
g59
NtRp2154
(dp2155
g62
(dp2156
sg71
g2141
sg64
(lp2157
g57
(g58
g59
NtRp2158
(dp2159
g62
(dp2160
g70
I4
ssg71
g2154
sg64
(lp2161
S'<socket._fileobject object at 0x7f6fdc0ce8d0>'
p2162
asbasbasbag57
(g73
g59
NtRp2163
(dp2164
g62
(dp2165
sg71
g1231
sg64
(lp2166
g57
(g78
g59
NtRp2167
(dp2168
g62
(dp2169
g82
g83
ssg71
g2163
sg64
(lp2170
S'wsgi_multiprocess'
p2171
asbag57
(g78
g59
NtRp2172
(dp2173
g62
(dp2174
g89
g90
ssg71
g2163
sg64
(lp2175
S':'
asbag57
(g78
g59
NtRp2176
(dp2177
g62
(dp2178
sg71
g2163
sg64
(lp2179
g57
(g58
g59
NtRp2180
(dp2181
g62
(dp2182
g70
I4
ssg71
g2176
sg64
(lp2183
g100
asbasbasbag57
(g73
g59
NtRp2184
(dp2185
g62
(dp2186
sg71
g1231
sg64
(lp2187
g57
(g78
g59
NtRp2188
(dp2189
g62
(dp2190
g82
g83
ssg71
g2184
sg64
(lp2191
S'wsgi_multithread'
p2192
asbag57
(g78
g59
NtRp2193
(dp2194
g62
(dp2195
g89
g90
ssg71
g2184
sg64
(lp2196
S':'
asbag57
(g78
g59
NtRp2197
(dp2198
g62
(dp2199
sg71
g2184
sg64
(lp2200
g57
(g58
g59
NtRp2201
(dp2202
g62
(dp2203
g70
I4
ssg71
g2197
sg64
(lp2204
S'True'
p2205
asbasbasbag57
(g73
g59
NtRp2206
(dp2207
g62
(dp2208
sg71
g1231
sg64
(lp2209
g57
(g78
g59
NtRp2210
(dp2211
g62
(dp2212
g82
g83
ssg71
g2206
sg64
(lp2213
S'wsgi_run_once'
p2214
asbag57
(g78
g59
NtRp2215
(dp2216
g62
(dp2217
g89
g90
ssg71
g2206
sg64
(lp2218
S':'
asbag57
(g78
g59
NtRp2219
(dp2220
g62
(dp2221
sg71
g2206
sg64
(lp2222
g57
(g58
g59
NtRp2223
(dp2224
g62
(dp2225
g70
I4
ssg71
g2219
sg64
(lp2226
g100
asbasbasbag57
(g73
g59
NtRp2227
(dp2228
g62
(dp2229
sg71
g1231
sg64
(lp2230
g57
(g78
g59
NtRp2231
(dp2232
g62
(dp2233
g82
g83
ssg71
g2227
sg64
(lp2234
S'wsgi_url_scheme'
p2235
asbag57
(g78
g59
NtRp2236
(dp2237
g62
(dp2238
g89
g90
ssg71
g2227
sg64
(lp2239
S':'
asbag57
(g78
g59
NtRp2240
(dp2241
g62
(dp2242
sg71
g2227
sg64
(lp2243
g57
(g58
g59
NtRp2244
(dp2245
g62
(dp2246
g70
I4
ssg71
g2240
sg64
(lp2247
S'http'
p2248
asbasbasbag57
(g73
g59
NtRp2249
(dp2250
g62
(dp2251
sg71
g1231
sg64
(lp2252
g57
(g78
g59
NtRp2253
(dp2254
g62
(dp2255
g82
g83
ssg71
g2249
sg64
(lp2256
S'wsgi_version'
p2257
asbag57
(g78
g59
NtRp2258
(dp2259
g62
(dp2260
g89
g90
ssg71
g2249
sg64
(lp2261
S':'
asbag57
(g78
g59
NtRp2262
(dp2263
g62
(dp2264
sg71
g2249
sg64
(lp2265
g57
(g58
g59
NtRp2266
(dp2267
g62
(dp2268
g70
I4
ssg71
g2262
sg64
(lp2269
g57
(g66
g59
NtRp2270
(dp2271
g62
(dp2272
g70
I3
ssg71
Nsg64
(lp2273
g57
(g73
g59
NtRp2274
(dp2275
g62
(dp2276
sg71
g2270
sg64
(lp2277
g57
(g78
g59
NtRp2278
(dp2279
g62
(dp2280
sg71
g2274
sg64
(lp2281
g57
(g58
g59
NtRp2282
(dp2283
g62
(dp2284
g70
I3
ssg71
g2278
sg64
(lp2285
S'1'
asbasbasbag57
(g73
g59
NtRp2286
(dp2287
g62
(dp2288
sg71
g2270
sg64
(lp2289
g57
(g78
g59
NtRp2290
(dp2291
g62
(dp2292
sg71
g2286
sg64
(lp2293
g57
(g58
g59
NtRp2294
(dp2295
g62
(dp2296
g70
I3
ssg71
g2290
sg64
(lp2297
S'0'
asbasbasbasbasbasbasbasbasbasbasbag57
(g73
g59
NtRp2298
(dp2299
g62
(dp2300
sg71
g67
sg64
(lp2301
g57
(g78
g59
NtRp2302
(dp2303
g62
(dp2304
g82
g83
ssg71
g2298
sg64
(lp2305
S'extension'
p2306
asbag57
(g78
g59
NtRp2307
(dp2308
g62
(dp2309
g89
g90
ssg71
g2298
sg64
(lp2310
S':'
asbag57
(g78
g59
NtRp2311
(dp2312
g62
(dp2313
sg71
g2298
sg64
(lp2314
g57
(g58
g59
NtRp2315
(dp2316
g62
(dp2317
g70
I5
ssg71
g2311
sg64
(lp2318
S'html'
p2319
asbasbasbag57
(g73
g59
NtRp2320
(dp2321
g62
(dp2322
sg71
g67
sg64
(lp2323
g57
(g78
g59
NtRp2324
(dp2325
g62
(dp2326
g82
g83
ssg71
g2320
sg64
(lp2327
S'folder'
p2328
asbag57
(g78
g59
NtRp2329
(dp2330
g62
(dp2331
g89
g90
ssg71
g2320
sg64
(lp2332
S':'
asbag57
(g78
g59
NtRp2333
(dp2334
g62
(dp2335
sg71
g2320
sg64
(lp2336
g57
(g58
g59
NtRp2337
(dp2338
g62
(dp2339
g70
I5
ssg71
g2333
sg64
(lp2340
S'/home/shipra/Desktop/Semester 1.2/ITWS-2/web2py/applications/shipra/'
p2341
asbasbasbag57
(g73
g59
NtRp2342
(dp2343
g62
(dp2344
sg71
g67
sg64
(lp2345
g57
(g78
g59
NtRp2346
(dp2347
g62
(dp2348
g82
g83
ssg71
g2342
sg64
(lp2349
S'function'
p2350
asbag57
(g78
g59
NtRp2351
(dp2352
g62
(dp2353
g89
g90
ssg71
g2342
sg64
(lp2354
S':'
asbag57
(g78
g59
NtRp2355
(dp2356
g62
(dp2357
sg71
g2342
sg64
(lp2358
g57
(g58
g59
NtRp2359
(dp2360
g62
(dp2361
g70
I5
ssg71
g2355
sg64
(lp2362
S'resume_display'
p2363
asbasbasbag57
(g73
g59
NtRp2364
(dp2365
g62
(dp2366
sg71
g67
sg64
(lp2367
g57
(g78
g59
NtRp2368
(dp2369
g62
(dp2370
g82
g83
ssg71
g2364
sg64
(lp2371
S'get_vars'
p2372
asbag57
(g78
g59
NtRp2373
(dp2374
g62
(dp2375
g89
g90
ssg71
g2364
sg64
(lp2376
S':'
asbag57
(g78
g59
NtRp2377
(dp2378
g62
(dp2379
sg71
g2364
sg64
(lp2380
g57
(g58
g59
NtRp2381
(dp2382
g62
(dp2383
g70
I5
ssg71
g2377
sg64
(lp2384
g57
(g66
g59
NtRp2385
(dp2386
g62
(dp2387
g70
I4
ssg71
Nsg64
(lp2388
sbasbasbasbag57
(g73
g59
NtRp2389
(dp2390
g62
(dp2391
sg71
g67
sg64
(lp2392
g57
(g78
g59
NtRp2393
(dp2394
g62
(dp2395
g82
g83
ssg71
g2389
sg64
(lp2396
S'global_settings'
p2397
asbag57
(g78
g59
NtRp2398
(dp2399
g62
(dp2400
g89
g90
ssg71
g2389
sg64
(lp2401
S':'
asbag57
(g78
g59
NtRp2402
(dp2403
g62
(dp2404
sg71
g2389
sg64
(lp2405
g57
(g58
g59
NtRp2406
(dp2407
g62
(dp2408
g70
I5
ssg71
g2402
sg64
(lp2409
g57
(g66
g59
NtRp2410
(dp2411
g62
(dp2412
g70
I4
ssg71
Nsg64
(lp2413
g57
(g73
g59
NtRp2414
(dp2415
g62
(dp2416
sg71
g2410
sg64
(lp2417
g57
(g78
g59
NtRp2418
(dp2419
g62
(dp2420
g82
g83
ssg71
g2414
sg64
(lp2421
g1243
asbag57
(g78
g59
NtRp2422
(dp2423
g62
(dp2424
g89
g90
ssg71
g2414
sg64
(lp2425
S':'
asbag57
(g78
g59
NtRp2426
(dp2427
g62
(dp2428
sg71
g2414
sg64
(lp2429
g57
(g58
g59
NtRp2430
(dp2431
g62
(dp2432
g70
I4
ssg71
g2426
sg64
(lp2433
S"set(['/home/shipra/Desktop/Semester 1.2/ITWS-2/web2py/applications/shipra/', '/home/shipra/Desktop/Semester 1.2/ITWS-2/web2py/applications/welcome/', '/home/shipra/Desktop/Semester 1.2/ITWS-2/web2py/applications/resume/', '/home/shipra/Desktop/Semester 1.2/ITWS-2/web2py/applications/admin/'])"
p2434
asbasbasbag57
(g73
g59
NtRp2435
(dp2436
g62
(dp2437
sg71
g2410
sg64
(lp2438
g57
(g78
g59
NtRp2439
(dp2440
g62
(dp2441
g82
g83
ssg71
g2435
sg64
(lp2442
g1265
asbag57
(g78
g59
NtRp2443
(dp2444
g62
(dp2445
g89
g90
ssg71
g2435
sg64
(lp2446
S':'
asbag57
(g78
g59
NtRp2447
(dp2448
g62
(dp2449
sg71
g2435
sg64
(lp2450
g57
(g58
g59
NtRp2451
(dp2452
g62
(dp2453
g70
I4
ssg71
g2447
sg64
(lp2454
g1278
asbasbasbag57
(g73
g59
NtRp2455
(dp2456
g62
(dp2457
sg71
g2410
sg64
(lp2458
g57
(g78
g59
NtRp2459
(dp2460
g62
(dp2461
g82
g83
ssg71
g2455
sg64
(lp2462
g1287
asbag57
(g78
g59
NtRp2463
(dp2464
g62
(dp2465
g89
g90
ssg71
g2455
sg64
(lp2466
S':'
asbag57
(g78
g59
NtRp2467
(dp2468
g62
(dp2469
sg71
g2455
sg64
(lp2470
g57
(g58
g59
NtRp2471
(dp2472
g62
(dp2473
g70
I4
ssg71
g2467
sg64
(lp2474
g57
(g66
g59
NtRp2475
(dp2476
g62
(dp2477
g70
I3
ssg71
Nsg64
(lp2478
sbasbasbasbag57
(g73
g59
NtRp2479
(dp2480
g62
(dp2481
sg71
g2410
sg64
(lp2482
g57
(g78
g59
NtRp2483
(dp2484
g62
(dp2485
g82
g83
ssg71
g2479
sg64
(lp2486
g1312
asbag57
(g78
g59
NtRp2487
(dp2488
g62
(dp2489
g89
g90
ssg71
g2479
sg64
(lp2490
S':'
asbag57
(g78
g59
NtRp2491
(dp2492
g62
(dp2493
sg71
g2479
sg64
(lp2494
g57
(g58
g59
NtRp2495
(dp2496
g62
(dp2497
g70
I4
ssg71
g2491
sg64
(lp2498
S"<Values at 0x1c11248: {'verbose': False, 'ip': '127.0.0.1', 'with_scheduler': False, 'ips': ['10.42.0.1', '192.168.122.1', 'fe80::8a53:2eff:fe7d:9d6c%wlan0', 'fe80::e611:5bff:fe38:8d0d%p5p1', '10.1.97.43'], 'shutdown_timeout': 5, 'taskbar': False, 'port': 8000, 'maxthreads': None, 'softcron': False, 'server_name': 'shipra', 'bpython': False, 'nogui': False, 'pid_filename': 'httpserver.pid', 'extcron': False, 'runcron': False, 'run_system_tests': False, 'test': None, 'folder': '/home/shipra/Desktop/Semester 1.2/ITWS-2/web2py', 'config': '', 'minthreads': None, 'winservice': '', 'shell': None, 'run': '', 'log_filename': 'httpserver.log', 'debuglevel': 30, 'args': [''], 'socket_timeout': 5, 'ssl_ca_certificate': None, 'scheduler': None, 'profiler_filename': None, 'ssl_private_key': '', 'scheduler_groups': None, 'password': '<ask>', 'request_queue_size': 5, 'ssl_certificate': '', 'cronjob': False, 'numthreads': None, 'quiet': False, 'interfaces': None, 'import_models': False, 'timeout': 10, 'plain': False, 'nobanner': False}>"
p2499
asbasbasbag57
(g73
g59
NtRp2500
(dp2501
g62
(dp2502
sg71
g2410
sg64
(lp2503
g57
(g78
g59
NtRp2504
(dp2505
g62
(dp2506
g82
g83
ssg71
g2500
sg64
(lp2507
g1334
asbag57
(g78
g59
NtRp2508
(dp2509
g62
(dp2510
g89
g90
ssg71
g2500
sg64
(lp2511
S':'
asbag57
(g78
g59
NtRp2512
(dp2513
g62
(dp2514
sg71
g2500
sg64
(lp2515
g57
(g58
g59
NtRp2516
(dp2517
g62
(dp2518
g70
I4
ssg71
g2512
sg64
(lp2519
S'set([])'
p2520
asbasbasbag57
(g73
g59
NtRp2521
(dp2522
g62
(dp2523
sg71
g2410
sg64
(lp2524
g57
(g78
g59
NtRp2525
(dp2526
g62
(dp2527
g82
g83
ssg71
g2521
sg64
(lp2528
g1356
asbag57
(g78
g59
NtRp2529
(dp2530
g62
(dp2531
g89
g90
ssg71
g2521
sg64
(lp2532
S':'
asbag57
(g78
g59
NtRp2533
(dp2534
g62
(dp2535
sg71
g2521
sg64
(lp2536
g57
(g58
g59
NtRp2537
(dp2538
g62
(dp2539
g70
I4
ssg71
g2533
sg64
(lp2540
g100
asbasbasbag57
(g73
g59
NtRp2541
(dp2542
g62
(dp2543
sg71
g2410
sg64
(lp2544
g57
(g78
g59
NtRp2545
(dp2546
g62
(dp2547
g82
g83
ssg71
g2541
sg64
(lp2548
g1377
asbag57
(g78
g59
NtRp2549
(dp2550
g62
(dp2551
g89
g90
ssg71
g2541
sg64
(lp2552
S':'
asbag57
(g78
g59
NtRp2553
(dp2554
g62
(dp2555
sg71
g2541
sg64
(lp2556
g57
(g58
g59
NtRp2557
(dp2558
g62
(dp2559
g70
I4
ssg71
g2553
sg64
(lp2560
g1390
asbasbasbag57
(g73
g59
NtRp2561
(dp2562
g62
(dp2563
sg71
g2410
sg64
(lp2564
g57
(g78
g59
NtRp2565
(dp2566
g62
(dp2567
g82
g83
ssg71
g2561
sg64
(lp2568
g1575
asbag57
(g78
g59
NtRp2569
(dp2570
g62
(dp2571
g89
g90
ssg71
g2561
sg64
(lp2572
S':'
asbag57
(g78
g59
NtRp2573
(dp2574
g62
(dp2575
sg71
g2561
sg64
(lp2576
g57
(g58
g59
NtRp2577
(dp2578
g62
(dp2579
g70
I4
ssg71
g2573
sg64
(lp2580
g100
asbasbasbag57
(g73
g59
NtRp2581
(dp2582
g62
(dp2583
sg71
g2410
sg64
(lp2584
g57
(g78
g59
NtRp2585
(dp2586
g62
(dp2587
g82
g83
ssg71
g2581
sg64
(lp2588
g1596
asbag57
(g78
g59
NtRp2589
(dp2590
g62
(dp2591
g89
g90
ssg71
g2581
sg64
(lp2592
S':'
asbag57
(g78
g59
NtRp2593
(dp2594
g62
(dp2595
sg71
g2581
sg64
(lp2596
g57
(g58
g59
NtRp2597
(dp2598
g62
(dp2599
g70
I4
ssg71
g2593
sg64
(lp2600
g100
asbasbasbag57
(g73
g59
NtRp2601
(dp2602
g62
(dp2603
sg71
g2410
sg64
(lp2604
g57
(g78
g59
NtRp2605
(dp2606
g62
(dp2607
g82
g83
ssg71
g2601
sg64
(lp2608
g1617
asbag57
(g78
g59
NtRp2609
(dp2610
g62
(dp2611
g89
g90
ssg71
g2601
sg64
(lp2612
S':'
asbag57
(g78
g59
NtRp2613
(dp2614
g62
(dp2615
sg71
g2601
sg64
(lp2616
g57
(g58
g59
NtRp2617
(dp2618
g62
(dp2619
g70
I4
ssg71
g2613
sg64
(lp2620
g57
(g66
g59
NtRp2621
(dp2622
g62
(dp2623
g70
I3
ssg71
Nsg64
(lp2624
g57
(g73
g59
NtRp2625
(dp2626
g62
(dp2627
sg71
g2621
sg64
(lp2628
g57
(g78
g59
NtRp2629
(dp2630
g62
(dp2631
sg71
g2625
sg64
(lp2632
g57
(g58
g59
NtRp2633
(dp2634
g62
(dp2635
g70
I3
ssg71
g2629
sg64
(lp2636
g1646
asbasbasbag57
(g73
g59
NtRp2637
(dp2638
g62
(dp2639
sg71
g2621
sg64
(lp2640
g57
(g78
g59
NtRp2641
(dp2642
g62
(dp2643
sg71
g2637
sg64
(lp2644
g57
(g58
g59
NtRp2645
(dp2646
g62
(dp2647
g70
I3
ssg71
g2641
sg64
(lp2648
g1659
asbasbasbag57
(g73
g59
NtRp2649
(dp2650
g62
(dp2651
sg71
g2621
sg64
(lp2652
g57
(g78
g59
NtRp2653
(dp2654
g62
(dp2655
sg71
g2649
sg64
(lp2656
g57
(g58
g59
NtRp2657
(dp2658
g62
(dp2659
g70
I3
ssg71
g2653
sg64
(lp2660
g1672
asbasbasbag57
(g73
g59
NtRp2661
(dp2662
g62
(dp2663
sg71
g2621
sg64
(lp2664
g57
(g78
g59
NtRp2665
(dp2666
g62
(dp2667
sg71
g2661
sg64
(lp2668
g57
(g58
g59
NtRp2669
(dp2670
g62
(dp2671
g70
I3
ssg71
g2665
sg64
(lp2672
g1685
asbasbasbag57
(g73
g59
NtRp2673
(dp2674
g62
(dp2675
sg71
g2621
sg64
(lp2676
g57
(g78
g59
NtRp2677
(dp2678
g62
(dp2679
sg71
g2673
sg64
(lp2680
g57
(g58
g59
NtRp2681
(dp2682
g62
(dp2683
g70
I3
ssg71
g2677
sg64
(lp2684
g1698
asbasbasbag57
(g73
g59
NtRp2685
(dp2686
g62
(dp2687
sg71
g2621
sg64
(lp2688
g57
(g78
g59
NtRp2689
(dp2690
g62
(dp2691
sg71
g2685
sg64
(lp2692
g57
(g58
g59
NtRp2693
(dp2694
g62
(dp2695
g70
I3
ssg71
g2689
sg64
(lp2696
g1711
asbasbasbag57
(g73
g59
NtRp2697
(dp2698
g62
(dp2699
sg71
g2621
sg64
(lp2700
g57
(g78
g59
NtRp2701
(dp2702
g62
(dp2703
sg71
g2697
sg64
(lp2704
g57
(g58
g59
NtRp2705
(dp2706
g62
(dp2707
g70
I3
ssg71
g2701
sg64
(lp2708
g1724
asbasbasbag57
(g73
g59
NtRp2709
(dp2710
g62
(dp2711
sg71
g2621
sg64
(lp2712
g57
(g78
g59
NtRp2713
(dp2714
g62
(dp2715
sg71
g2709
sg64
(lp2716
g57
(g58
g59
NtRp2717
(dp2718
g62
(dp2719
g70
I3
ssg71
g2713
sg64
(lp2720
g1737
asbasbasbag57
(g73
g59
NtRp2721
(dp2722
g62
(dp2723
sg71
g2621
sg64
(lp2724
g57
(g78
g59
NtRp2725
(dp2726
g62
(dp2727
sg71
g2721
sg64
(lp2728
g57
(g58
g59
NtRp2729
(dp2730
g62
(dp2731
g70
I3
ssg71
g2725
sg64
(lp2732
g1750
asbasbasbasbasbasbasbag57
(g73
g59
NtRp2733
(dp2734
g62
(dp2735
sg71
g2410
sg64
(lp2736
g57
(g78
g59
NtRp2737
(dp2738
g62
(dp2739
g82
g83
ssg71
g2733
sg64
(lp2740
g2018
asbag57
(g78
g59
NtRp2741
(dp2742
g62
(dp2743
g89
g90
ssg71
g2733
sg64
(lp2744
S':'
asbag57
(g78
g59
NtRp2745
(dp2746
g62
(dp2747
sg71
g2733
sg64
(lp2748
g57
(g58
g59
NtRp2749
(dp2750
g62
(dp2751
g70
I4
ssg71
g2745
sg64
(lp2752
g57
(g66
g59
NtRp2753
(dp2754
g62
(dp2755
g70
I3
ssg71
Nsg64
(lp2756
g57
(g73
g59
NtRp2757
(dp2758
g62
(dp2759
sg71
g2753
sg64
(lp2760
g57
(g78
g59
NtRp2761
(dp2762
g62
(dp2763
sg71
g2757
sg64
(lp2764
g57
(g58
g59
NtRp2765
(dp2766
g62
(dp2767
g70
I3
ssg71
g2761
sg64
(lp2768
S'2'
asbasbasbag57
(g73
g59
NtRp2769
(dp2770
g62
(dp2771
sg71
g2753
sg64
(lp2772
g57
(g78
g59
NtRp2773
(dp2774
g62
(dp2775
sg71
g2769
sg64
(lp2776
g57
(g58
g59
NtRp2777
(dp2778
g62
(dp2779
g70
I3
ssg71
g2773
sg64
(lp2780
S'3'
asbasbasbag57
(g73
g59
NtRp2781
(dp2782
g62
(dp2783
sg71
g2753
sg64
(lp2784
g57
(g78
g59
NtRp2785
(dp2786
g62
(dp2787
sg71
g2781
sg64
(lp2788
g57
(g58
g59
NtRp2789
(dp2790
g62
(dp2791
g70
I3
ssg71
g2785
sg64
(lp2792
S'2'
asbasbasbag57
(g73
g59
NtRp2793
(dp2794
g62
(dp2795
sg71
g2753
sg64
(lp2796
g57
(g78
g59
NtRp2797
(dp2798
g62
(dp2799
sg71
g2793
sg64
(lp2800
g57
(g58
g59
NtRp2801
(dp2802
g62
(dp2803
g70
I3
ssg71
g2797
sg64
(lp2804
S'datetime.datetime(2012, 12, 17, 15, 3, 30)'
p2805
asbasbasbag57
(g73
g59
NtRp2806
(dp2807
g62
(dp2808
sg71
g2753
sg64
(lp2809
g57
(g78
g59
NtRp2810
(dp2811
g62
(dp2812
sg71
g2806
sg64
(lp2813
g57
(g58
g59
NtRp2814
(dp2815
g62
(dp2816
g70
I3
ssg71
g2810
sg64
(lp2817
g2096
asbasbasbasbasbasbasbasbasbasbasbag57
(g73
g59
NtRp2818
(dp2819
g62
(dp2820
sg71
g67
sg64
(lp2821
g57
(g78
g59
NtRp2822
(dp2823
g62
(dp2824
g82
g83
ssg71
g2818
sg64
(lp2825
S'is_https'
p2826
asbag57
(g78
g59
NtRp2827
(dp2828
g62
(dp2829
g89
g90
ssg71
g2818
sg64
(lp2830
S':'
asbag57
(g78
g59
NtRp2831
(dp2832
g62
(dp2833
sg71
g2818
sg64
(lp2834
g57
(g58
g59
NtRp2835
(dp2836
g62
(dp2837
g70
I5
ssg71
g2831
sg64
(lp2838
g100
asbasbasbag57
(g73
g59
NtRp2839
(dp2840
g62
(dp2841
sg71
g67
sg64
(lp2842
g57
(g78
g59
NtRp2843
(dp2844
g62
(dp2845
g82
g83
ssg71
g2839
sg64
(lp2846
S'is_local'
p2847
asbag57
(g78
g59
NtRp2848
(dp2849
g62
(dp2850
g89
g90
ssg71
g2839
sg64
(lp2851
S':'
asbag57
(g78
g59
NtRp2852
(dp2853
g62
(dp2854
sg71
g2839
sg64
(lp2855
g57
(g58
g59
NtRp2856
(dp2857
g62
(dp2858
g70
I5
ssg71
g2852
sg64
(lp2859
g2205
asbasbasbag57
(g73
g59
NtRp2860
(dp2861
g62
(dp2862
sg71
g67
sg64
(lp2863
g57
(g78
g59
NtRp2864
(dp2865
g62
(dp2866
g82
g83
ssg71
g2860
sg64
(lp2867
S'is_restful'
p2868
asbag57
(g78
g59
NtRp2869
(dp2870
g62
(dp2871
g89
g90
ssg71
g2860
sg64
(lp2872
S':'
asbag57
(g78
g59
NtRp2873
(dp2874
g62
(dp2875
sg71
g2860
sg64
(lp2876
g57
(g58
g59
NtRp2877
(dp2878
g62
(dp2879
g70
I5
ssg71
g2873
sg64
(lp2880
g100
asbasbasbag57
(g73
g59
NtRp2881
(dp2882
g62
(dp2883
sg71
g67
sg64
(lp2884
g57
(g78
g59
NtRp2885
(dp2886
g62
(dp2887
g82
g83
ssg71
g2881
sg64
(lp2888
S'now'
p2889
asbag57
(g78
g59
NtRp2890
(dp2891
g62
(dp2892
g89
g90
ssg71
g2881
sg64
(lp2893
S':'
asbag57
(g78
g59
NtRp2894
(dp2895
g62
(dp2896
sg71
g2881
sg64
(lp2897
g57
(g58
g59
NtRp2898
(dp2899
g62
(dp2900
g70
I5
ssg71
g2894
sg64
(lp2901
S'datetime.datetime(2013, 4, 14, 21, 36, 37, 722783)'
p2902
asbasbasbag57
(g73
g59
NtRp2903
(dp2904
g62
(dp2905
sg71
g67
sg64
(lp2906
g57
(g78
g59
NtRp2907
(dp2908
g62
(dp2909
g82
g83
ssg71
g2903
sg64
(lp2910
S'post_vars'
p2911
asbag57
(g78
g59
NtRp2912
(dp2913
g62
(dp2914
g89
g90
ssg71
g2903
sg64
(lp2915
S':'
asbag57
(g78
g59
NtRp2916
(dp2917
g62
(dp2918
sg71
g2903
sg64
(lp2919
g57
(g58
g59
NtRp2920
(dp2921
g62
(dp2922
g70
I5
ssg71
g2916
sg64
(lp2923
g57
(g66
g59
NtRp2924
(dp2925
g62
(dp2926
g70
I4
ssg71
Nsg64
(lp2927
sbasbasbasbag57
(g73
g59
NtRp2928
(dp2929
g62
(dp2930
sg71
g67
sg64
(lp2931
g57
(g78
g59
NtRp2932
(dp2933
g62
(dp2934
g82
g83
ssg71
g2928
sg64
(lp2935
S'raw_args'
p2936
asbag57
(g78
g59
NtRp2937
(dp2938
g62
(dp2939
g89
g90
ssg71
g2928
sg64
(lp2940
S':'
asbag57
(g78
g59
NtRp2941
(dp2942
g62
(dp2943
sg71
g2928
sg64
(lp2944
g57
(g58
g59
NtRp2945
(dp2946
g62
(dp2947
g70
I5
ssg71
g2941
sg64
(lp2948
S'4'
asbasbasbag57
(g73
g59
NtRp2949
(dp2950
g62
(dp2951
sg71
g67
sg64
(lp2952
g57
(g78
g59
NtRp2953
(dp2954
g62
(dp2955
g82
g83
ssg71
g2949
sg64
(lp2956
S'raw_extension'
p2957
asbag57
(g78
g59
NtRp2958
(dp2959
g62
(dp2960
g89
g90
ssg71
g2949
sg64
(lp2961
S':'
asbag57
(g78
g59
NtRp2962
(dp2963
g62
(dp2964
sg71
g2949
sg64
(lp2965
g57
(g58
g59
NtRp2966
(dp2967
g62
(dp2968
g70
I5
ssg71
g2962
sg64
(lp2969
S'None'
p2970
asbasbasbag57
(g73
g59
NtRp2971
(dp2972
g62
(dp2973
sg71
g67
sg64
(lp2974
g57
(g78
g59
NtRp2975
(dp2976
g62
(dp2977
g82
g83
ssg71
g2971
sg64
(lp2978
S'url'
p2979
asbag57
(g78
g59
NtRp2980
(dp2981
g62
(dp2982
g89
g90
ssg71
g2971
sg64
(lp2983
S':'
asbag57
(g78
g59
NtRp2984
(dp2985
g62
(dp2986
sg71
g2971
sg64
(lp2987
g57
(g58
g59
NtRp2988
(dp2989
g62
(dp2990
g70
I5
ssg71
g2984
sg64
(lp2991
g1772
asbasbasbag57
(g73
g59
NtRp2992
(dp2993
g62
(dp2994
sg71
g67
sg64
(lp2995
g57
(g78
g59
NtRp2996
(dp2997
g62
(dp2998
g82
g83
ssg71
g2992
sg64
(lp2999
S'utcnow'
p3000
asbag57
(g78
g59
NtRp3001
(dp3002
g62
(dp3003
g89
g90
ssg71
g2992
sg64
(lp3004
S':'
asbag57
(g78
g59
NtRp3005
(dp3006
g62
(dp3007
sg71
g2992
sg64
(lp3008
g57
(g58
g59
NtRp3009
(dp3010
g62
(dp3011
g70
I5
ssg71
g3005
sg64
(lp3012
S'datetime.datetime(2013, 4, 14, 16, 6, 37, 722865)'
p3013
asbasbasbag57
(g73
g59
NtRp3014
(dp3015
g62
(dp3016
sg71
g67
sg64
(lp3017
g57
(g78
g59
NtRp3018
(dp3019
g62
(dp3020
g82
g83
ssg71
g3014
sg64
(lp3021
S'uuid'
p3022
asbag57
(g78
g59
NtRp3023
(dp3024
g62
(dp3025
g89
g90
ssg71
g3014
sg64
(lp3026
S':'
asbag57
(g78
g59
NtRp3027
(dp3028
g62
(dp3029
sg71
g3014
sg64
(lp3030
g57
(g58
g59
NtRp3031
(dp3032
g62
(dp3033
g70
I5
ssg71
g3027
sg64
(lp3034
S'shipra/127.0.0.1.2013-04-14.21-36-37.cdcc6c69-d380-4349-8d25-2b0d80a61bd6'
p3035
asbasbasbag57
(g73
g59
NtRp3036
(dp3037
g62
(dp3038
sg71
g67
sg64
(lp3039
g57
(g78
g59
NtRp3040
(dp3041
g62
(dp3042
g82
g83
ssg71
g3036
sg64
(lp3043
S'vars'
p3044
asbag57
(g78
g59
NtRp3045
(dp3046
g62
(dp3047
g89
g90
ssg71
g3036
sg64
(lp3048
S':'
asbag57
(g78
g59
NtRp3049
(dp3050
g62
(dp3051
sg71
g3036
sg64
(lp3052
g57
(g58
g59
NtRp3053
(dp3054
g62
(dp3055
g70
I5
ssg71
g3049
sg64
(lp3056
g57
(g66
g59
NtRp3057
(dp3058
g62
(dp3059
g70
I4
ssg71
Nsg64
(lp3060
sbasbasbasbag57
(g73
g59
NtRp3061
(dp3062
g62
(dp3063
sg71
g67
sg64
(lp3064
g57
(g78
g59
NtRp3065
(dp3066
g62
(dp3067
g82
g83
ssg71
g3061
sg64
(lp3068
S'wsgi'
p3069
asbag57
(g78
g59
NtRp3070
(dp3071
g62
(dp3072
g89
g90
ssg71
g3061
sg64
(lp3073
S':'
asbag57
(g78
g59
NtRp3074
(dp3075
g62
(dp3076
sg71
g3061
sg64
(lp3077
g57
(g58
g59
NtRp3078
(dp3079
g62
(dp3080
g70
I5
ssg71
g3074
sg64
(lp3081
g57
(g66
g59
NtRp3082
(dp3083
g62
(dp3084
g70
I4
ssg71
Nsg64
(lp3085
g57
(g73
g59
NtRp3086
(dp3087
g62
(dp3088
sg71
g3082
sg64
(lp3089
g57
(g78
g59
NtRp3090
(dp3091
g62
(dp3092
g82
g83
ssg71
g3086
sg64
(lp3093
S'environ'
p3094
asbag57
(g78
g59
NtRp3095
(dp3096
g62
(dp3097
g89
g90
ssg71
g3086
sg64
(lp3098
S':'
asbag57
(g78
g59
NtRp3099
(dp3100
g62
(dp3101
sg71
g3086
sg64
(lp3102
g57
(g58
g59
NtRp3103
(dp3104
g62
(dp3105
g70
I4
ssg71
g3099
sg64
(lp3106
g57
(g66
g59
NtRp3107
(dp3108
g62
(dp3109
g70
I3
ssg71
Nsg64
(lp3110
g57
(g73
g59
NtRp3111
(dp3112
g62
(dp3113
sg71
g3107
sg64
(lp3114
g57
(g78
g59
NtRp3115
(dp3116
g62
(dp3117
g82
g83
ssg71
g3111
sg64
(lp3118
S'HTTP_ACCEPT'
p3119
asbag57
(g78
g59
NtRp3120
(dp3121
g62
(dp3122
g89
g90
ssg71
g3111
sg64
(lp3123
S':'
asbag57
(g78
g59
NtRp3124
(dp3125
g62
(dp3126
sg71
g3111
sg64
(lp3127
g57
(g58
g59
NtRp3128
(dp3129
g62
(dp3130
g70
I3
ssg71
g3124
sg64
(lp3131
g1412
asbasbasbag57
(g73
g59
NtRp3132
(dp3133
g62
(dp3134
sg71
g3107
sg64
(lp3135
g57
(g78
g59
NtRp3136
(dp3137
g62
(dp3138
g82
g83
ssg71
g3132
sg64
(lp3139
S'HTTP_ACCEPT_ENCODING'
p3140
asbag57
(g78
g59
NtRp3141
(dp3142
g62
(dp3143
g89
g90
ssg71
g3132
sg64
(lp3144
S':'
asbag57
(g78
g59
NtRp3145
(dp3146
g62
(dp3147
sg71
g3132
sg64
(lp3148
g57
(g58
g59
NtRp3149
(dp3150
g62
(dp3151
g70
I3
ssg71
g3145
sg64
(lp3152
g1434
asbasbasbag57
(g73
g59
NtRp3153
(dp3154
g62
(dp3155
sg71
g3107
sg64
(lp3156
g57
(g78
g59
NtRp3157
(dp3158
g62
(dp3159
g82
g83
ssg71
g3153
sg64
(lp3160
S'HTTP_ACCEPT_LANGUAGE'
p3161
asbag57
(g78
g59
NtRp3162
(dp3163
g62
(dp3164
g89
g90
ssg71
g3153
sg64
(lp3165
S':'
asbag57
(g78
g59
NtRp3166
(dp3167
g62
(dp3168
sg71
g3153
sg64
(lp3169
g57
(g58
g59
NtRp3170
(dp3171
g62
(dp3172
g70
I3
ssg71
g3166
sg64
(lp3173
g1456
asbasbasbag57
(g73
g59
NtRp3174
(dp3175
g62
(dp3176
sg71
g3107
sg64
(lp3177
g57
(g78
g59
NtRp3178
(dp3179
g62
(dp3180
g82
g83
ssg71
g3174
sg64
(lp3181
S'HTTP_CONNECTION'
p3182
asbag57
(g78
g59
NtRp3183
(dp3184
g62
(dp3185
g89
g90
ssg71
g3174
sg64
(lp3186
S':'
asbag57
(g78
g59
NtRp3187
(dp3188
g62
(dp3189
sg71
g3174
sg64
(lp3190
g57
(g58
g59
NtRp3191
(dp3192
g62
(dp3193
g70
I3
ssg71
g3187
sg64
(lp3194
g1478
asbasbasbag57
(g73
g59
NtRp3195
(dp3196
g62
(dp3197
sg71
g3107
sg64
(lp3198
g57
(g78
g59
NtRp3199
(dp3200
g62
(dp3201
g82
g83
ssg71
g3195
sg64
(lp3202
S'HTTP_COOKIE'
p3203
asbag57
(g78
g59
NtRp3204
(dp3205
g62
(dp3206
g89
g90
ssg71
g3195
sg64
(lp3207
S':'
asbag57
(g78
g59
NtRp3208
(dp3209
g62
(dp3210
sg71
g3195
sg64
(lp3211
g57
(g58
g59
NtRp3212
(dp3213
g62
(dp3214
g70
I3
ssg71
g3208
sg64
(lp3215
g1500
asbasbasbag57
(g73
g59
NtRp3216
(dp3217
g62
(dp3218
sg71
g3107
sg64
(lp3219
g57
(g78
g59
NtRp3220
(dp3221
g62
(dp3222
g82
g83
ssg71
g3216
sg64
(lp3223
S'HTTP_HOST'
p3224
asbag57
(g78
g59
NtRp3225
(dp3226
g62
(dp3227
g89
g90
ssg71
g3216
sg64
(lp3228
S':'
asbag57
(g78
g59
NtRp3229
(dp3230
g62
(dp3231
sg71
g3216
sg64
(lp3232
g57
(g58
g59
NtRp3233
(dp3234
g62
(dp3235
g70
I3
ssg71
g3229
sg64
(lp3236
g1522
asbasbasbag57
(g73
g59
NtRp3237
(dp3238
g62
(dp3239
sg71
g3107
sg64
(lp3240
g57
(g78
g59
NtRp3241
(dp3242
g62
(dp3243
g82
g83
ssg71
g3237
sg64
(lp3244
S'HTTP_REFERER'
p3245
asbag57
(g78
g59
NtRp3246
(dp3247
g62
(dp3248
g89
g90
ssg71
g3237
sg64
(lp3249
S':'
asbag57
(g78
g59
NtRp3250
(dp3251
g62
(dp3252
sg71
g3237
sg64
(lp3253
g57
(g58
g59
NtRp3254
(dp3255
g62
(dp3256
g70
I3
ssg71
g3250
sg64
(lp3257
g1544
asbasbasbag57
(g73
g59
NtRp3258
(dp3259
g62
(dp3260
sg71
g3107
sg64
(lp3261
g57
(g78
g59
NtRp3262
(dp3263
g62
(dp3264
g82
g83
ssg71
g3258
sg64
(lp3265
S'HTTP_USER_AGENT'
p3266
asbag57
(g78
g59
NtRp3267
(dp3268
g62
(dp3269
g89
g90
ssg71
g3258
sg64
(lp3270
S':'
asbag57
(g78
g59
NtRp3271
(dp3272
g62
(dp3273
sg71
g3258
sg64
(lp3274
g57
(g58
g59
NtRp3275
(dp3276
g62
(dp3277
g70
I3
ssg71
g3271
sg64
(lp3278
g1566
asbasbasbag57
(g73
g59
NtRp3279
(dp3280
g62
(dp3281
sg71
g3107
sg64
(lp3282
g57
(g78
g59
NtRp3283
(dp3284
g62
(dp3285
g82
g83
ssg71
g3279
sg64
(lp3286
S'PATH_INFO'
p3287
asbag57
(g78
g59
NtRp3288
(dp3289
g62
(dp3290
g89
g90
ssg71
g3279
sg64
(lp3291
S':'
asbag57
(g78
g59
NtRp3292
(dp3293
g62
(dp3294
sg71
g3279
sg64
(lp3295
g57
(g58
g59
NtRp3296
(dp3297
g62
(dp3298
g70
I3
ssg71
g3292
sg64
(lp3299
g1772
asbasbasbag57
(g73
g59
NtRp3300
(dp3301
g62
(dp3302
sg71
g3107
sg64
(lp3303
g57
(g78
g59
NtRp3304
(dp3305
g62
(dp3306
g82
g83
ssg71
g3300
sg64
(lp3307
S'QUERY_STRING'
p3308
asbag57
(g78
g59
NtRp3309
(dp3310
g62
(dp3311
g89
g90
ssg71
g3300
sg64
(lp3312
S':'
asbag57
(g78
g59
NtRp3313
(dp3314
g62
(dp3315
sg71
g3300
sg64
(lp3316
g57
(g58
g59
NtRp3317
(dp3318
g62
(dp3319
g70
I3
ssg71
g3313
sg64
(lp3320
S''
asbasbasbag57
(g73
g59
NtRp3321
(dp3322
g62
(dp3323
sg71
g3107
sg64
(lp3324
g57
(g78
g59
NtRp3325
(dp3326
g62
(dp3327
g82
g83
ssg71
g3321
sg64
(lp3328
S'REMOTE_ADDR'
p3329
asbag57
(g78
g59
NtRp3330
(dp3331
g62
(dp3332
g89
g90
ssg71
g3321
sg64
(lp3333
S':'
asbag57
(g78
g59
NtRp3334
(dp3335
g62
(dp3336
sg71
g3321
sg64
(lp3337
g57
(g58
g59
NtRp3338
(dp3339
g62
(dp3340
g70
I3
ssg71
g3334
sg64
(lp3341
g224
asbasbasbag57
(g73
g59
NtRp3342
(dp3343
g62
(dp3344
sg71
g3107
sg64
(lp3345
g57
(g78
g59
NtRp3346
(dp3347
g62
(dp3348
g82
g83
ssg71
g3342
sg64
(lp3349
S'REMOTE_PORT'
p3350
asbag57
(g78
g59
NtRp3351
(dp3352
g62
(dp3353
g89
g90
ssg71
g3342
sg64
(lp3354
S':'
asbag57
(g78
g59
NtRp3355
(dp3356
g62
(dp3357
sg71
g3342
sg64
(lp3358
g57
(g58
g59
NtRp3359
(dp3360
g62
(dp3361
g70
I3
ssg71
g3355
sg64
(lp3362
g1836
asbasbasbag57
(g73
g59
NtRp3363
(dp3364
g62
(dp3365
sg71
g3107
sg64
(lp3366
g57
(g78
g59
NtRp3367
(dp3368
g62
(dp3369
g82
g83
ssg71
g3363
sg64
(lp3370
S'REQUEST_METHOD'
p3371
asbag57
(g78
g59
NtRp3372
(dp3373
g62
(dp3374
g89
g90
ssg71
g3363
sg64
(lp3375
S':'
asbag57
(g78
g59
NtRp3376
(dp3377
g62
(dp3378
sg71
g3363
sg64
(lp3379
g57
(g58
g59
NtRp3380
(dp3381
g62
(dp3382
g70
I3
ssg71
g3376
sg64
(lp3383
g1858
asbasbasbag57
(g73
g59
NtRp3384
(dp3385
g62
(dp3386
sg71
g3107
sg64
(lp3387
g57
(g78
g59
NtRp3388
(dp3389
g62
(dp3390
g82
g83
ssg71
g3384
sg64
(lp3391
S'REQUEST_URI'
p3392
asbag57
(g78
g59
NtRp3393
(dp3394
g62
(dp3395
g89
g90
ssg71
g3384
sg64
(lp3396
S':'
asbag57
(g78
g59
NtRp3397
(dp3398
g62
(dp3399
sg71
g3384
sg64
(lp3400
g57
(g58
g59
NtRp3401
(dp3402
g62
(dp3403
g70
I3
ssg71
g3397
sg64
(lp3404
g1772
asbasbasbag57
(g73
g59
NtRp3405
(dp3406
g62
(dp3407
sg71
g3107
sg64
(lp3408
g57
(g78
g59
NtRp3409
(dp3410
g62
(dp3411
g82
g83
ssg71
g3405
sg64
(lp3412
S'SCRIPT_NAME'
p3413
asbag57
(g78
g59
NtRp3414
(dp3415
g62
(dp3416
g89
g90
ssg71
g3405
sg64
(lp3417
S':'
asbag57
(g78
g59
NtRp3418
(dp3419
g62
(dp3420
sg71
g3405
sg64
(lp3421
g57
(g58
g59
NtRp3422
(dp3423
g62
(dp3424
g70
I3
ssg71
g3418
sg64
(lp3425
S''
asbasbasbag57
(g73
g59
NtRp3426
(dp3427
g62
(dp3428
sg71
g3107
sg64
(lp3429
g57
(g78
g59
NtRp3430
(dp3431
g62
(dp3432
g82
g83
ssg71
g3426
sg64
(lp3433
S'SERVER_NAME'
p3434
asbag57
(g78
g59
NtRp3435
(dp3436
g62
(dp3437
g89
g90
ssg71
g3426
sg64
(lp3438
S':'
asbag57
(g78
g59
NtRp3439
(dp3440
g62
(dp3441
sg71
g3426
sg64
(lp3442
g57
(g58
g59
NtRp3443
(dp3444
g62
(dp3445
g70
I3
ssg71
g3439
sg64
(lp3446
g1922
asbasbasbag57
(g73
g59
NtRp3447
(dp3448
g62
(dp3449
sg71
g3107
sg64
(lp3450
g57
(g78
g59
NtRp3451
(dp3452
g62
(dp3453
g82
g83
ssg71
g3447
sg64
(lp3454
S'SERVER_PORT'
p3455
asbag57
(g78
g59
NtRp3456
(dp3457
g62
(dp3458
g89
g90
ssg71
g3447
sg64
(lp3459
S':'
asbag57
(g78
g59
NtRp3460
(dp3461
g62
(dp3462
sg71
g3447
sg64
(lp3463
g57
(g58
g59
NtRp3464
(dp3465
g62
(dp3466
g70
I3
ssg71
g3460
sg64
(lp3467
g1944
asbasbasbag57
(g73
g59
NtRp3468
(dp3469
g62
(dp3470
sg71
g3107
sg64
(lp3471
g57
(g78
g59
NtRp3472
(dp3473
g62
(dp3474
g82
g83
ssg71
g3468
sg64
(lp3475
S'SERVER_PROTOCOL'
p3476
asbag57
(g78
g59
NtRp3477
(dp3478
g62
(dp3479
g89
g90
ssg71
g3468
sg64
(lp3480
S':'
asbag57
(g78
g59
NtRp3481
(dp3482
g62
(dp3483
sg71
g3468
sg64
(lp3484
g57
(g58
g59
NtRp3485
(dp3486
g62
(dp3487
g70
I3
ssg71
g3481
sg64
(lp3488
g1966
asbasbasbag57
(g73
g59
NtRp3489
(dp3490
g62
(dp3491
sg71
g3107
sg64
(lp3492
g57
(g78
g59
NtRp3493
(dp3494
g62
(dp3495
g82
g83
ssg71
g3489
sg64
(lp3496
S'SERVER_SOFTWARE'
p3497
asbag57
(g78
g59
NtRp3498
(dp3499
g62
(dp3500
g89
g90
ssg71
g3489
sg64
(lp3501
S':'
asbag57
(g78
g59
NtRp3502
(dp3503
g62
(dp3504
sg71
g3489
sg64
(lp3505
g57
(g58
g59
NtRp3506
(dp3507
g62
(dp3508
g70
I3
ssg71
g3502
sg64
(lp3509
g1988
asbasbasbag57
(g73
g59
NtRp3510
(dp3511
g62
(dp3512
sg71
g3107
sg64
(lp3513
g57
(g78
g59
NtRp3514
(dp3515
g62
(dp3516
g82
g83
ssg71
g3510
sg64
(lp3517
S'wsgi.errors'
p3518
asbag57
(g78
g59
NtRp3519
(dp3520
g62
(dp3521
g89
g90
ssg71
g3510
sg64
(lp3522
S':'
asbag57
(g78
g59
NtRp3523
(dp3524
g62
(dp3525
sg71
g3510
sg64
(lp3526
g57
(g58
g59
NtRp3527
(dp3528
g62
(dp3529
g70
I3
ssg71
g3523
sg64
(lp3530
S"<open file '<stderr>', mode 'w' at 0x7f701b86f270>"
p3531
asbasbasbag57
(g73
g59
NtRp3532
(dp3533
g62
(dp3534
sg71
g3107
sg64
(lp3535
g57
(g78
g59
NtRp3536
(dp3537
g62
(dp3538
g82
g83
ssg71
g3532
sg64
(lp3539
S'wsgi.file_wrapper'
p3540
asbag57
(g78
g59
NtRp3541
(dp3542
g62
(dp3543
g89
g90
ssg71
g3532
sg64
(lp3544
S':'
asbag57
(g78
g59
NtRp3545
(dp3546
g62
(dp3547
sg71
g3532
sg64
(lp3548
g57
(g58
g59
NtRp3549
(dp3550
g62
(dp3551
g70
I3
ssg71
g3545
sg64
(lp3552
S'<class wsgiref.util.FileWrapper at 0x1b9adb8>'
p3553
asbasbasbag57
(g73
g59
NtRp3554
(dp3555
g62
(dp3556
sg71
g3107
sg64
(lp3557
g57
(g78
g59
NtRp3558
(dp3559
g62
(dp3560
g82
g83
ssg71
g3554
sg64
(lp3561
S'wsgi.input'
p3562
asbag57
(g78
g59
NtRp3563
(dp3564
g62
(dp3565
g89
g90
ssg71
g3554
sg64
(lp3566
S':'
asbag57
(g78
g59
NtRp3567
(dp3568
g62
(dp3569
sg71
g3554
sg64
(lp3570
g57
(g58
g59
NtRp3571
(dp3572
g62
(dp3573
g70
I3
ssg71
g3567
sg64
(lp3574
S'<cStringIO.StringO object at 0x7f6fe03c5a40>'
p3575
asbasbasbag57
(g73
g59
NtRp3576
(dp3577
g62
(dp3578
sg71
g3107
sg64
(lp3579
g57
(g78
g59
NtRp3580
(dp3581
g62
(dp3582
g82
g83
ssg71
g3576
sg64
(lp3583
S'wsgi.multiprocess'
p3584
asbag57
(g78
g59
NtRp3585
(dp3586
g62
(dp3587
g89
g90
ssg71
g3576
sg64
(lp3588
S':'
asbag57
(g78
g59
NtRp3589
(dp3590
g62
(dp3591
sg71
g3576
sg64
(lp3592
g57
(g58
g59
NtRp3593
(dp3594
g62
(dp3595
g70
I3
ssg71
g3589
sg64
(lp3596
g100
asbasbasbag57
(g73
g59
NtRp3597
(dp3598
g62
(dp3599
sg71
g3107
sg64
(lp3600
g57
(g78
g59
NtRp3601
(dp3602
g62
(dp3603
g82
g83
ssg71
g3597
sg64
(lp3604
S'wsgi.multithread'
p3605
asbag57
(g78
g59
NtRp3606
(dp3607
g62
(dp3608
g89
g90
ssg71
g3597
sg64
(lp3609
S':'
asbag57
(g78
g59
NtRp3610
(dp3611
g62
(dp3612
sg71
g3597
sg64
(lp3613
g57
(g58
g59
NtRp3614
(dp3615
g62
(dp3616
g70
I3
ssg71
g3610
sg64
(lp3617
g2205
asbasbasbag57
(g73
g59
NtRp3618
(dp3619
g62
(dp3620
sg71
g3107
sg64
(lp3621
g57
(g78
g59
NtRp3622
(dp3623
g62
(dp3624
g82
g83
ssg71
g3618
sg64
(lp3625
S'wsgi.run_once'
p3626
asbag57
(g78
g59
NtRp3627
(dp3628
g62
(dp3629
g89
g90
ssg71
g3618
sg64
(lp3630
S':'
asbag57
(g78
g59
NtRp3631
(dp3632
g62
(dp3633
sg71
g3618
sg64
(lp3634
g57
(g58
g59
NtRp3635
(dp3636
g62
(dp3637
g70
I3
ssg71
g3631
sg64
(lp3638
g100
asbasbasbag57
(g73
g59
NtRp3639
(dp3640
g62
(dp3641
sg71
g3107
sg64
(lp3642
g57
(g78
g59
NtRp3643
(dp3644
g62
(dp3645
g82
g83
ssg71
g3639
sg64
(lp3646
S'wsgi.url_scheme'
p3647
asbag57
(g78
g59
NtRp3648
(dp3649
g62
(dp3650
g89
g90
ssg71
g3639
sg64
(lp3651
S':'
asbag57
(g78
g59
NtRp3652
(dp3653
g62
(dp3654
sg71
g3639
sg64
(lp3655
g57
(g58
g59
NtRp3656
(dp3657
g62
(dp3658
g70
I3
ssg71
g3652
sg64
(lp3659
g2248
asbasbasbag57
(g73
g59
NtRp3660
(dp3661
g62
(dp3662
sg71
g3107
sg64
(lp3663
g57
(g78
g59
NtRp3664
(dp3665
g62
(dp3666
g82
g83
ssg71
g3660
sg64
(lp3667
S'wsgi.version'
p3668
asbag57
(g78
g59
NtRp3669
(dp3670
g62
(dp3671
g89
g90
ssg71
g3660
sg64
(lp3672
S':'
asbag57
(g78
g59
NtRp3673
(dp3674
g62
(dp3675
sg71
g3660
sg64
(lp3676
g57
(g58
g59
NtRp3677
(dp3678
g62
(dp3679
g70
I3
ssg71
g3673
sg64
(lp3680
S'1'
asbasbasbasbasbasbasbasbasbasbasbasbasbsS'frames'
p3681
(lp3682
(dp3683
S'file'
p3684
S'/home/shipra/Desktop/Semester 1.2/ITWS-2/web2py/gluon/restricted.py'
p3685
sS'dump'
p3686
(dp3687
S'environment'
p3688
S"{'A': <class 'gluon.html.A'>, 'Auth': <class 'gluon.tools.Auth'>, 'B': <class 'gluon.html.B'>, 'BEAUTIFY': <class 'gluon.html.BEAUTIFY'>, 'BODY': <class 'gluon.html.BODY'>, 'BR': <class 'gluon.html.BR'>, 'BUTTON': <class 'gluon.html.BUTTON'>, 'CAT': <class 'gluon.html.CAT'>, 'CENTER': <class 'gluon.html.CENTER'>, 'CLEANUP': <class 'gluon.validators.CLEANUP'>, ...}"
p3689
sS'ccode'
p3690
S'<code object <module> at 0x7f6ff0170330, file "/...hipra/views/default/resume_display.html", line 1>'
p3691
ssS'lnum'
p3692
I212
sS'lines'
p3693
(dp3694
I207
S'    try:'
p3695
sI208
S'        if isinstance(code, types.CodeType):'
p3696
sI209
S'            ccode = code'
p3697
sI210
S'        else:'
p3698
sI211
S'            ccode = compile2(code, layer)'
p3699
sI212
S'        exec ccode in environment'
p3700
sI213
S'    except HTTP:'
p3701
sI214
S'        raise'
p3702
sI215
S'    except RestrictedError:'
p3703
sI216
S'        # do not encapsulate (obfuscate) the original RestrictedError'
p3704
ssS'call'
p3705
S'(code=\'response.write(\\\' <script src="\\\', escape=False)\\nr...ter -->\\\\r\\\\n</body>\\\\r\\\\n</html>\\\\r\\\\n\\\', escape=False)\', environment={\'A\': <class \'gluon.html.A\'>, \'Auth\': <class \'gluon.tools.Auth\'>, \'B\': <class \'gluon.html.B\'>, \'BEAUTIFY\': <class \'gluon.html.BEAUTIFY\'>, \'BODY\': <class \'gluon.html.BODY\'>, \'BR\': <class \'gluon.html.BR\'>, \'BUTTON\': <class \'gluon.html.BUTTON\'>, \'CAT\': <class \'gluon.html.CAT\'>, \'CENTER\': <class \'gluon.html.CENTER\'>, \'CLEANUP\': <class \'gluon.validators.CLEANUP\'>, ...}, layer=\'/home/shipra/Desktop/Semester 1.2/ITWS-2/web2py/...ications/shipra/views/default/resume_display.html\')'
p3706
sS'func'
p3707
S'restricted'
p3708
sa(dp3709
g3684
S'/home/shipra/Desktop/Semester 1.2/ITWS-2/web2py/applications/shipra/views/default/resume_display.html'
p3710
sg3686
(dp3711
S'ol'
p3712
S'undefined'
p3713
ssg3692
I11
sg3693
(dp3714
I2
S"response.write(URL('static','glissade/style.css'))"
p3715
sI3
S'response.write(\'"></script>\\r\\n\\r\\n<html xmlns="http://www.w3.org/1999/xhtml">\\r\\n<head>\\r\\n<meta name="keywords" content="" />\\r\\n<meta name="description" content="" />\\r\\n<meta http-equiv="content-type" content="text/html; charset=utf-8" />\\r\\n<title>RESUME : Builder & Searcher </title>\\r\\n<link href="http://fonts.googleapis.com/css?family=Oxygen:400,700,300" rel="stylesheet" type="text/css" />\\r\\n<link href="\', escape=False)'
p3716
sI4
S"response.write(URL('static', 'glissade/style.css'))"
p3717
sI5
S'response.write(\'" rel="stylesheet" type="text/css" media="screen" />\\r\\n</head>\\r\\n<body>\\r\\n\\t<style>\\r\\n\\t.right\\r\\n\\t{\\r\\n\\tfloat:right;\\r\\n\\twidth:300px;\\r\\n\\t}\\r\\n\\t</style>\\r\\n\\t\\r\\n<div id="wrapper">\\r\\n\\t<div id="logo" class="container">\\r\\n\\t\\r\\n\\t\\t<h1 style="color:#F87217">resume</h1>\\r\\n\\t\\t<p>Searcher and Builder</p>\\r\\n\\t</div>\\r\\n\\r\\n\\t<div class="right">\\r\\n\\t\\r\\n\\t\\t\', escape=False)'
p3718
sI6
S'response.write(auth.navbar())'
p3719
sI7
S'response.write(\'\\r\\n\\t</div>\\r\\n\\t\\r\\n\\t<br/>\\r\\n\\t\\r\\n\\t<div id="menu-wrapper">\\r\\n\\t\\t<div id="menu" class="container">\\r\\n\\t\\t\\t<ul>\\r\\n\\t\\t\\t\\t<li><a href=http://127.0.0.1:8000/shipra/default/index>Homepage</a>  </li>\\r\\n\\t\\t\\t\\t<li><a href="#">view resume</a></li>\\r\\n\\t\\t\\t\\t<li><a href="http://127.0.0.1:8000/shipra/default/create">Update resume</a></li>\\r\\n\\t\\t\\t\\t<li><a href="#">Download Resume</a></li>\\r\\n\\t\\t\\t\\t<li><a href="#">search</a></li>\\r\\n\\t\\t\\t\\t<li><a href="#">Contact Us</a></li>\\r\\n\\t\\t\\t</ul>\\r\\n\\t\\t</div>\\r\\n\\t</div>\\r\\n\\r\\n\\t\', escape=False)'
p3720
sI8
S"response.write('\\n', escape=False)"
p3721
sI9
S'response.write(c)'
p3722
sI10
S"response.write('\\n<p><h3>PERSONAL</h3></p><br/>\\n<ol>\\n\\t<li> First Name : ', escape=False)"
p3723
sI11
S"response.write(cont[0]['first_name'])"
p3724
sI12
S"response.write('</li><br/>\\n\\t<li> Last Name : ', escape=False)"
p3725
sI13
S"response.write(cont[0]['last_name'])"
p3726
sI14
S"response.write('</li><br/>\\n\\t<li> Email: ', escape=False)"
p3727
sI15
S"response.write(cont[0]['email'])"
p3728
sI16
S"response.write('</li><br/>\\n\\t<li> Age    : ', escape=False)"
p3729
sI17
S"response.write(pers[0]['Age'])"
p3730
sI18
S"response.write('</li><br/>\\n\\t<li> Gender : ', escape=False)"
p3731
sI19
S"response.write(pers[0]['Gender'])"
p3732
sI20
S"response.write('</li><br/>\\n\\t<li>Contact : ', escape=False)"
p3733
sI21
S"response.write(pers[0]['Contact'])"
p3734
ssg3705
S'()'
p3735
sg3707
S'<module>'
p3736
sa(dp3737
g3684
S'/home/shipra/Desktop/Semester 1.2/ITWS-2/web2py/gluon/dal.py'
p3738
sg3686
(dp3739
S'i'
S'0'
sS'self'
p3740
S'<Rows (0)>'
p3741
sS'self.records'
p3742
S'[]'
p3743
sS'row'
p3744
g3713
ssg3692
I9170
sg3693
(dp3745
I9165
S''
sI9166
S'    def __getslice__(self, a, b):'
p3746
sI9167
S'        return Rows(self.db,self.records[a:b],self.colnames)'
p3747
sI9168
S''
sI9169
S'    def __getitem__(self, i):'
p3748
sI9170
S'        row = self.records[i]'
p3749
sI9171
S'        keys = row.keys()'
p3750
sI9172
S"        if self.compact and len(keys) == 1 and keys[0] != '_extra':"
p3751
sI9173
S'            return row[row.keys()[0]]'
p3752
sI9174
S'        return row'
p3753
ssg3705
S'(self=<Rows (0)>, i=0)'
p3754
sg3707
g20
sasS'pyver'
p3755
S'Python 2.7.3: /usr/bin/python'
p3756
sS'session'
p3757
g57
(g58
g59
NtRp3758
(dp3759
g62
(dp3760
sg64
(lp3761
g57
(g66
g59
NtRp3762
(dp3763
g62
(dp3764
g70
I5
ssg71
Nsg64
(lp3765
g57
(g73
g59
NtRp3766
(dp3767
g62
(dp3768
sg71
g3762
sg64
(lp3769
g57
(g78
g59
NtRp3770
(dp3771
g62
(dp3772
g82
g83
ssg71
g3766
sg64
(lp3773
S'flash'
p3774
asbag57
(g78
g59
NtRp3775
(dp3776
g62
(dp3777
g89
g90
ssg71
g3766
sg64
(lp3778
S':'
asbag57
(g78
g59
NtRp3779
(dp3780
g62
(dp3781
sg71
g3766
sg64
(lp3782
g57
(g58
g59
NtRp3783
(dp3784
g62
(dp3785
g70
I5
ssg71
g3779
sg64
(lp3786
S''
asbasbasbasbasbsS'etype'
p3787
S"<type 'exceptions.IndexError'>"
p3788
sS'date'
p3789
S'Sun Apr 14 21:36:37 2013'
p3790
sS'response'
p3791
g57
(g58
g59
NtRp3792
(dp3793
g62
(dp3794
sg64
(lp3795
g57
(g66
g59
NtRp3796
(dp3797
g62
(dp3798
g70
I5
ssg71
Nsg64
(lp3799
g57
(g73
g59
NtRp3800
(dp3801
g62
(dp3802
sg71
g3796
sg64
(lp3803
g57
(g78
g59
NtRp3804
(dp3805
g62
(dp3806
g82
g83
ssg71
g3800
sg64
(lp3807
g167
asbag57
(g78
g59
NtRp3808
(dp3809
g62
(dp3810
g89
g90
ssg71
g3800
sg64
(lp3811
S':'
asbag57
(g78
g59
NtRp3812
(dp3813
g62
(dp3814
sg71
g3800
sg64
(lp3815
g57
(g58
g59
NtRp3816
(dp3817
g62
(dp3818
g70
I5
ssg71
g3812
sg64
(lp3819
S'<cStringIO.StringO object at 0x7f6fdc0cf9d0>'
p3820
asbasbasbag57
(g73
g59
NtRp3821
(dp3822
g62
(dp3823
sg71
g3796
sg64
(lp3824
g57
(g78
g59
NtRp3825
(dp3826
g62
(dp3827
g82
g83
ssg71
g3821
sg64
(lp3828
g255
asbag57
(g78
g59
NtRp3829
(dp3830
g62
(dp3831
g89
g90
ssg71
g3821
sg64
(lp3832
S':'
asbag57
(g78
g59
NtRp3833
(dp3834
g62
(dp3835
sg71
g3821
sg64
(lp3836
g57
(g58
g59
NtRp3837
(dp3838
g62
(dp3839
g70
I5
ssg71
g3833
sg64
(lp3840
g57
(g66
g59
NtRp3841
(dp3842
g62
(dp3843
g70
I4
ssg71
Nsg64
(lp3844
g57
(g73
g59
NtRp3845
(dp3846
g62
(dp3847
sg71
g3841
sg64
(lp3848
g57
(g78
g59
NtRp3849
(dp3850
g62
(dp3851
g82
g83
ssg71
g3845
sg64
(lp3852
S'session_id_shipra'
p3853
asbag57
(g78
g59
NtRp3854
(dp3855
g62
(dp3856
g89
g90
ssg71
g3845
sg64
(lp3857
S':'
asbag57
(g78
g59
NtRp3858
(dp3859
g62
(dp3860
sg71
g3845
sg64
(lp3861
g57
(g58
g59
NtRp3862
(dp3863
g62
(dp3864
g70
I4
ssg71
g3858
sg64
(lp3865
g859
ag57
(g66
g59
NtRp3866
(dp3867
g62
(dp3868
g70
I3
ssg71
Nsg64
(lp3869
g57
(g73
g59
NtRp3870
(dp3871
g62
(dp3872
sg71
g3866
sg64
(lp3873
g57
(g78
g59
NtRp3874
(dp3875
g62
(dp3876
g82
g83
ssg71
g3870
sg64
(lp3877
g306
asbag57
(g78
g59
NtRp3878
(dp3879
g62
(dp3880
g89
g90
ssg71
g3870
sg64
(lp3881
S':'
asbag57
(g78
g59
NtRp3882
(dp3883
g62
(dp3884
sg71
g3870
sg64
(lp3885
g57
(g58
g59
NtRp3886
(dp3887
g62
(dp3888
g70
I3
ssg71
g3882
sg64
(lp3889
S''
asbasbasbag57
(g73
g59
NtRp3890
(dp3891
g62
(dp3892
sg71
g3866
sg64
(lp3893
g57
(g78
g59
NtRp3894
(dp3895
g62
(dp3896
g82
g83
ssg71
g3890
sg64
(lp3897
g327
asbag57
(g78
g59
NtRp3898
(dp3899
g62
(dp3900
g89
g90
ssg71
g3890
sg64
(lp3901
S':'
asbag57
(g78
g59
NtRp3902
(dp3903
g62
(dp3904
sg71
g3890
sg64
(lp3905
g57
(g58
g59
NtRp3906
(dp3907
g62
(dp3908
g70
I3
ssg71
g3902
sg64
(lp3909
S''
asbasbasbag57
(g73
g59
NtRp3910
(dp3911
g62
(dp3912
sg71
g3866
sg64
(lp3913
g57
(g78
g59
NtRp3914
(dp3915
g62
(dp3916
g82
g83
ssg71
g3910
sg64
(lp3917
g348
asbag57
(g78
g59
NtRp3918
(dp3919
g62
(dp3920
g89
g90
ssg71
g3910
sg64
(lp3921
S':'
asbag57
(g78
g59
NtRp3922
(dp3923
g62
(dp3924
sg71
g3910
sg64
(lp3925
g57
(g58
g59
NtRp3926
(dp3927
g62
(dp3928
g70
I3
ssg71
g3922
sg64
(lp3929
S''
asbasbasbag57
(g73
g59
NtRp3930
(dp3931
g62
(dp3932
sg71
g3866
sg64
(lp3933
g57
(g78
g59
NtRp3934
(dp3935
g62
(dp3936
g82
g83
ssg71
g3930
sg64
(lp3937
g369
asbag57
(g78
g59
NtRp3938
(dp3939
g62
(dp3940
g89
g90
ssg71
g3930
sg64
(lp3941
S':'
asbag57
(g78
g59
NtRp3942
(dp3943
g62
(dp3944
sg71
g3930
sg64
(lp3945
g57
(g58
g59
NtRp3946
(dp3947
g62
(dp3948
g70
I3
ssg71
g3942
sg64
(lp3949
S''
asbasbasbag57
(g73
g59
NtRp3950
(dp3951
g62
(dp3952
sg71
g3866
sg64
(lp3953
g57
(g78
g59
NtRp3954
(dp3955
g62
(dp3956
g82
g83
ssg71
g3950
sg64
(lp3957
g390
asbag57
(g78
g59
NtRp3958
(dp3959
g62
(dp3960
g89
g90
ssg71
g3950
sg64
(lp3961
S':'
asbag57
(g78
g59
NtRp3962
(dp3963
g62
(dp3964
sg71
g3950
sg64
(lp3965
g57
(g58
g59
NtRp3966
(dp3967
g62
(dp3968
g70
I3
ssg71
g3962
sg64
(lp3969
S''
asbasbasbag57
(g73
g59
NtRp3970
(dp3971
g62
(dp3972
sg71
g3866
sg64
(lp3973
g57
(g78
g59
NtRp3974
(dp3975
g62
(dp3976
g82
g83
ssg71
g3970
sg64
(lp3977
g411
asbag57
(g78
g59
NtRp3978
(dp3979
g62
(dp3980
g89
g90
ssg71
g3970
sg64
(lp3981
S':'
asbag57
(g78
g59
NtRp3982
(dp3983
g62
(dp3984
sg71
g3970
sg64
(lp3985
g57
(g58
g59
NtRp3986
(dp3987
g62
(dp3988
g70
I3
ssg71
g3982
sg64
(lp3989
S'/'
asbasbasbag57
(g73
g59
NtRp3990
(dp3991
g62
(dp3992
sg71
g3866
sg64
(lp3993
g57
(g78
g59
NtRp3994
(dp3995
g62
(dp3996
g82
g83
ssg71
g3990
sg64
(lp3997
g432
asbag57
(g78
g59
NtRp3998
(dp3999
g62
(dp4000
g89
g90
ssg71
g3990
sg64
(lp4001
S':'
asbag57
(g78
g59
NtRp4002
(dp4003
g62
(dp4004
sg71
g3990
sg64
(lp4005
g57
(g58
g59
NtRp4006
(dp4007
g62
(dp4008
g70
I3
ssg71
g4002
sg64
(lp4009
S''
asbasbasbag57
(g73
g59
NtRp4010
(dp4011
g62
(dp4012
sg71
g3866
sg64
(lp4013
g57
(g78
g59
NtRp4014
(dp4015
g62
(dp4016
g82
g83
ssg71
g4010
sg64
(lp4017
g453
asbag57
(g78
g59
NtRp4018
(dp4019
g62
(dp4020
g89
g90
ssg71
g4010
sg64
(lp4021
S':'
asbag57
(g78
g59
NtRp4022
(dp4023
g62
(dp4024
sg71
g4010
sg64
(lp4025
g57
(g58
g59
NtRp4026
(dp4027
g62
(dp4028
g70
I3
ssg71
g4022
sg64
(lp4029
S''
asbasbasbasbasbasbasbasbasbasbasbag57
(g73
g59
NtRp4030
(dp4031
g62
(dp4032
sg71
g3796
sg64
(lp4033
g57
(g78
g59
NtRp4034
(dp4035
g62
(dp4036
g82
g83
ssg71
g4030
sg64
(lp4037
S'delimiters'
p4038
asbag57
(g78
g59
NtRp4039
(dp4040
g62
(dp4041
g89
g90
ssg71
g4030
sg64
(lp4042
S':'
asbag57
(g78
g59
NtRp4043
(dp4044
g62
(dp4045
sg71
g4030
sg64
(lp4046
g57
(g58
g59
NtRp4047
(dp4048
g62
(dp4049
g70
I5
ssg71
g4043
sg64
(lp4050
g57
(g66
g59
NtRp4051
(dp4052
g62
(dp4053
g70
I4
ssg71
Nsg64
(lp4054
g57
(g73
g59
NtRp4055
(dp4056
g62
(dp4057
sg71
g4051
sg64
(lp4058
g57
(g78
g59
NtRp4059
(dp4060
g62
(dp4061
sg71
g4055
sg64
(lp4062
g57
(g58
g59
NtRp4063
(dp4064
g62
(dp4065
g70
I4
ssg71
g4059
sg64
(lp4066
S'{{'
p4067
asbasbasbag57
(g73
g59
NtRp4068
(dp4069
g62
(dp4070
sg71
g4051
sg64
(lp4071
g57
(g78
g59
NtRp4072
(dp4073
g62
(dp4074
sg71
g4068
sg64
(lp4075
g57
(g58
g59
NtRp4076
(dp4077
g62
(dp4078
g70
I4
ssg71
g4072
sg64
(lp4079
S'}}'
p4080
asbasbasbasbasbasbasbag57
(g73
g59
NtRp4081
(dp4082
g62
(dp4083
sg71
g3796
sg64
(lp4084
g57
(g78
g59
NtRp4085
(dp4086
g62
(dp4087
g82
g83
ssg71
g4081
sg64
(lp4088
S'files'
p4089
asbag57
(g78
g59
NtRp4090
(dp4091
g62
(dp4092
g89
g90
ssg71
g4081
sg64
(lp4093
S':'
asbag57
(g78
g59
NtRp4094
(dp4095
g62
(dp4096
sg71
g4081
sg64
(lp4097
g57
(g58
g59
NtRp4098
(dp4099
g62
(dp4100
g70
I5
ssg71
g4094
sg64
(lp4101
g57
(g66
g59
NtRp4102
(dp4103
g62
(dp4104
g70
I4
ssg71
Nsg64
(lp4105
sbasbasbasbag57
(g73
g59
NtRp4106
(dp4107
g62
(dp4108
sg71
g3796
sg64
(lp4109
g57
(g78
g59
NtRp4110
(dp4111
g62
(dp4112
g82
g83
ssg71
g4106
sg64
(lp4113
S'flash'
p4114
asbag57
(g78
g59
NtRp4115
(dp4116
g62
(dp4117
g89
g90
ssg71
g4106
sg64
(lp4118
S':'
asbag57
(g78
g59
NtRp4119
(dp4120
g62
(dp4121
sg71
g4106
sg64
(lp4122
g57
(g58
g59
NtRp4123
(dp4124
g62
(dp4125
g70
I5
ssg71
g4119
sg64
(lp4126
S''
asbasbasbag57
(g73
g59
NtRp4127
(dp4128
g62
(dp4129
sg71
g3796
sg64
(lp4130
g57
(g78
g59
NtRp4131
(dp4132
g62
(dp4133
g82
g83
ssg71
g4127
sg64
(lp4134
S'generic_patterns'
p4135
asbag57
(g78
g59
NtRp4136
(dp4137
g62
(dp4138
g89
g90
ssg71
g4127
sg64
(lp4139
S':'
asbag57
(g78
g59
NtRp4140
(dp4141
g62
(dp4142
sg71
g4127
sg64
(lp4143
g57
(g58
g59
NtRp4144
(dp4145
g62
(dp4146
g70
I5
ssg71
g4140
sg64
(lp4147
g57
(g66
g59
NtRp4148
(dp4149
g62
(dp4150
g70
I4
ssg71
Nsg64
(lp4151
g57
(g73
g59
NtRp4152
(dp4153
g62
(dp4154
sg71
g4148
sg64
(lp4155
g57
(g78
g59
NtRp4156
(dp4157
g62
(dp4158
sg71
g4152
sg64
(lp4159
g57
(g58
g59
NtRp4160
(dp4161
g62
(dp4162
g70
I4
ssg71
g4156
sg64
(lp4163
S'*'
asbasbasbasbasbasbasbag57
(g73
g59
NtRp4164
(dp4165
g62
(dp4166
sg71
g3796
sg64
(lp4167
g57
(g78
g59
NtRp4168
(dp4169
g62
(dp4170
g82
g83
ssg71
g4164
sg64
(lp4171
S'google_analytics_id'
p4172
asbag57
(g78
g59
NtRp4173
(dp4174
g62
(dp4175
g89
g90
ssg71
g4164
sg64
(lp4176
S':'
asbag57
(g78
g59
NtRp4177
(dp4178
g62
(dp4179
sg71
g4164
sg64
(lp4180
g57
(g58
g59
NtRp4181
(dp4182
g62
(dp4183
g70
I5
ssg71
g4177
sg64
(lp4184
S'None'
p4185
asbasbasbag57
(g73
g59
NtRp4186
(dp4187
g62
(dp4188
sg71
g3796
sg64
(lp4189
g57
(g78
g59
NtRp4190
(dp4191
g62
(dp4192
g82
g83
ssg71
g4186
sg64
(lp4193
S'headers'
p4194
asbag57
(g78
g59
NtRp4195
(dp4196
g62
(dp4197
g89
g90
ssg71
g4186
sg64
(lp4198
S':'
asbag57
(g78
g59
NtRp4199
(dp4200
g62
(dp4201
sg71
g4186
sg64
(lp4202
g57
(g58
g59
NtRp4203
(dp4204
g62
(dp4205
g70
I5
ssg71
g4199
sg64
(lp4206
g57
(g66
g59
NtRp4207
(dp4208
g62
(dp4209
g70
I4
ssg71
Nsg64
(lp4210
g57
(g73
g59
NtRp4211
(dp4212
g62
(dp4213
sg71
g4207
sg64
(lp4214
g57
(g78
g59
NtRp4215
(dp4216
g62
(dp4217
g82
g83
ssg71
g4211
sg64
(lp4218
S'X-Powered-By'
p4219
asbag57
(g78
g59
NtRp4220
(dp4221
g62
(dp4222
g89
g90
ssg71
g4211
sg64
(lp4223
S':'
asbag57
(g78
g59
NtRp4224
(dp4225
g62
(dp4226
sg71
g4211
sg64
(lp4227
g57
(g58
g59
NtRp4228
(dp4229
g62
(dp4230
g70
I4
ssg71
g4224
sg64
(lp4231
S'web2py'
p4232
asbasbasbasbasbasbasbag57
(g73
g59
NtRp4233
(dp4234
g62
(dp4235
sg71
g3796
sg64
(lp4236
g57
(g78
g59
NtRp4237
(dp4238
g62
(dp4239
g82
g83
ssg71
g4233
sg64
(lp4240
S'logo'
p4241
asbag57
(g78
g59
NtRp4242
(dp4243
g62
(dp4244
g89
g90
ssg71
g4233
sg64
(lp4245
S':'
asbag57
(g78
g59
NtRp4246
(dp4247
g62
(dp4248
sg71
g4233
sg64
(lp4249
g57
(g58
g59
NtRp4250
(dp4251
g62
(dp4252
g70
I5
ssg71
g4246
sg64
(lp4253
g57
(cgluon.html
A
p4254
g59
NtRp4255
(dp4256
g62
(dp4257
S'_class'
p4258
S'brand'
p4259
sS'_href'
p4260
S'http://www.web2py.com/'
p4261
ssg71
Nsg64
(lp4262
g57
(cgluon.html
B
p4263
g59
NtRp4264
(dp4265
g62
(dp4266
sg71
g4255
sg64
(lp4267
S'web'
p4268
ag57
(cgluon.html
SPAN
p4269
g59
NtRp4270
(dp4271
g62
(dp4272
sg71
g4264
sg64
(lp4273
I2
asbaS'py'
p4274
asbacgluon.html
XML_unpickle
p4275
(S's\r\x00\x00\x00&trade;&nbsp;'
tRp4276
asbasbasbasbag57
(g73
g59
NtRp4277
(dp4278
g62
(dp4279
sg71
g3796
sg64
(lp4280
g57
(g78
g59
NtRp4281
(dp4282
g62
(dp4283
g82
g83
ssg71
g4277
sg64
(lp4284
S'menu'
p4285
asbag57
(g78
g59
NtRp4286
(dp4287
g62
(dp4288
g89
g90
ssg71
g4277
sg64
(lp4289
S':'
asbag57
(g78
g59
NtRp4290
(dp4291
g62
(dp4292
sg71
g4277
sg64
(lp4293
g57
(g58
g59
NtRp4294
(dp4295
g62
(dp4296
g70
I5
ssg71
g4290
sg64
(lp4297
g57
(g66
g59
NtRp4298
(dp4299
g62
(dp4300
g70
I4
ssg71
Nsg64
(lp4301
g57
(g73
g59
NtRp4302
(dp4303
g62
(dp4304
sg71
g4298
sg64
(lp4305
g57
(g78
g59
NtRp4306
(dp4307
g62
(dp4308
sg71
g4302
sg64
(lp4309
g57
(g58
g59
NtRp4310
(dp4311
g62
(dp4312
g70
I4
ssg71
g4306
sg64
(lp4313
g57
(g66
g59
NtRp4314
(dp4315
g62
(dp4316
g70
I3
ssg71
Nsg64
(lp4317
g57
(g73
g59
NtRp4318
(dp4319
g62
(dp4320
sg71
g4314
sg64
(lp4321
g57
(g78
g59
NtRp4322
(dp4323
g62
(dp4324
sg71
g4318
sg64
(lp4325
g57
(g58
g59
NtRp4326
(dp4327
g62
(dp4328
g70
I3
ssg71
g4322
sg64
(lp4329
cgluon.languages
lazyT_unpickle
p4330
(S's\x04\x00\x00\x00Home'
tRp4331
asbasbasbag57
(g73
g59
NtRp4332
(dp4333
g62
(dp4334
sg71
g4314
sg64
(lp4335
g57
(g78
g59
NtRp4336
(dp4337
g62
(dp4338
sg71
g4332
sg64
(lp4339
g57
(g58
g59
NtRp4340
(dp4341
g62
(dp4342
g70
I3
ssg71
g4336
sg64
(lp4343
g100
asbasbasbag57
(g73
g59
NtRp4344
(dp4345
g62
(dp4346
sg71
g4314
sg64
(lp4347
g57
(g78
g59
NtRp4348
(dp4349
g62
(dp4350
sg71
g4344
sg64
(lp4351
g57
(g58
g59
NtRp4352
(dp4353
g62
(dp4354
g70
I3
ssg71
g4348
sg64
(lp4355
S'/shipra/default/index'
p4356
asbasbasbag57
(g73
g59
NtRp4357
(dp4358
g62
(dp4359
sg71
g4314
sg64
(lp4360
g57
(g78
g59
NtRp4361
(dp4362
g62
(dp4363
sg71
g4357
sg64
(lp4364
g57
(g58
g59
NtRp4365
(dp4366
g62
(dp4367
g70
I3
ssg71
g4361
sg64
(lp4368
g57
(g66
g59
NtRp4369
(dp4370
g62
(dp4371
g70
I2
ssg71
Nsg64
(lp4372
sbasbasbasbasbasbasbasbag57
(g73
g59
NtRp4373
(dp4374
g62
(dp4375
sg71
g4298
sg64
(lp4376
g57
(g78
g59
NtRp4377
(dp4378
g62
(dp4379
sg71
g4373
sg64
(lp4380
g57
(g58
g59
NtRp4381
(dp4382
g62
(dp4383
g70
I4
ssg71
g4377
sg64
(lp4384
g57
(g66
g59
NtRp4385
(dp4386
g62
(dp4387
g70
I3
ssg71
Nsg64
(lp4388
g57
(g73
g59
NtRp4389
(dp4390
g62
(dp4391
sg71
g4385
sg64
(lp4392
g57
(g78
g59
NtRp4393
(dp4394
g62
(dp4395
sg71
g4389
sg64
(lp4396
g57
(g58
g59
NtRp4397
(dp4398
g62
(dp4399
g70
I3
ssg71
g4393
sg64
(lp4400
g57
(g4269
g59
NtRp4401
(dp4402
g62
(dp4403
g4258
S'highlighted'
p4404
ssg71
Nsg64
(lp4405
g4232
asbasbasbasbag57
(g73
g59
NtRp4406
(dp4407
g62
(dp4408
sg71
g4385
sg64
(lp4409
g57
(g78
g59
NtRp4410
(dp4411
g62
(dp4412
sg71
g4406
sg64
(lp4413
g57
(g58
g59
NtRp4414
(dp4415
g62
(dp4416
g70
I3
ssg71
g4410
sg64
(lp4417
g100
asbasbasbag57
(g73
g59
NtRp4418
(dp4419
g62
(dp4420
sg71
g4385
sg64
(lp4421
g57
(g78
g59
NtRp4422
(dp4423
g62
(dp4424
sg71
g4418
sg64
(lp4425
g57
(g58
g59
NtRp4426
(dp4427
g62
(dp4428
g70
I3
ssg71
g4422
sg64
(lp4429
S'http://web2py.com'
p4430
asbasbasbag57
(g73
g59
NtRp4431
(dp4432
g62
(dp4433
sg71
g4385
sg64
(lp4434
g57
(g78
g59
NtRp4435
(dp4436
g62
(dp4437
sg71
g4431
sg64
(lp4438
g57
(g58
g59
NtRp4439
(dp4440
g62
(dp4441
g70
I3
ssg71
g4435
sg64
(lp4442
g57
(g66
g59
NtRp4443
(dp4444
g62
(dp4445
g70
I2
ssg71
Nsg64
(lp4446
g57
(g73
g59
NtRp4447
(dp4448
g62
(dp4449
sg71
g4443
sg64
(lp4450
g57
(g78
g59
NtRp4451
(dp4452
g62
(dp4453
sg71
g4447
sg64
(lp4454
g57
(g58
g59
NtRp4455
(dp4456
g62
(dp4457
g70
I2
ssg71
g4451
sg64
(lp4458
g57
(g66
g59
NtRp4459
(dp4460
g62
(dp4461
g70
I1
ssg71
Nsg64
(lp4462
g57
(g73
g59
NtRp4463
(dp4464
g62
(dp4465
sg71
g4459
sg64
(lp4466
g57
(g78
g59
NtRp4467
(dp4468
g62
(dp4469
sg71
g4463
sg64
(lp4470
g57
(g58
g59
NtRp4471
(dp4472
g62
(dp4473
g70
I1
ssg71
g4467
sg64
(lp4474
g4330
(S's\x08\x00\x00\x00My Sites'
tRp4475
asbasbasbag57
(g73
g59
NtRp4476
(dp4477
g62
(dp4478
sg71
g4459
sg64
(lp4479
g57
(g78
g59
NtRp4480
(dp4481
g62
(dp4482
sg71
g4476
sg64
(lp4483
g57
(g58
g59
NtRp4484
(dp4485
g62
(dp4486
g70
I1
ssg71
g4480
sg64
(lp4487
I00
asbasbasbag57
(g73
g59
NtRp4488
(dp4489
g62
(dp4490
sg71
g4459
sg64
(lp4491
g57
(g78
g59
NtRp4492
(dp4493
g62
(dp4494
sg71
g4488
sg64
(lp4495
g57
(g58
g59
NtRp4496
(dp4497
g62
(dp4498
g70
I1
ssg71
g4492
sg64
(lp4499
S'/admin/default/site'
p4500
asbasbasbasbasbasbasbag57
(g73
g59
NtRp4501
(dp4502
g62
(dp4503
sg71
g4443
sg64
(lp4504
g57
(g78
g59
NtRp4505
(dp4506
g62
(dp4507
sg71
g4501
sg64
(lp4508
g57
(g58
g59
NtRp4509
(dp4510
g62
(dp4511
g70
I2
ssg71
g4505
sg64
(lp4512
g57
(g66
g59
NtRp4513
(dp4514
g62
(dp4515
g70
I1
ssg71
Nsg64
(lp4516
g57
(g73
g59
NtRp4517
(dp4518
g62
(dp4519
sg71
g4513
sg64
(lp4520
g57
(g78
g59
NtRp4521
(dp4522
g62
(dp4523
sg71
g4517
sg64
(lp4524
g57
(g58
g59
NtRp4525
(dp4526
g62
(dp4527
g70
I1
ssg71
g4521
sg64
(lp4528
g4330
(S's\x08\x00\x00\x00This App'
tRp4529
asbasbasbag57
(g73
g59
NtRp4530
(dp4531
g62
(dp4532
sg71
g4513
sg64
(lp4533
g57
(g78
g59
NtRp4534
(dp4535
g62
(dp4536
sg71
g4530
sg64
(lp4537
g57
(g58
g59
NtRp4538
(dp4539
g62
(dp4540
g70
I1
ssg71
g4534
sg64
(lp4541
I00
asbasbasbag57
(g73
g59
NtRp4542
(dp4543
g62
(dp4544
sg71
g4513
sg64
(lp4545
g57
(g78
g59
NtRp4546
(dp4547
g62
(dp4548
sg71
g4542
sg64
(lp4549
g57
(g58
g59
NtRp4550
(dp4551
g62
(dp4552
g70
I1
ssg71
g4546
sg64
(lp4553
S'/admin/default/design/shipra'
p4554
asbasbasbag57
(g73
g59
NtRp4555
(dp4556
g62
(dp4557
sg71
g4513
sg64
(lp4558
g57
(g78
g59
NtRp4559
(dp4560
g62
(dp4561
sg71
g4555
sg64
(lp4562
g57
(g58
g59
NtRp4563
(dp4564
g62
(dp4565
g70
I1
ssg71
g4559
sg64
(lp4566
(lp4567
(g4330
(S's\n\x00\x00\x00Controller'
tRp4568
I00
S'/admin/default/edit/shipra/controllers/default.py'
tp4569
a(g4330
(S's\x04\x00\x00\x00View'
tRp4570
I00
S'/admin/default/edit/shipra/views/default/resume_display.html'
tp4571
a(g4330
(S's\x06\x00\x00\x00Layout'
tRp4572
I00
S'/admin/default/edit/shipra/views/layout.html'
tp4573
a(g4330
(S's\n\x00\x00\x00Stylesheet'
tRp4574
I00
S'/admin/default/edit/shipra/static/css/web2py.css'
tp4575
a(g4330
(S's\x08\x00\x00\x00DB Model'
tRp4576
I00
S'/admin/default/edit/shipra/models/db.py'
tp4577
a(g4330
(S's\n\x00\x00\x00Menu Model'
tRp4578
I00
S'/admin/default/edit/shipra/models/menu.py'
tp4579
a(g4330
(S's\x08\x00\x00\x00Database'
tRp4580
I00
S'/shipra/appadmin/index'
tp4581
a(g4330
(S's\x06\x00\x00\x00Errors'
tRp4582
I00
S'/admin/default/errors/shipra'
tp4583
a(g4330
(S's\x05\x00\x00\x00About'
tRp4584
I00
S'/admin/default/about/shipra'
tp4585
aasbasbasbasbasbasbasbag57
(g73
g59
NtRp4586
(dp4587
g62
(dp4588
sg71
g4443
sg64
(lp4589
g57
(g78
g59
NtRp4590
(dp4591
g62
(dp4592
sg71
g4586
sg64
(lp4593
g57
(g58
g59
NtRp4594
(dp4595
g62
(dp4596
g70
I2
ssg71
g4590
sg64
(lp4597
g57
(g66
g59
NtRp4598
(dp4599
g62
(dp4600
g70
I1
ssg71
Nsg64
(lp4601
g57
(g73
g59
NtRp4602
(dp4603
g62
(dp4604
sg71
g4598
sg64
(lp4605
g57
(g78
g59
NtRp4606
(dp4607
g62
(dp4608
sg71
g4602
sg64
(lp4609
g57
(g58
g59
NtRp4610
(dp4611
g62
(dp4612
g70
I1
ssg71
g4606
sg64
(lp4613
S'web2py.com'
p4614
asbasbasbag57
(g73
g59
NtRp4615
(dp4616
g62
(dp4617
sg71
g4598
sg64
(lp4618
g57
(g78
g59
NtRp4619
(dp4620
g62
(dp4621
sg71
g4615
sg64
(lp4622
g57
(g58
g59
NtRp4623
(dp4624
g62
(dp4625
g70
I1
ssg71
g4619
sg64
(lp4626
I00
asbasbasbag57
(g73
g59
NtRp4627
(dp4628
g62
(dp4629
sg71
g4598
sg64
(lp4630
g57
(g78
g59
NtRp4631
(dp4632
g62
(dp4633
sg71
g4627
sg64
(lp4634
g57
(g58
g59
NtRp4635
(dp4636
g62
(dp4637
g70
I1
ssg71
g4631
sg64
(lp4638
S'http://www.web2py.com'
p4639
asbasbasbag57
(g73
g59
NtRp4640
(dp4641
g62
(dp4642
sg71
g4598
sg64
(lp4643
g57
(g78
g59
NtRp4644
(dp4645
g62
(dp4646
sg71
g4640
sg64
(lp4647
g57
(g58
g59
NtRp4648
(dp4649
g62
(dp4650
g70
I1
ssg71
g4644
sg64
(lp4651
(lp4652
(g4330
(S's\x08\x00\x00\x00Download'
tRp4653
I00
S'http://www.web2py.com/examples/default/download'
p4654
tp4655
a(g4330
(S's\x07\x00\x00\x00Support'
tRp4656
I00
S'http://www.web2py.com/examples/default/support'
p4657
tp4658
a(g4330
(S's\x04\x00\x00\x00Demo'
tRp4659
I00
S'http://web2py.com/demo_admin'
p4660
tp4661
a(g4330
(S's\x0e\x00\x00\x00Quick Examples'
tRp4662
I00
S'http://web2py.com/examples/default/examples'
p4663
tp4664
a(g4330
(S's\x03\x00\x00\x00FAQ'
tRp4665
I00
S'http://web2py.com/AlterEgo'
p4666
tp4667
a(g4330
(S's\x06\x00\x00\x00Videos'
tRp4668
I00
S'http://www.web2py.com/examples/default/videos/'
p4669
tp4670
a(g4330
(S's\x11\x00\x00\x00Free Applications'
tRp4671
I00
S'http://web2py.com/appliances'
p4672
tp4673
a(g4330
(S's\x07\x00\x00\x00Plugins'
tRp4674
I00
S'http://web2py.com/plugins'
p4675
tp4676
a(g4330
(S's\x07\x00\x00\x00Layouts'
tRp4677
I00
S'http://web2py.com/layouts'
p4678
tp4679
a(g4330
(S's\x07\x00\x00\x00Recipes'
tRp4680
I00
S'http://web2pyslices.com/'
p4681
tp4682
a(g4330
(S's\x08\x00\x00\x00Semantic'
tRp4683
I00
S'http://web2py.com/semantic'
p4684
tp4685
aasbasbasbasbasbasbasbag57
(g73
g59
NtRp4686
(dp4687
g62
(dp4688
sg71
g4443
sg64
(lp4689
g57
(g78
g59
NtRp4690
(dp4691
g62
(dp4692
sg71
g4686
sg64
(lp4693
g57
(g58
g59
NtRp4694
(dp4695
g62
(dp4696
g70
I2
ssg71
g4690
sg64
(lp4697
g57
(g66
g59
NtRp4698
(dp4699
g62
(dp4700
g70
I1
ssg71
Nsg64
(lp4701
g57
(g73
g59
NtRp4702
(dp4703
g62
(dp4704
sg71
g4698
sg64
(lp4705
g57
(g78
g59
NtRp4706
(dp4707
g62
(dp4708
sg71
g4702
sg64
(lp4709
g57
(g58
g59
NtRp4710
(dp4711
g62
(dp4712
g70
I1
ssg71
g4706
sg64
(lp4713
g4330
(S's\r\x00\x00\x00Documentation'
tRp4714
asbasbasbag57
(g73
g59
NtRp4715
(dp4716
g62
(dp4717
sg71
g4698
sg64
(lp4718
g57
(g78
g59
NtRp4719
(dp4720
g62
(dp4721
sg71
g4715
sg64
(lp4722
g57
(g58
g59
NtRp4723
(dp4724
g62
(dp4725
g70
I1
ssg71
g4719
sg64
(lp4726
I00
asbasbasbag57
(g73
g59
NtRp4727
(dp4728
g62
(dp4729
sg71
g4698
sg64
(lp4730
g57
(g78
g59
NtRp4731
(dp4732
g62
(dp4733
sg71
g4727
sg64
(lp4734
g57
(g58
g59
NtRp4735
(dp4736
g62
(dp4737
g70
I1
ssg71
g4731
sg64
(lp4738
S'http://www.web2py.com/book'
p4739
asbasbasbag57
(g73
g59
NtRp4740
(dp4741
g62
(dp4742
sg71
g4698
sg64
(lp4743
g57
(g78
g59
NtRp4744
(dp4745
g62
(dp4746
sg71
g4740
sg64
(lp4747
g57
(g58
g59
NtRp4748
(dp4749
g62
(dp4750
g70
I1
ssg71
g4744
sg64
(lp4751
(lp4752
(g4330
(S's\x07\x00\x00\x00Preface'
tRp4753
I00
S'http://www.web2py.com/book/default/chapter/00'
p4754
tp4755
a(g4330
(S's\x0c\x00\x00\x00Introduction'
tRp4756
I00
S'http://www.web2py.com/book/default/chapter/01'
p4757
tp4758
a(g4330
(S's\x06\x00\x00\x00Python'
tRp4759
I00
S'http://www.web2py.com/book/default/chapter/02'
p4760
tp4761
a(g4330
(S's\x08\x00\x00\x00Overview'
tRp4762
I00
S'http://www.web2py.com/book/default/chapter/03'
p4763
tp4764
a(g4330
(S's\x08\x00\x00\x00The Core'
tRp4765
I00
S'http://www.web2py.com/book/default/chapter/04'
p4766
tp4767
a(g4330
(S's\t\x00\x00\x00The Views'
tRp4768
I00
S'http://www.web2py.com/book/default/chapter/05'
p4769
tp4770
a(g4330
(S's\x08\x00\x00\x00Database'
tRp4771
I00
S'http://www.web2py.com/book/default/chapter/06'
p4772
tp4773
a(g4330
(S's\x14\x00\x00\x00Forms and Validators'
tRp4774
I00
S'http://www.web2py.com/book/default/chapter/07'
p4775
tp4776
a(g4330
(S's\r\x00\x00\x00Email and SMS'
tRp4777
I00
S'http://www.web2py.com/book/default/chapter/08'
p4778
tp4779
a(g4330
(S's\x0e\x00\x00\x00Access Control'
tRp4780
I00
S'http://www.web2py.com/book/default/chapter/09'
p4781
tp4782
a(g4330
(S's\x08\x00\x00\x00Services'
tRp4783
I00
S'http://www.web2py.com/book/default/chapter/10'
p4784
tp4785
a(g4330
(S's\x0c\x00\x00\x00Ajax Recipes'
tRp4786
I00
S'http://www.web2py.com/book/default/chapter/11'
p4787
tp4788
a(g4330
(S's\x16\x00\x00\x00Components and Plugins'
tRp4789
I00
S'http://www.web2py.com/book/default/chapter/12'
p4790
tp4791
a(g4330
(S's\x12\x00\x00\x00Deployment Recipes'
tRp4792
I00
S'http://www.web2py.com/book/default/chapter/13'
p4793
tp4794
a(g4330
(S's\r\x00\x00\x00Other Recipes'
tRp4795
I00
S'http://www.web2py.com/book/default/chapter/14'
p4796
tp4797
a(g4330
(S's\r\x00\x00\x00Buy this book'
tRp4798
I00
S'http://stores.lulu.com/web2py'
p4799
tp4800
aasbasbasbasbasbasbasbag57
(g73
g59
NtRp4801
(dp4802
g62
(dp4803
sg71
g4443
sg64
(lp4804
g57
(g78
g59
NtRp4805
(dp4806
g62
(dp4807
sg71
g4801
sg64
(lp4808
g57
(g58
g59
NtRp4809
(dp4810
g62
(dp4811
g70
I2
ssg71
g4805
sg64
(lp4812
g57
(g66
g59
NtRp4813
(dp4814
g62
(dp4815
g70
I1
ssg71
Nsg64
(lp4816
g57
(g73
g59
NtRp4817
(dp4818
g62
(dp4819
sg71
g4813
sg64
(lp4820
g57
(g78
g59
NtRp4821
(dp4822
g62
(dp4823
sg71
g4817
sg64
(lp4824
g57
(g58
g59
NtRp4825
(dp4826
g62
(dp4827
g70
I1
ssg71
g4821
sg64
(lp4828
g4330
(S's\t\x00\x00\x00Community'
tRp4829
asbasbasbag57
(g73
g59
NtRp4830
(dp4831
g62
(dp4832
sg71
g4813
sg64
(lp4833
g57
(g78
g59
NtRp4834
(dp4835
g62
(dp4836
sg71
g4830
sg64
(lp4837
g57
(g58
g59
NtRp4838
(dp4839
g62
(dp4840
g70
I1
ssg71
g4834
sg64
(lp4841
I00
asbasbasbag57
(g73
g59
NtRp4842
(dp4843
g62
(dp4844
sg71
g4813
sg64
(lp4845
g57
(g78
g59
NtRp4846
(dp4847
g62
(dp4848
sg71
g4842
sg64
(lp4849
g57
(g58
g59
NtRp4850
(dp4851
g62
(dp4852
g70
I1
ssg71
g4846
sg64
(lp4853
Nasbasbasbag57
(g73
g59
NtRp4854
(dp4855
g62
(dp4856
sg71
g4813
sg64
(lp4857
g57
(g78
g59
NtRp4858
(dp4859
g62
(dp4860
sg71
g4854
sg64
(lp4861
g57
(g58
g59
NtRp4862
(dp4863
g62
(dp4864
g70
I1
ssg71
g4858
sg64
(lp4865
(lp4866
(g4330
(S's\x06\x00\x00\x00Groups'
tRp4867
I00
S'http://www.web2py.com/examples/default/usergroups'
p4868
tp4869
a(g4330
(S's\x07\x00\x00\x00Twitter'
tRp4870
I00
S'http://twitter.com/web2py'
p4871
tp4872
a(g4330
(S's\t\x00\x00\x00Live Chat'
tRp4873
I00
S'http://webchat.freenode.net/?channels=web2py'
p4874
tp4875
aasbasbasbasbasbasbasbag57
(g73
g59
NtRp4876
(dp4877
g62
(dp4878
sg71
g4443
sg64
(lp4879
g57
(g78
g59
NtRp4880
(dp4881
g62
(dp4882
sg71
g4876
sg64
(lp4883
g57
(g58
g59
NtRp4884
(dp4885
g62
(dp4886
g70
I2
ssg71
g4880
sg64
(lp4887
g57
(g66
g59
NtRp4888
(dp4889
g62
(dp4890
g70
I1
ssg71
Nsg64
(lp4891
g57
(g73
g59
NtRp4892
(dp4893
g62
(dp4894
sg71
g4888
sg64
(lp4895
g57
(g78
g59
NtRp4896
(dp4897
g62
(dp4898
sg71
g4892
sg64
(lp4899
g57
(g58
g59
NtRp4900
(dp4901
g62
(dp4902
g70
I1
ssg71
g4896
sg64
(lp4903
g4330
(S's\x07\x00\x00\x00Plugins'
tRp4904
asbasbasbag57
(g73
g59
NtRp4905
(dp4906
g62
(dp4907
sg71
g4888
sg64
(lp4908
g57
(g78
g59
NtRp4909
(dp4910
g62
(dp4911
sg71
g4905
sg64
(lp4912
g57
(g58
g59
NtRp4913
(dp4914
g62
(dp4915
g70
I1
ssg71
g4909
sg64
(lp4916
I00
asbasbasbag57
(g73
g59
NtRp4917
(dp4918
g62
(dp4919
sg71
g4888
sg64
(lp4920
g57
(g78
g59
NtRp4921
(dp4922
g62
(dp4923
sg71
g4917
sg64
(lp4924
g57
(g58
g59
NtRp4925
(dp4926
g62
(dp4927
g70
I1
ssg71
g4921
sg64
(lp4928
Nasbasbasbag57
(g73
g59
NtRp4929
(dp4930
g62
(dp4931
sg71
g4888
sg64
(lp4932
g57
(g78
g59
NtRp4933
(dp4934
g62
(dp4935
sg71
g4929
sg64
(lp4936
g57
(g58
g59
NtRp4937
(dp4938
g62
(dp4939
g70
I1
ssg71
g4933
sg64
(lp4940
(lp4941
(S'plugin_wiki'
p4942
I00
S'http://web2py.com/examples/default/download'
p4943
tp4944
a(g4330
(S's\r\x00\x00\x00Other Plugins'
tRp4945
I00
g4675
tp4946
a(g4330
(S's\x0e\x00\x00\x00Layout Plugins'
tRp4947
I00
g4678
tp4948
aasbasbasbasbasbasbasbasbasbasbasbasbasbasbasbasbasbasbasbag57
(g73
g59
NtRp4949
(dp4950
g62
(dp4951
sg71
g3796
sg64
(lp4952
g57
(g78
g59
NtRp4953
(dp4954
g62
(dp4955
g82
g83
ssg71
g4949
sg64
(lp4956
S'meta'
p4957
asbag57
(g78
g59
NtRp4958
(dp4959
g62
(dp4960
g89
g90
ssg71
g4949
sg64
(lp4961
S':'
asbag57
(g78
g59
NtRp4962
(dp4963
g62
(dp4964
sg71
g4949
sg64
(lp4965
g57
(g58
g59
NtRp4966
(dp4967
g62
(dp4968
g70
I5
ssg71
g4962
sg64
(lp4969
g57
(g66
g59
NtRp4970
(dp4971
g62
(dp4972
g70
I4
ssg71
Nsg64
(lp4973
g57
(g73
g59
NtRp4974
(dp4975
g62
(dp4976
sg71
g4970
sg64
(lp4977
g57
(g78
g59
NtRp4978
(dp4979
g62
(dp4980
g82
g83
ssg71
g4974
sg64
(lp4981
S'author'
p4982
asbag57
(g78
g59
NtRp4983
(dp4984
g62
(dp4985
g89
g90
ssg71
g4974
sg64
(lp4986
S':'
asbag57
(g78
g59
NtRp4987
(dp4988
g62
(dp4989
sg71
g4974
sg64
(lp4990
g57
(g58
g59
NtRp4991
(dp4992
g62
(dp4993
g70
I4
ssg71
g4987
sg64
(lp4994
S'Your Name <you@example.com>'
p4995
asbasbasbag57
(g73
g59
NtRp4996
(dp4997
g62
(dp4998
sg71
g4970
sg64
(lp4999
g57
(g78
g59
NtRp5000
(dp5001
g62
(dp5002
g82
g83
ssg71
g4996
sg64
(lp5003
S'description'
p5004
asbag57
(g78
g59
NtRp5005
(dp5006
g62
(dp5007
g89
g90
ssg71
g4996
sg64
(lp5008
S':'
asbag57
(g78
g59
NtRp5009
(dp5010
g62
(dp5011
sg71
g4996
sg64
(lp5012
g57
(g58
g59
NtRp5013
(dp5014
g62
(dp5015
g70
I4
ssg71
g5009
sg64
(lp5016
S'a cool new app'
p5017
asbasbasbag57
(g73
g59
NtRp5018
(dp5019
g62
(dp5020
sg71
g4970
sg64
(lp5021
g57
(g78
g59
NtRp5022
(dp5023
g62
(dp5024
g82
g83
ssg71
g5018
sg64
(lp5025
S'generator'
p5026
asbag57
(g78
g59
NtRp5027
(dp5028
g62
(dp5029
g89
g90
ssg71
g5018
sg64
(lp5030
S':'
asbag57
(g78
g59
NtRp5031
(dp5032
g62
(dp5033
sg71
g5018
sg64
(lp5034
g57
(g58
g59
NtRp5035
(dp5036
g62
(dp5037
g70
I4
ssg71
g5031
sg64
(lp5038
S'Web2py Web Framework'
p5039
asbasbasbag57
(g73
g59
NtRp5040
(dp5041
g62
(dp5042
sg71
g4970
sg64
(lp5043
g57
(g78
g59
NtRp5044
(dp5045
g62
(dp5046
g82
g83
ssg71
g5040
sg64
(lp5047
S'keywords'
p5048
asbag57
(g78
g59
NtRp5049
(dp5050
g62
(dp5051
g89
g90
ssg71
g5040
sg64
(lp5052
S':'
asbag57
(g78
g59
NtRp5053
(dp5054
g62
(dp5055
sg71
g5040
sg64
(lp5056
g57
(g58
g59
NtRp5057
(dp5058
g62
(dp5059
g70
I4
ssg71
g5053
sg64
(lp5060
S'web2py, python, framework'
p5061
asbasbasbasbasbasbasbag57
(g73
g59
NtRp5062
(dp5063
g62
(dp5064
sg71
g3796
sg64
(lp5065
g57
(g78
g59
NtRp5066
(dp5067
g62
(dp5068
g82
g83
ssg71
g5062
sg64
(lp5069
S'models_to_run'
p5070
asbag57
(g78
g59
NtRp5071
(dp5072
g62
(dp5073
g89
g90
ssg71
g5062
sg64
(lp5074
S':'
asbag57
(g78
g59
NtRp5075
(dp5076
g62
(dp5077
sg71
g5062
sg64
(lp5078
g57
(g58
g59
NtRp5079
(dp5080
g62
(dp5081
g70
I5
ssg71
g5075
sg64
(lp5082
g57
(g66
g59
NtRp5083
(dp5084
g62
(dp5085
g70
I4
ssg71
Nsg64
(lp5086
g57
(g73
g59
NtRp5087
(dp5088
g62
(dp5089
sg71
g5083
sg64
(lp5090
g57
(g78
g59
NtRp5091
(dp5092
g62
(dp5093
sg71
g5087
sg64
(lp5094
g57
(g58
g59
NtRp5095
(dp5096
g62
(dp5097
g70
I4
ssg71
g5091
sg64
(lp5098
S'^\\w+\\.py$'
p5099
asbasbasbag57
(g73
g59
NtRp5100
(dp5101
g62
(dp5102
sg71
g5083
sg64
(lp5103
g57
(g78
g59
NtRp5104
(dp5105
g62
(dp5106
sg71
g5100
sg64
(lp5107
g57
(g58
g59
NtRp5108
(dp5109
g62
(dp5110
g70
I4
ssg71
g5104
sg64
(lp5111
S'^default/\\w+\\.py$'
p5112
asbasbasbag57
(g73
g59
NtRp5113
(dp5114
g62
(dp5115
sg71
g5083
sg64
(lp5116
g57
(g78
g59
NtRp5117
(dp5118
g62
(dp5119
sg71
g5113
sg64
(lp5120
g57
(g58
g59
NtRp5121
(dp5122
g62
(dp5123
g70
I4
ssg71
g5117
sg64
(lp5124
S'^default/resume_display/\\w+\\.py$'
p5125
asbasbasbasbasbasbasbag57
(g73
g59
NtRp5126
(dp5127
g62
(dp5128
sg71
g3796
sg64
(lp5129
g57
(g78
g59
NtRp5130
(dp5131
g62
(dp5132
g82
g83
ssg71
g5126
sg64
(lp5133
S'postprocessing'
p5134
asbag57
(g78
g59
NtRp5135
(dp5136
g62
(dp5137
g89
g90
ssg71
g5126
sg64
(lp5138
S':'
asbag57
(g78
g59
NtRp5139
(dp5140
g62
(dp5141
sg71
g5126
sg64
(lp5142
g57
(g58
g59
NtRp5143
(dp5144
g62
(dp5145
g70
I5
ssg71
g5139
sg64
(lp5146
g57
(g66
g59
NtRp5147
(dp5148
g62
(dp5149
g70
I4
ssg71
Nsg64
(lp5150
sbasbasbasbag57
(g73
g59
NtRp5151
(dp5152
g62
(dp5153
sg71
g3796
sg64
(lp5154
g57
(g78
g59
NtRp5155
(dp5156
g62
(dp5157
g82
g83
ssg71
g5151
sg64
(lp5158
S'session_cookie_expires'
p5159
asbag57
(g78
g59
NtRp5160
(dp5161
g62
(dp5162
g89
g90
ssg71
g5151
sg64
(lp5163
S':'
asbag57
(g78
g59
NtRp5164
(dp5165
g62
(dp5166
sg71
g5151
sg64
(lp5167
g57
(g58
g59
NtRp5168
(dp5169
g62
(dp5170
g70
I5
ssg71
g5164
sg64
(lp5171
S'None'
p5172
asbasbasbag57
(g73
g59
NtRp5173
(dp5174
g62
(dp5175
sg71
g3796
sg64
(lp5176
g57
(g78
g59
NtRp5177
(dp5178
g62
(dp5179
g82
g83
ssg71
g5173
sg64
(lp5180
S'session_data_name'
p5181
asbag57
(g78
g59
NtRp5182
(dp5183
g62
(dp5184
g89
g90
ssg71
g5173
sg64
(lp5185
S':'
asbag57
(g78
g59
NtRp5186
(dp5187
g62
(dp5188
sg71
g5173
sg64
(lp5189
g57
(g58
g59
NtRp5190
(dp5191
g62
(dp5192
g70
I5
ssg71
g5186
sg64
(lp5193
S'session_data_shipra'
p5194
asbasbasbag57
(g73
g59
NtRp5195
(dp5196
g62
(dp5197
sg71
g3796
sg64
(lp5198
g57
(g78
g59
NtRp5199
(dp5200
g62
(dp5201
g82
g83
ssg71
g5195
sg64
(lp5202
S'session_file'
p5203
asbag57
(g78
g59
NtRp5204
(dp5205
g62
(dp5206
g89
g90
ssg71
g5195
sg64
(lp5207
S':'
asbag57
(g78
g59
NtRp5208
(dp5209
g62
(dp5210
sg71
g5195
sg64
(lp5211
g57
(g58
g59
NtRp5212
(dp5213
g62
(dp5214
g70
I5
ssg71
g5208
sg64
(lp5215
S"<open file '/home/shipra/Desktop/Semester 1.2/ITWS-2/web2py/applications/shipra/sessions/127.0.0.1-d391ed2c-8322-46b3-b175-091fd330da7e', mode 'rb+' at 0x7f6fe0398030>"
p5216
asbasbasbag57
(g73
g59
NtRp5217
(dp5218
g62
(dp5219
sg71
g3796
sg64
(lp5220
g57
(g78
g59
NtRp5221
(dp5222
g62
(dp5223
g82
g83
ssg71
g5217
sg64
(lp5224
S'session_filename'
p5225
asbag57
(g78
g59
NtRp5226
(dp5227
g62
(dp5228
g89
g90
ssg71
g5217
sg64
(lp5229
S':'
asbag57
(g78
g59
NtRp5230
(dp5231
g62
(dp5232
sg71
g5217
sg64
(lp5233
g57
(g58
g59
NtRp5234
(dp5235
g62
(dp5236
g70
I5
ssg71
g5230
sg64
(lp5237
S'/home/shipra/Desktop/Semester 1.2/ITWS-2/web2py/applications/shipra/sessions/127.0.0.1-d391ed2c-8322-46b3-b175-091fd330da7e'
p5238
asbasbasbag57
(g73
g59
NtRp5239
(dp5240
g62
(dp5241
sg71
g3796
sg64
(lp5242
g57
(g78
g59
NtRp5243
(dp5244
g62
(dp5245
g82
g83
ssg71
g5239
sg64
(lp5246
S'session_id'
p5247
asbag57
(g78
g59
NtRp5248
(dp5249
g62
(dp5250
g89
g90
ssg71
g5239
sg64
(lp5251
S':'
asbag57
(g78
g59
NtRp5252
(dp5253
g62
(dp5254
sg71
g5239
sg64
(lp5255
g57
(g58
g59
NtRp5256
(dp5257
g62
(dp5258
g70
I5
ssg71
g5252
sg64
(lp5259
g859
asbasbasbag57
(g73
g59
NtRp5260
(dp5261
g62
(dp5262
sg71
g3796
sg64
(lp5263
g57
(g78
g59
NtRp5264
(dp5265
g62
(dp5266
g82
g83
ssg71
g5260
sg64
(lp5267
S'session_id_name'
p5268
asbag57
(g78
g59
NtRp5269
(dp5270
g62
(dp5271
g89
g90
ssg71
g5260
sg64
(lp5272
S':'
asbag57
(g78
g59
NtRp5273
(dp5274
g62
(dp5275
sg71
g5260
sg64
(lp5276
g57
(g58
g59
NtRp5277
(dp5278
g62
(dp5279
g70
I5
ssg71
g5273
sg64
(lp5280
g3853
asbasbasbag57
(g73
g59
NtRp5281
(dp5282
g62
(dp5283
sg71
g3796
sg64
(lp5284
g57
(g78
g59
NtRp5285
(dp5286
g62
(dp5287
g82
g83
ssg71
g5281
sg64
(lp5288
S'session_locked'
p5289
asbag57
(g78
g59
NtRp5290
(dp5291
g62
(dp5292
g89
g90
ssg71
g5281
sg64
(lp5293
S':'
asbag57
(g78
g59
NtRp5294
(dp5295
g62
(dp5296
sg71
g5281
sg64
(lp5297
g57
(g58
g59
NtRp5298
(dp5299
g62
(dp5300
g70
I5
ssg71
g5294
sg64
(lp5301
g2205
asbasbasbag57
(g73
g59
NtRp5302
(dp5303
g62
(dp5304
sg71
g3796
sg64
(lp5305
g57
(g78
g59
NtRp5306
(dp5307
g62
(dp5308
g82
g83
ssg71
g5302
sg64
(lp5309
S'session_new'
p5310
asbag57
(g78
g59
NtRp5311
(dp5312
g62
(dp5313
g89
g90
ssg71
g5302
sg64
(lp5314
S':'
asbag57
(g78
g59
NtRp5315
(dp5316
g62
(dp5317
sg71
g5302
sg64
(lp5318
g57
(g58
g59
NtRp5319
(dp5320
g62
(dp5321
g70
I5
ssg71
g5315
sg64
(lp5322
g100
asbasbasbag57
(g73
g59
NtRp5323
(dp5324
g62
(dp5325
sg71
g3796
sg64
(lp5326
g57
(g78
g59
NtRp5327
(dp5328
g62
(dp5329
g82
g83
ssg71
g5323
sg64
(lp5330
S'session_storage_type'
p5331
asbag57
(g78
g59
NtRp5332
(dp5333
g62
(dp5334
g89
g90
ssg71
g5323
sg64
(lp5335
S':'
asbag57
(g78
g59
NtRp5336
(dp5337
g62
(dp5338
sg71
g5323
sg64
(lp5339
g57
(g58
g59
NtRp5340
(dp5341
g62
(dp5342
g70
I5
ssg71
g5336
sg64
(lp5343
g3684
asbasbasbag57
(g73
g59
NtRp5344
(dp5345
g62
(dp5346
sg71
g3796
sg64
(lp5347
g57
(g78
g59
NtRp5348
(dp5349
g62
(dp5350
g82
g83
ssg71
g5344
sg64
(lp5351
S'status'
p5352
asbag57
(g78
g59
NtRp5353
(dp5354
g62
(dp5355
g89
g90
ssg71
g5344
sg64
(lp5356
S':'
asbag57
(g78
g59
NtRp5357
(dp5358
g62
(dp5359
sg71
g5344
sg64
(lp5360
g57
(g58
g59
NtRp5361
(dp5362
g62
(dp5363
g70
I5
ssg71
g5357
sg64
(lp5364
S'200'
p5365
asbasbasbag57
(g73
g59
NtRp5366
(dp5367
g62
(dp5368
sg71
g3796
sg64
(lp5369
g57
(g78
g59
NtRp5370
(dp5371
g62
(dp5372
g82
g83
ssg71
g5366
sg64
(lp5373
S'subtitle'
p5374
asbag57
(g78
g59
NtRp5375
(dp5376
g62
(dp5377
g89
g90
ssg71
g5366
sg64
(lp5378
S':'
asbag57
(g78
g59
NtRp5379
(dp5380
g62
(dp5381
sg71
g5366
sg64
(lp5382
g57
(g58
g59
NtRp5383
(dp5384
g62
(dp5385
g70
I5
ssg71
g5379
sg64
(lp5386
g4330
(S's\r\x00\x00\x00customize me!'
tRp5387
asbasbasbag57
(g73
g59
NtRp5388
(dp5389
g62
(dp5390
sg71
g3796
sg64
(lp5391
g57
(g78
g59
NtRp5392
(dp5393
g62
(dp5394
g82
g83
ssg71
g5388
sg64
(lp5395
S'title'
p5396
asbag57
(g78
g59
NtRp5397
(dp5398
g62
(dp5399
g89
g90
ssg71
g5388
sg64
(lp5400
S':'
asbag57
(g78
g59
NtRp5401
(dp5402
g62
(dp5403
sg71
g5388
sg64
(lp5404
g57
(g58
g59
NtRp5405
(dp5406
g62
(dp5407
g70
I5
ssg71
g5401
sg64
(lp5408
S'Shipra'
p5409
asbasbasbag57
(g73
g59
NtRp5410
(dp5411
g62
(dp5412
sg71
g3796
sg64
(lp5413
g57
(g78
g59
NtRp5414
(dp5415
g62
(dp5416
g82
g83
ssg71
g5410
sg64
(lp5417
S'view'
p5418
asbag57
(g78
g59
NtRp5419
(dp5420
g62
(dp5421
g89
g90
ssg71
g5410
sg64
(lp5422
S':'
asbag57
(g78
g59
NtRp5423
(dp5424
g62
(dp5425
sg71
g5410
sg64
(lp5426
g57
(g58
g59
NtRp5427
(dp5428
g62
(dp5429
g70
I5
ssg71
g5423
sg64
(lp5430
S'default/resume_display.html'
p5431
asbasbasbasbasbsS'locals'
p5432
(dp5433
S'i'
S'0'
sS'self'
p5434
S'<Rows (0)>'
p5435
sssS'traceback'
p5436
S'Traceback (most recent call last):\n  File "/home/shipra/Desktop/Semester 1.2/ITWS-2/web2py/gluon/restricted.py", line 212, in restricted\n    exec ccode in environment\n  File "/home/shipra/Desktop/Semester 1.2/ITWS-2/web2py/applications/shipra/views/default/resume_display.html", line 11, in <module>\n    </ol>\n  File "/home/shipra/Desktop/Semester 1.2/ITWS-2/web2py/gluon/dal.py", line 9170, in __getitem__\n    row = self.records[i]\nIndexError: list index out of range\n'
p5437
s.