(dp1
S'output'
p2
S'<type \'exceptions.SyntaxError\'> invalid table/column name "search" is a "ALL" reserved SQL keyword'
p3
sS'layer'
p4
S'/home/shipra/Desktop/Semester 1.2/ITWS-2/web2py/applications/shipra/models/db.py'
p5
sS'code'
p6
S"# -*- coding: utf-8 -*-\n\n#########################################################################\n## This scaffolding model makes your app work on Google App Engine too\n## File is released under public domain and you can use without limitations\n#########################################################################\n\n## if SSL/HTTPS is properly configured and you want all HTTP requests to\n## be redirected to HTTPS, uncomment the line below:\n# request.requires_https()\n\nif not request.env.web2py_runtime_gae:\n    ## if NOT running on Google App Engine use SQLite or other DB\n    db = DAL('sqlite://storage.sqlite',pool_size=1,check_reserved=['all'])\nelse:\n    ## connect to Google BigTable (optional 'google:datastore://namespace')\n    db = DAL('google:datastore')\n    ## store sessions and tickets there\n    session.connect(request, response, db=db)\n    ## or store session in Memcache, Redis, etc.\n    ## from gluon.contrib.memdb import MEMDB\n    ## from google.appengine.api.memcache import Client\n    ## session.connect(request, response, db = MEMDB(Client()))\n\n## by default give a view/generic.extension to all actions from localhost\n## none otherwise. a pattern can be 'controller/function.extension'\nresponse.generic_patterns = ['*'] if request.is_local else []\n## (optional) optimize handling of static files\n# response.optimize_css = 'concat,minify,inline'\n# response.optimize_js = 'concat,minify,inline'\n\n#########################################################################\n## Here is sample code if you need for\n## - email capabilities\n## - authentication (registration, login, logout, ... )\n## - authorization (role based authorization)\n## - services (xml, csv, json, xmlrpc, jsonrpc, amf, rss)\n## - old style crud actions\n## (more options discussed in gluon/tools.py)\n#########################################################################\n\nfrom gluon.tools import Auth, Crud, Service, PluginManager, prettydate\nauth = Auth(db)\ncrud, service, plugins = Crud(db), Service(), PluginManager()\n\n## create all tables needed by auth if not custom tables\nauth.define_tables(username=False, signature=False)\n\n## configure email\nmail = auth.settings.mailer\nmail.settings.server = 'logging' or 'smtp.gmail.com:587'\nmail.settings.sender = 'you@gmail.com'\nmail.settings.login = 'username:password'\n\n## configure auth policy\nauth.settings.registration_requires_verification = False\nauth.settings.registration_requires_approval = False\nauth.settings.reset_password_requires_verification = True\n\n## if you need to use OpenID, Facebook, MySpace, Twitter, Linkedin, etc.\n## register with janrain.com, write your domain:api_key in private/janrain.key\nfrom gluon.contrib.login_methods.rpx_account import use_janrain\nuse_janrain(auth, filename='private/janrain.key')\n\n#########################################################################\n## Define your tables below (or better in another model file) for example\n##\n## >>> db.define_table('mytable',Field('myfield','string'))\n##\n## Fields can be 'string','text','password','integer','double','boolean'\n##       'date','time','datetime','blob','upload', 'reference TABLENAME'\n## There is an implicit 'id integer autoincrement' field\n## Consult manual for more options, validators, etc.\n##\n## More API examples for controllers:\n##\n## >>> db.mytable.insert(myfield='value')\n## >>> rows=db(db.mytable.myfield=='value').select(db.mytable.ALL)\n## >>> for row in rows: print row.id, row.myfield\n#########################################################################\ndb.define_table('Personal',\n\tdb.Field('pid','integer'),\n\tdb.Field('Age','integer'),\n\tdb.Field('Gender','string',requires=IS_IN_SET(['MALE','FEMALE'])),\n\tdb.Field('Contact','integer'))\n\ndb.define_table('Education',\n\tdb.Field('eid','integer'),\n\tdb.Field('Deg','string'),\n\tdb.Field('Branch','string'),\n\tdb.Field('Duration','integer'),\n\tdb.Field('Accomplishments','string'))\n\ndb.define_table('Merit',\n\tdb.Field('mid','integer'),\n\tdb.Field('XMarks','integer'),\n\tdb.Field('XIIMarks','integer'),\n\tdb.Field('CGPA','integer'))\n\ndb.define_table('Experience',\n\tdb.Field('exid','integer'),\n\tdb.Field('Company','string'),\n\tdb.Field('Duration','integer'),\n\tdb.Field('Post','string'),\n\tdb.Field('Accomplishments','string'))\n\ndb.define_table('search',\n\tdb.Field('Firstname','string'),\n\tdb.Field('Lastname','string'),\n\tdb.Field('Email','string'),\n\tdb.Field('Gender','string',requires=IS_IN_SET(['MALE','FEMALE'])),\n\tdb.Field('Contact','integer'),\n\tdb.Field('Deg','string'),\n\tdb.Field('Branch','string'),\n\tdb.Field('XMarks','integer'),\n\tdb.Field('XIIMarks','integer'),\n\tdb.Field('CGPA','integer'),\n\tdb.Field('Company','string'),\n\tdb.Field('Duration','integer'),\n\tdb.Field('Post','string'))\n\n\t\n\n## after defining tables, uncomment below to enable auditing\n# auth.enable_record_versioning(db)\n"
p7
sS'snapshot'
p8
(dp9
S'exception'
p10
(dp11
S'__getslice__'
p12
S"<method-wrapper '__getslice__' of exceptions.SyntaxError object>"
p13
sS'text'
p14
S'None'
p15
sS'__str__'
p16
S"<method-wrapper '__str__' of exceptions.SyntaxError object>"
p17
sS'__reduce__'
p18
S'<built-in method __reduce__ of exceptions.SyntaxError object>'
p19
sS'__dict__'
p20
S'{}'
p21
sS'__sizeof__'
p22
S'<built-in method __sizeof__ of exceptions.SyntaxError object>'
p23
sS'__init__'
p24
S"<method-wrapper '__init__' of exceptions.SyntaxError object>"
p25
sS'__setattr__'
p26
S"<method-wrapper '__setattr__' of exceptions.SyntaxError object>"
p27
sS'__reduce_ex__'
p28
S'<built-in method __reduce_ex__ of exceptions.SyntaxError object>'
p29
sS'__new__'
p30
S'<built-in method __new__ of type object>'
p31
sS'__format__'
p32
S'<built-in method __format__ of exceptions.SyntaxError object>'
p33
sS'__class__'
p34
S"<type 'exceptions.SyntaxError'>"
p35
sS'filename'
p36
S'None'
p37
sS'lineno'
p38
S'None'
p39
sS'msg'
p40
S'\'invalid table/column name "search" is a "ALL" reserved SQL keyword\''
p41
sS'__doc__'
p42
S"'Invalid syntax.'"
p43
sS'__getitem__'
p44
S"<method-wrapper '__getitem__' of exceptions.SyntaxError object>"
p45
sS'__setstate__'
p46
S'<built-in method __setstate__ of exceptions.SyntaxError object>'
p47
sS'__getattribute__'
p48
S"<method-wrapper '__getattribute__' of exceptions.SyntaxError object>"
p49
sS'print_file_and_line'
p50
S'None'
p51
sS'args'
p52
S'(\'invalid table/column name "search" is a "ALL" reserved SQL keyword\',)'
p53
sS'__subclasshook__'
p54
S'<built-in method __subclasshook__ of type object>'
p55
sS'offset'
p56
S'None'
p57
sS'__unicode__'
p58
S'<built-in method __unicode__ of exceptions.SyntaxError object>'
p59
sS'__delattr__'
p60
S"<method-wrapper '__delattr__' of exceptions.SyntaxError object>"
p61
sS'__repr__'
p62
S"<method-wrapper '__repr__' of exceptions.SyntaxError object>"
p63
sS'__hash__'
p64
S"<method-wrapper '__hash__' of exceptions.SyntaxError object>"
p65
ssS'evalue'
p66
S'invalid table/column name "search" is a "ALL" reserved SQL keyword'
p67
sS'request'
p68
ccopy_reg
_reconstructor
p69
(cgluon.html
BEAUTIFY
p70
c__builtin__
object
p71
NtRp72
(dp73
S'attributes'
p74
(dp75
sS'components'
p76
(lp77
g69
(cgluon.html
TABLE
p78
g71
NtRp79
(dp80
g74
(dp81
S'level'
p82
I5
ssS'parent'
p83
Nsg76
(lp84
g69
(cgluon.html
TR
p85
g71
NtRp86
(dp87
g74
(dp88
sg83
g79
sg76
(lp89
g69
(cgluon.html
TD
p90
g71
NtRp91
(dp92
g74
(dp93
S'_style'
p94
S'font-weight:bold;vertical-align:top'
p95
ssg83
g86
sg76
(lp96
S'ajax'
p97
asbag69
(g90
g71
NtRp98
(dp99
g74
(dp100
S'_valign'
p101
S'top'
p102
ssg83
g86
sg76
(lp103
S':'
asbag69
(g90
g71
NtRp104
(dp105
g74
(dp106
sg83
g86
sg76
(lp107
g69
(g70
g71
NtRp108
(dp109
g74
(dp110
g82
I5
ssg83
g104
sg76
(lp111
S'False'
p112
asbasbasbag69
(g85
g71
NtRp113
(dp114
g74
(dp115
sg83
g79
sg76
(lp116
g69
(g90
g71
NtRp117
(dp118
g74
(dp119
g94
g95
ssg83
g113
sg76
(lp120
S'application'
p121
asbag69
(g90
g71
NtRp122
(dp123
g74
(dp124
g101
g102
ssg83
g113
sg76
(lp125
S':'
asbag69
(g90
g71
NtRp126
(dp127
g74
(dp128
sg83
g113
sg76
(lp129
g69
(g70
g71
NtRp130
(dp131
g74
(dp132
g82
I5
ssg83
g126
sg76
(lp133
S'shipra'
p134
asbasbasbag69
(g85
g71
NtRp135
(dp136
g74
(dp137
sg83
g79
sg76
(lp138
g69
(g90
g71
NtRp139
(dp140
g74
(dp141
g94
g95
ssg83
g135
sg76
(lp142
g52
asbag69
(g90
g71
NtRp143
(dp144
g74
(dp145
g101
g102
ssg83
g135
sg76
(lp146
S':'
asbag69
(g90
g71
NtRp147
(dp148
g74
(dp149
sg83
g135
sg76
(lp150
g69
(g70
g71
NtRp151
(dp152
g74
(dp153
g82
I5
ssg83
g147
sg76
(lp154
g69
(g78
g71
NtRp155
(dp156
g74
(dp157
g82
I4
ssg83
Nsg76
(lp158
sbasbasbasbag69
(g85
g71
NtRp159
(dp160
g74
(dp161
sg83
g79
sg76
(lp162
g69
(g90
g71
NtRp163
(dp164
g74
(dp165
g94
g95
ssg83
g159
sg76
(lp166
S'body'
p167
asbag69
(g90
g71
NtRp168
(dp169
g74
(dp170
g101
g102
ssg83
g159
sg76
(lp171
S':'
asbag69
(g90
g71
NtRp172
(dp173
g74
(dp174
sg83
g159
sg76
(lp175
g69
(g70
g71
NtRp176
(dp177
g74
(dp178
g82
I5
ssg83
g172
sg76
(lp179
S'<cStringIO.StringO object at 0x7fa14c2f6ae8>'
p180
asbasbasbag69
(g85
g71
NtRp181
(dp182
g74
(dp183
sg83
g79
sg76
(lp184
g69
(g90
g71
NtRp185
(dp186
g74
(dp187
g94
g95
ssg83
g181
sg76
(lp188
S'cid'
p189
asbag69
(g90
g71
NtRp190
(dp191
g74
(dp192
g101
g102
ssg83
g181
sg76
(lp193
S':'
asbag69
(g90
g71
NtRp194
(dp195
g74
(dp196
sg83
g181
sg76
(lp197
g69
(g70
g71
NtRp198
(dp199
g74
(dp200
g82
I5
ssg83
g194
sg76
(lp201
S'None'
p202
asbasbasbag69
(g85
g71
NtRp203
(dp204
g74
(dp205
sg83
g79
sg76
(lp206
g69
(g90
g71
NtRp207
(dp208
g74
(dp209
g94
g95
ssg83
g203
sg76
(lp210
S'client'
p211
asbag69
(g90
g71
NtRp212
(dp213
g74
(dp214
g101
g102
ssg83
g203
sg76
(lp215
S':'
asbag69
(g90
g71
NtRp216
(dp217
g74
(dp218
sg83
g203
sg76
(lp219
g69
(g70
g71
NtRp220
(dp221
g74
(dp222
g82
I5
ssg83
g216
sg76
(lp223
S'127.0.0.1'
p224
asbasbasbag69
(g85
g71
NtRp225
(dp226
g74
(dp227
sg83
g79
sg76
(lp228
g69
(g90
g71
NtRp229
(dp230
g74
(dp231
g94
g95
ssg83
g225
sg76
(lp232
S'controller'
p233
asbag69
(g90
g71
NtRp234
(dp235
g74
(dp236
g101
g102
ssg83
g225
sg76
(lp237
S':'
asbag69
(g90
g71
NtRp238
(dp239
g74
(dp240
sg83
g225
sg76
(lp241
g69
(g70
g71
NtRp242
(dp243
g74
(dp244
g82
I5
ssg83
g238
sg76
(lp245
S'default'
p246
asbasbasbag69
(g85
g71
NtRp247
(dp248
g74
(dp249
sg83
g79
sg76
(lp250
g69
(g90
g71
NtRp251
(dp252
g74
(dp253
g94
g95
ssg83
g247
sg76
(lp254
S'cookies'
p255
asbag69
(g90
g71
NtRp256
(dp257
g74
(dp258
g101
g102
ssg83
g247
sg76
(lp259
S':'
asbag69
(g90
g71
NtRp260
(dp261
g74
(dp262
sg83
g247
sg76
(lp263
g69
(g70
g71
NtRp264
(dp265
g74
(dp266
g82
I5
ssg83
g260
sg76
(lp267
g69
(g78
g71
NtRp268
(dp269
g74
(dp270
g82
I4
ssg83
Nsg76
(lp271
g69
(g85
g71
NtRp272
(dp273
g74
(dp274
sg83
g268
sg76
(lp275
g69
(g90
g71
NtRp276
(dp277
g74
(dp278
g94
g95
ssg83
g272
sg76
(lp279
S'mp_2093ad9ff9c5428a2228386de2f2b0e4_mixpanel'
p280
asbag69
(g90
g71
NtRp281
(dp282
g74
(dp283
g101
g102
ssg83
g272
sg76
(lp284
S':'
asbag69
(g90
g71
NtRp285
(dp286
g74
(dp287
sg83
g272
sg76
(lp288
g69
(g70
g71
NtRp289
(dp290
g74
(dp291
g82
I4
ssg83
g285
sg76
(lp292
S'%7B%22distinct_id%22%3A%20%2262ffc2d0-7b9f-0130-efb0-22000a1cbb2a%22%2C%22is_registered_user%22%3A%20false%2C%22%24initial_referrer%22%3A%20%22%24direct%22%2C%22%24initial_referring_domain%22%3A%20%22%24direct%22%7D'
p293
ag69
(g78
g71
NtRp294
(dp295
g74
(dp296
g82
I3
ssg83
Nsg76
(lp297
g69
(g85
g71
NtRp298
(dp299
g74
(dp300
sg83
g294
sg76
(lp301
g69
(g90
g71
NtRp302
(dp303
g74
(dp304
g94
g95
ssg83
g298
sg76
(lp305
S'comment'
p306
asbag69
(g90
g71
NtRp307
(dp308
g74
(dp309
g101
g102
ssg83
g298
sg76
(lp310
S':'
asbag69
(g90
g71
NtRp311
(dp312
g74
(dp313
sg83
g298
sg76
(lp314
g69
(g70
g71
NtRp315
(dp316
g74
(dp317
g82
I3
ssg83
g311
sg76
(lp318
S''
asbasbasbag69
(g85
g71
NtRp319
(dp320
g74
(dp321
sg83
g294
sg76
(lp322
g69
(g90
g71
NtRp323
(dp324
g74
(dp325
g94
g95
ssg83
g319
sg76
(lp326
S'domain'
p327
asbag69
(g90
g71
NtRp328
(dp329
g74
(dp330
g101
g102
ssg83
g319
sg76
(lp331
S':'
asbag69
(g90
g71
NtRp332
(dp333
g74
(dp334
sg83
g319
sg76
(lp335
g69
(g70
g71
NtRp336
(dp337
g74
(dp338
g82
I3
ssg83
g332
sg76
(lp339
S''
asbasbasbag69
(g85
g71
NtRp340
(dp341
g74
(dp342
sg83
g294
sg76
(lp343
g69
(g90
g71
NtRp344
(dp345
g74
(dp346
g94
g95
ssg83
g340
sg76
(lp347
S'expires'
p348
asbag69
(g90
g71
NtRp349
(dp350
g74
(dp351
g101
g102
ssg83
g340
sg76
(lp352
S':'
asbag69
(g90
g71
NtRp353
(dp354
g74
(dp355
sg83
g340
sg76
(lp356
g69
(g70
g71
NtRp357
(dp358
g74
(dp359
g82
I3
ssg83
g353
sg76
(lp360
S''
asbasbasbag69
(g85
g71
NtRp361
(dp362
g74
(dp363
sg83
g294
sg76
(lp364
g69
(g90
g71
NtRp365
(dp366
g74
(dp367
g94
g95
ssg83
g361
sg76
(lp368
S'httponly'
p369
asbag69
(g90
g71
NtRp370
(dp371
g74
(dp372
g101
g102
ssg83
g361
sg76
(lp373
S':'
asbag69
(g90
g71
NtRp374
(dp375
g74
(dp376
sg83
g361
sg76
(lp377
g69
(g70
g71
NtRp378
(dp379
g74
(dp380
g82
I3
ssg83
g374
sg76
(lp381
S''
asbasbasbag69
(g85
g71
NtRp382
(dp383
g74
(dp384
sg83
g294
sg76
(lp385
g69
(g90
g71
NtRp386
(dp387
g74
(dp388
g94
g95
ssg83
g382
sg76
(lp389
S'max-age'
p390
asbag69
(g90
g71
NtRp391
(dp392
g74
(dp393
g101
g102
ssg83
g382
sg76
(lp394
S':'
asbag69
(g90
g71
NtRp395
(dp396
g74
(dp397
sg83
g382
sg76
(lp398
g69
(g70
g71
NtRp399
(dp400
g74
(dp401
g82
I3
ssg83
g395
sg76
(lp402
S''
asbasbasbag69
(g85
g71
NtRp403
(dp404
g74
(dp405
sg83
g294
sg76
(lp406
g69
(g90
g71
NtRp407
(dp408
g74
(dp409
g94
g95
ssg83
g403
sg76
(lp410
S'path'
p411
asbag69
(g90
g71
NtRp412
(dp413
g74
(dp414
g101
g102
ssg83
g403
sg76
(lp415
S':'
asbag69
(g90
g71
NtRp416
(dp417
g74
(dp418
sg83
g403
sg76
(lp419
g69
(g70
g71
NtRp420
(dp421
g74
(dp422
g82
I3
ssg83
g416
sg76
(lp423
S''
asbasbasbag69
(g85
g71
NtRp424
(dp425
g74
(dp426
sg83
g294
sg76
(lp427
g69
(g90
g71
NtRp428
(dp429
g74
(dp430
g94
g95
ssg83
g424
sg76
(lp431
S'secure'
p432
asbag69
(g90
g71
NtRp433
(dp434
g74
(dp435
g101
g102
ssg83
g424
sg76
(lp436
S':'
asbag69
(g90
g71
NtRp437
(dp438
g74
(dp439
sg83
g424
sg76
(lp440
g69
(g70
g71
NtRp441
(dp442
g74
(dp443
g82
I3
ssg83
g437
sg76
(lp444
S''
asbasbasbag69
(g85
g71
NtRp445
(dp446
g74
(dp447
sg83
g294
sg76
(lp448
g69
(g90
g71
NtRp449
(dp450
g74
(dp451
g94
g95
ssg83
g445
sg76
(lp452
S'version'
p453
asbag69
(g90
g71
NtRp454
(dp455
g74
(dp456
g101
g102
ssg83
g445
sg76
(lp457
S':'
asbag69
(g90
g71
NtRp458
(dp459
g74
(dp460
sg83
g445
sg76
(lp461
g69
(g70
g71
NtRp462
(dp463
g74
(dp464
g82
I3
ssg83
g458
sg76
(lp465
S''
asbasbasbasbasbasbasbag69
(g85
g71
NtRp466
(dp467
g74
(dp468
sg83
g268
sg76
(lp469
g69
(g90
g71
NtRp470
(dp471
g74
(dp472
g94
g95
ssg83
g466
sg76
(lp473
S'session_id_admin'
p474
asbag69
(g90
g71
NtRp475
(dp476
g74
(dp477
g101
g102
ssg83
g466
sg76
(lp478
S':'
asbag69
(g90
g71
NtRp479
(dp480
g74
(dp481
sg83
g466
sg76
(lp482
g69
(g70
g71
NtRp483
(dp484
g74
(dp485
g82
I4
ssg83
g479
sg76
(lp486
S'127.0.0.1-b5d81082-138e-4566-964b-4d233277ad5c'
p487
ag69
(g78
g71
NtRp488
(dp489
g74
(dp490
g82
I3
ssg83
Nsg76
(lp491
g69
(g85
g71
NtRp492
(dp493
g74
(dp494
sg83
g488
sg76
(lp495
g69
(g90
g71
NtRp496
(dp497
g74
(dp498
g94
g95
ssg83
g492
sg76
(lp499
g306
asbag69
(g90
g71
NtRp500
(dp501
g74
(dp502
g101
g102
ssg83
g492
sg76
(lp503
S':'
asbag69
(g90
g71
NtRp504
(dp505
g74
(dp506
sg83
g492
sg76
(lp507
g69
(g70
g71
NtRp508
(dp509
g74
(dp510
g82
I3
ssg83
g504
sg76
(lp511
S''
asbasbasbag69
(g85
g71
NtRp512
(dp513
g74
(dp514
sg83
g488
sg76
(lp515
g69
(g90
g71
NtRp516
(dp517
g74
(dp518
g94
g95
ssg83
g512
sg76
(lp519
g327
asbag69
(g90
g71
NtRp520
(dp521
g74
(dp522
g101
g102
ssg83
g512
sg76
(lp523
S':'
asbag69
(g90
g71
NtRp524
(dp525
g74
(dp526
sg83
g512
sg76
(lp527
g69
(g70
g71
NtRp528
(dp529
g74
(dp530
g82
I3
ssg83
g524
sg76
(lp531
S''
asbasbasbag69
(g85
g71
NtRp532
(dp533
g74
(dp534
sg83
g488
sg76
(lp535
g69
(g90
g71
NtRp536
(dp537
g74
(dp538
g94
g95
ssg83
g532
sg76
(lp539
g348
asbag69
(g90
g71
NtRp540
(dp541
g74
(dp542
g101
g102
ssg83
g532
sg76
(lp543
S':'
asbag69
(g90
g71
NtRp544
(dp545
g74
(dp546
sg83
g532
sg76
(lp547
g69
(g70
g71
NtRp548
(dp549
g74
(dp550
g82
I3
ssg83
g544
sg76
(lp551
S''
asbasbasbag69
(g85
g71
NtRp552
(dp553
g74
(dp554
sg83
g488
sg76
(lp555
g69
(g90
g71
NtRp556
(dp557
g74
(dp558
g94
g95
ssg83
g552
sg76
(lp559
g369
asbag69
(g90
g71
NtRp560
(dp561
g74
(dp562
g101
g102
ssg83
g552
sg76
(lp563
S':'
asbag69
(g90
g71
NtRp564
(dp565
g74
(dp566
sg83
g552
sg76
(lp567
g69
(g70
g71
NtRp568
(dp569
g74
(dp570
g82
I3
ssg83
g564
sg76
(lp571
S''
asbasbasbag69
(g85
g71
NtRp572
(dp573
g74
(dp574
sg83
g488
sg76
(lp575
g69
(g90
g71
NtRp576
(dp577
g74
(dp578
g94
g95
ssg83
g572
sg76
(lp579
g390
asbag69
(g90
g71
NtRp580
(dp581
g74
(dp582
g101
g102
ssg83
g572
sg76
(lp583
S':'
asbag69
(g90
g71
NtRp584
(dp585
g74
(dp586
sg83
g572
sg76
(lp587
g69
(g70
g71
NtRp588
(dp589
g74
(dp590
g82
I3
ssg83
g584
sg76
(lp591
S''
asbasbasbag69
(g85
g71
NtRp592
(dp593
g74
(dp594
sg83
g488
sg76
(lp595
g69
(g90
g71
NtRp596
(dp597
g74
(dp598
g94
g95
ssg83
g592
sg76
(lp599
g411
asbag69
(g90
g71
NtRp600
(dp601
g74
(dp602
g101
g102
ssg83
g592
sg76
(lp603
S':'
asbag69
(g90
g71
NtRp604
(dp605
g74
(dp606
sg83
g592
sg76
(lp607
g69
(g70
g71
NtRp608
(dp609
g74
(dp610
g82
I3
ssg83
g604
sg76
(lp611
S''
asbasbasbag69
(g85
g71
NtRp612
(dp613
g74
(dp614
sg83
g488
sg76
(lp615
g69
(g90
g71
NtRp616
(dp617
g74
(dp618
g94
g95
ssg83
g612
sg76
(lp619
g432
asbag69
(g90
g71
NtRp620
(dp621
g74
(dp622
g101
g102
ssg83
g612
sg76
(lp623
S':'
asbag69
(g90
g71
NtRp624
(dp625
g74
(dp626
sg83
g612
sg76
(lp627
g69
(g70
g71
NtRp628
(dp629
g74
(dp630
g82
I3
ssg83
g624
sg76
(lp631
S''
asbasbasbag69
(g85
g71
NtRp632
(dp633
g74
(dp634
sg83
g488
sg76
(lp635
g69
(g90
g71
NtRp636
(dp637
g74
(dp638
g94
g95
ssg83
g632
sg76
(lp639
g453
asbag69
(g90
g71
NtRp640
(dp641
g74
(dp642
g101
g102
ssg83
g632
sg76
(lp643
S':'
asbag69
(g90
g71
NtRp644
(dp645
g74
(dp646
sg83
g632
sg76
(lp647
g69
(g70
g71
NtRp648
(dp649
g74
(dp650
g82
I3
ssg83
g644
sg76
(lp651
S''
asbasbasbasbasbasbasbag69
(g85
g71
NtRp652
(dp653
g74
(dp654
sg83
g268
sg76
(lp655
g69
(g90
g71
NtRp656
(dp657
g74
(dp658
g94
g95
ssg83
g652
sg76
(lp659
S'session_id_shipra'
p660
asbag69
(g90
g71
NtRp661
(dp662
g74
(dp663
g101
g102
ssg83
g652
sg76
(lp664
S':'
asbag69
(g90
g71
NtRp665
(dp666
g74
(dp667
sg83
g652
sg76
(lp668
g69
(g70
g71
NtRp669
(dp670
g74
(dp671
g82
I4
ssg83
g665
sg76
(lp672
S'127.0.0.1-8efdbcdb-aaef-4416-8653-cc0a67656b30'
p673
ag69
(g78
g71
NtRp674
(dp675
g74
(dp676
g82
I3
ssg83
Nsg76
(lp677
g69
(g85
g71
NtRp678
(dp679
g74
(dp680
sg83
g674
sg76
(lp681
g69
(g90
g71
NtRp682
(dp683
g74
(dp684
g94
g95
ssg83
g678
sg76
(lp685
g306
asbag69
(g90
g71
NtRp686
(dp687
g74
(dp688
g101
g102
ssg83
g678
sg76
(lp689
S':'
asbag69
(g90
g71
NtRp690
(dp691
g74
(dp692
sg83
g678
sg76
(lp693
g69
(g70
g71
NtRp694
(dp695
g74
(dp696
g82
I3
ssg83
g690
sg76
(lp697
S''
asbasbasbag69
(g85
g71
NtRp698
(dp699
g74
(dp700
sg83
g674
sg76
(lp701
g69
(g90
g71
NtRp702
(dp703
g74
(dp704
g94
g95
ssg83
g698
sg76
(lp705
g327
asbag69
(g90
g71
NtRp706
(dp707
g74
(dp708
g101
g102
ssg83
g698
sg76
(lp709
S':'
asbag69
(g90
g71
NtRp710
(dp711
g74
(dp712
sg83
g698
sg76
(lp713
g69
(g70
g71
NtRp714
(dp715
g74
(dp716
g82
I3
ssg83
g710
sg76
(lp717
S''
asbasbasbag69
(g85
g71
NtRp718
(dp719
g74
(dp720
sg83
g674
sg76
(lp721
g69
(g90
g71
NtRp722
(dp723
g74
(dp724
g94
g95
ssg83
g718
sg76
(lp725
g348
asbag69
(g90
g71
NtRp726
(dp727
g74
(dp728
g101
g102
ssg83
g718
sg76
(lp729
S':'
asbag69
(g90
g71
NtRp730
(dp731
g74
(dp732
sg83
g718
sg76
(lp733
g69
(g70
g71
NtRp734
(dp735
g74
(dp736
g82
I3
ssg83
g730
sg76
(lp737
S''
asbasbasbag69
(g85
g71
NtRp738
(dp739
g74
(dp740
sg83
g674
sg76
(lp741
g69
(g90
g71
NtRp742
(dp743
g74
(dp744
g94
g95
ssg83
g738
sg76
(lp745
g369
asbag69
(g90
g71
NtRp746
(dp747
g74
(dp748
g101
g102
ssg83
g738
sg76
(lp749
S':'
asbag69
(g90
g71
NtRp750
(dp751
g74
(dp752
sg83
g738
sg76
(lp753
g69
(g70
g71
NtRp754
(dp755
g74
(dp756
g82
I3
ssg83
g750
sg76
(lp757
S''
asbasbasbag69
(g85
g71
NtRp758
(dp759
g74
(dp760
sg83
g674
sg76
(lp761
g69
(g90
g71
NtRp762
(dp763
g74
(dp764
g94
g95
ssg83
g758
sg76
(lp765
g390
asbag69
(g90
g71
NtRp766
(dp767
g74
(dp768
g101
g102
ssg83
g758
sg76
(lp769
S':'
asbag69
(g90
g71
NtRp770
(dp771
g74
(dp772
sg83
g758
sg76
(lp773
g69
(g70
g71
NtRp774
(dp775
g74
(dp776
g82
I3
ssg83
g770
sg76
(lp777
S''
asbasbasbag69
(g85
g71
NtRp778
(dp779
g74
(dp780
sg83
g674
sg76
(lp781
g69
(g90
g71
NtRp782
(dp783
g74
(dp784
g94
g95
ssg83
g778
sg76
(lp785
g411
asbag69
(g90
g71
NtRp786
(dp787
g74
(dp788
g101
g102
ssg83
g778
sg76
(lp789
S':'
asbag69
(g90
g71
NtRp790
(dp791
g74
(dp792
sg83
g778
sg76
(lp793
g69
(g70
g71
NtRp794
(dp795
g74
(dp796
g82
I3
ssg83
g790
sg76
(lp797
S''
asbasbasbag69
(g85
g71
NtRp798
(dp799
g74
(dp800
sg83
g674
sg76
(lp801
g69
(g90
g71
NtRp802
(dp803
g74
(dp804
g94
g95
ssg83
g798
sg76
(lp805
g432
asbag69
(g90
g71
NtRp806
(dp807
g74
(dp808
g101
g102
ssg83
g798
sg76
(lp809
S':'
asbag69
(g90
g71
NtRp810
(dp811
g74
(dp812
sg83
g798
sg76
(lp813
g69
(g70
g71
NtRp814
(dp815
g74
(dp816
g82
I3
ssg83
g810
sg76
(lp817
S''
asbasbasbag69
(g85
g71
NtRp818
(dp819
g74
(dp820
sg83
g674
sg76
(lp821
g69
(g90
g71
NtRp822
(dp823
g74
(dp824
g94
g95
ssg83
g818
sg76
(lp825
g453
asbag69
(g90
g71
NtRp826
(dp827
g74
(dp828
g101
g102
ssg83
g818
sg76
(lp829
S':'
asbag69
(g90
g71
NtRp830
(dp831
g74
(dp832
sg83
g818
sg76
(lp833
g69
(g70
g71
NtRp834
(dp835
g74
(dp836
g82
I3
ssg83
g830
sg76
(lp837
S''
asbasbasbasbasbasbasbag69
(g85
g71
NtRp838
(dp839
g74
(dp840
sg83
g268
sg76
(lp841
g69
(g90
g71
NtRp842
(dp843
g74
(dp844
g94
g95
ssg83
g838
sg76
(lp845
S'session_id_welcome'
p846
asbag69
(g90
g71
NtRp847
(dp848
g74
(dp849
g101
g102
ssg83
g838
sg76
(lp850
S':'
asbag69
(g90
g71
NtRp851
(dp852
g74
(dp853
sg83
g838
sg76
(lp854
g69
(g70
g71
NtRp855
(dp856
g74
(dp857
g82
I4
ssg83
g851
sg76
(lp858
S'127.0.0.1-41be33b1-dd8c-404d-8f96-d12464bccb42'
p859
ag69
(g78
g71
NtRp860
(dp861
g74
(dp862
g82
I3
ssg83
Nsg76
(lp863
g69
(g85
g71
NtRp864
(dp865
g74
(dp866
sg83
g860
sg76
(lp867
g69
(g90
g71
NtRp868
(dp869
g74
(dp870
g94
g95
ssg83
g864
sg76
(lp871
g306
asbag69
(g90
g71
NtRp872
(dp873
g74
(dp874
g101
g102
ssg83
g864
sg76
(lp875
S':'
asbag69
(g90
g71
NtRp876
(dp877
g74
(dp878
sg83
g864
sg76
(lp879
g69
(g70
g71
NtRp880
(dp881
g74
(dp882
g82
I3
ssg83
g876
sg76
(lp883
S''
asbasbasbag69
(g85
g71
NtRp884
(dp885
g74
(dp886
sg83
g860
sg76
(lp887
g69
(g90
g71
NtRp888
(dp889
g74
(dp890
g94
g95
ssg83
g884
sg76
(lp891
g327
asbag69
(g90
g71
NtRp892
(dp893
g74
(dp894
g101
g102
ssg83
g884
sg76
(lp895
S':'
asbag69
(g90
g71
NtRp896
(dp897
g74
(dp898
sg83
g884
sg76
(lp899
g69
(g70
g71
NtRp900
(dp901
g74
(dp902
g82
I3
ssg83
g896
sg76
(lp903
S''
asbasbasbag69
(g85
g71
NtRp904
(dp905
g74
(dp906
sg83
g860
sg76
(lp907
g69
(g90
g71
NtRp908
(dp909
g74
(dp910
g94
g95
ssg83
g904
sg76
(lp911
g348
asbag69
(g90
g71
NtRp912
(dp913
g74
(dp914
g101
g102
ssg83
g904
sg76
(lp915
S':'
asbag69
(g90
g71
NtRp916
(dp917
g74
(dp918
sg83
g904
sg76
(lp919
g69
(g70
g71
NtRp920
(dp921
g74
(dp922
g82
I3
ssg83
g916
sg76
(lp923
S''
asbasbasbag69
(g85
g71
NtRp924
(dp925
g74
(dp926
sg83
g860
sg76
(lp927
g69
(g90
g71
NtRp928
(dp929
g74
(dp930
g94
g95
ssg83
g924
sg76
(lp931
g369
asbag69
(g90
g71
NtRp932
(dp933
g74
(dp934
g101
g102
ssg83
g924
sg76
(lp935
S':'
asbag69
(g90
g71
NtRp936
(dp937
g74
(dp938
sg83
g924
sg76
(lp939
g69
(g70
g71
NtRp940
(dp941
g74
(dp942
g82
I3
ssg83
g936
sg76
(lp943
S''
asbasbasbag69
(g85
g71
NtRp944
(dp945
g74
(dp946
sg83
g860
sg76
(lp947
g69
(g90
g71
NtRp948
(dp949
g74
(dp950
g94
g95
ssg83
g944
sg76
(lp951
g390
asbag69
(g90
g71
NtRp952
(dp953
g74
(dp954
g101
g102
ssg83
g944
sg76
(lp955
S':'
asbag69
(g90
g71
NtRp956
(dp957
g74
(dp958
sg83
g944
sg76
(lp959
g69
(g70
g71
NtRp960
(dp961
g74
(dp962
g82
I3
ssg83
g956
sg76
(lp963
S''
asbasbasbag69
(g85
g71
NtRp964
(dp965
g74
(dp966
sg83
g860
sg76
(lp967
g69
(g90
g71
NtRp968
(dp969
g74
(dp970
g94
g95
ssg83
g964
sg76
(lp971
g411
asbag69
(g90
g71
NtRp972
(dp973
g74
(dp974
g101
g102
ssg83
g964
sg76
(lp975
S':'
asbag69
(g90
g71
NtRp976
(dp977
g74
(dp978
sg83
g964
sg76
(lp979
g69
(g70
g71
NtRp980
(dp981
g74
(dp982
g82
I3
ssg83
g976
sg76
(lp983
S''
asbasbasbag69
(g85
g71
NtRp984
(dp985
g74
(dp986
sg83
g860
sg76
(lp987
g69
(g90
g71
NtRp988
(dp989
g74
(dp990
g94
g95
ssg83
g984
sg76
(lp991
g432
asbag69
(g90
g71
NtRp992
(dp993
g74
(dp994
g101
g102
ssg83
g984
sg76
(lp995
S':'
asbag69
(g90
g71
NtRp996
(dp997
g74
(dp998
sg83
g984
sg76
(lp999
g69
(g70
g71
NtRp1000
(dp1001
g74
(dp1002
g82
I3
ssg83
g996
sg76
(lp1003
S''
asbasbasbag69
(g85
g71
NtRp1004
(dp1005
g74
(dp1006
sg83
g860
sg76
(lp1007
g69
(g90
g71
NtRp1008
(dp1009
g74
(dp1010
g94
g95
ssg83
g1004
sg76
(lp1011
g453
asbag69
(g90
g71
NtRp1012
(dp1013
g74
(dp1014
g101
g102
ssg83
g1004
sg76
(lp1015
S':'
asbag69
(g90
g71
NtRp1016
(dp1017
g74
(dp1018
sg83
g1004
sg76
(lp1019
g69
(g70
g71
NtRp1020
(dp1021
g74
(dp1022
g82
I3
ssg83
g1016
sg76
(lp1023
S''
asbasbasbasbasbasbasbasbasbasbasbag69
(g85
g71
NtRp1024
(dp1025
g74
(dp1026
sg83
g79
sg76
(lp1027
g69
(g90
g71
NtRp1028
(dp1029
g74
(dp1030
g94
g95
ssg83
g1024
sg76
(lp1031
S'env'
p1032
asbag69
(g90
g71
NtRp1033
(dp1034
g74
(dp1035
g101
g102
ssg83
g1024
sg76
(lp1036
S':'
asbag69
(g90
g71
NtRp1037
(dp1038
g74
(dp1039
sg83
g1024
sg76
(lp1040
g69
(g70
g71
NtRp1041
(dp1042
g74
(dp1043
g82
I5
ssg83
g1037
sg76
(lp1044
g69
(g78
g71
NtRp1045
(dp1046
g74
(dp1047
g82
I4
ssg83
Nsg76
(lp1048
g69
(g85
g71
NtRp1049
(dp1050
g74
(dp1051
sg83
g1045
sg76
(lp1052
g69
(g90
g71
NtRp1053
(dp1054
g74
(dp1055
g94
g95
ssg83
g1049
sg76
(lp1056
S'app_folders'
p1057
asbag69
(g90
g71
NtRp1058
(dp1059
g74
(dp1060
g101
g102
ssg83
g1049
sg76
(lp1061
S':'
asbag69
(g90
g71
NtRp1062
(dp1063
g74
(dp1064
sg83
g1049
sg76
(lp1065
g69
(g70
g71
NtRp1066
(dp1067
g74
(dp1068
g82
I4
ssg83
g1062
sg76
(lp1069
S"set(['/home/shipra/Desktop/Semester 1.2/ITWS-2/web2py/applications/shipra/', '/home/shipra/Desktop/Semester 1.2/ITWS-2/web2py/applications/welcome/', '/home/shipra/Desktop/Semester 1.2/ITWS-2/web2py/applications/admin/'])"
p1070
asbasbasbag69
(g85
g71
NtRp1071
(dp1072
g74
(dp1073
sg83
g1045
sg76
(lp1074
g69
(g90
g71
NtRp1075
(dp1076
g74
(dp1077
g94
g95
ssg83
g1071
sg76
(lp1078
S'applications_parent'
p1079
asbag69
(g90
g71
NtRp1080
(dp1081
g74
(dp1082
g101
g102
ssg83
g1071
sg76
(lp1083
S':'
asbag69
(g90
g71
NtRp1084
(dp1085
g74
(dp1086
sg83
g1071
sg76
(lp1087
g69
(g70
g71
NtRp1088
(dp1089
g74
(dp1090
g82
I4
ssg83
g1084
sg76
(lp1091
S'/home/shipra/Desktop/Semester 1.2/ITWS-2/web2py'
p1092
asbasbasbag69
(g85
g71
NtRp1093
(dp1094
g74
(dp1095
sg83
g1045
sg76
(lp1096
g69
(g90
g71
NtRp1097
(dp1098
g74
(dp1099
g94
g95
ssg83
g1093
sg76
(lp1100
S'cmd_args'
p1101
asbag69
(g90
g71
NtRp1102
(dp1103
g74
(dp1104
g101
g102
ssg83
g1093
sg76
(lp1105
S':'
asbag69
(g90
g71
NtRp1106
(dp1107
g74
(dp1108
sg83
g1093
sg76
(lp1109
g69
(g70
g71
NtRp1110
(dp1111
g74
(dp1112
g82
I4
ssg83
g1106
sg76
(lp1113
g69
(g78
g71
NtRp1114
(dp1115
g74
(dp1116
g82
I3
ssg83
Nsg76
(lp1117
sbasbasbasbag69
(g85
g71
NtRp1118
(dp1119
g74
(dp1120
sg83
g1045
sg76
(lp1121
g69
(g90
g71
NtRp1122
(dp1123
g74
(dp1124
g94
g95
ssg83
g1118
sg76
(lp1125
S'cmd_options'
p1126
asbag69
(g90
g71
NtRp1127
(dp1128
g74
(dp1129
g101
g102
ssg83
g1118
sg76
(lp1130
S':'
asbag69
(g90
g71
NtRp1131
(dp1132
g74
(dp1133
sg83
g1118
sg76
(lp1134
g69
(g70
g71
NtRp1135
(dp1136
g74
(dp1137
g82
I4
ssg83
g1131
sg76
(lp1138
S"<Values at 0x2963248: {'verbose': False, 'ip': '127.0.0.1', 'with_scheduler': False, 'ips': ['10.42.0.99'], 'shutdown_timeout': 5, 'taskbar': False, 'port': 8000, 'maxthreads': None, 'softcron': False, 'server_name': 'shipra', 'bpython': False, 'nogui': False, 'pid_filename': 'httpserver.pid', 'extcron': False, 'runcron': False, 'run_system_tests': False, 'test': None, 'folder': '/home/shipra/Desktop/Semester 1.2/ITWS-2/web2py', 'config': '', 'minthreads': None, 'winservice': '', 'shell': None, 'run': '', 'log_filename': 'httpserver.log', 'debuglevel': 30, 'args': [''], 'socket_timeout': 5, 'ssl_ca_certificate': None, 'scheduler': None, 'profiler_filename': None, 'ssl_private_key': '', 'scheduler_groups': None, 'password': '<ask>', 'request_queue_size': 5, 'ssl_certificate': '', 'cronjob': False, 'numthreads': None, 'quiet': False, 'interfaces': None, 'import_models': False, 'timeout': 10, 'plain': False, 'nobanner': False}>"
p1139
asbasbasbag69
(g85
g71
NtRp1140
(dp1141
g74
(dp1142
sg83
g1045
sg76
(lp1143
g69
(g90
g71
NtRp1144
(dp1145
g74
(dp1146
g94
g95
ssg83
g1140
sg76
(lp1147
S'db_sessions'
p1148
asbag69
(g90
g71
NtRp1149
(dp1150
g74
(dp1151
g101
g102
ssg83
g1140
sg76
(lp1152
S':'
asbag69
(g90
g71
NtRp1153
(dp1154
g74
(dp1155
sg83
g1140
sg76
(lp1156
g69
(g70
g71
NtRp1157
(dp1158
g74
(dp1159
g82
I4
ssg83
g1153
sg76
(lp1160
S'set([])'
p1161
asbasbasbag69
(g85
g71
NtRp1162
(dp1163
g74
(dp1164
sg83
g1045
sg76
(lp1165
g69
(g90
g71
NtRp1166
(dp1167
g74
(dp1168
g94
g95
ssg83
g1162
sg76
(lp1169
S'debugging'
p1170
asbag69
(g90
g71
NtRp1171
(dp1172
g74
(dp1173
g101
g102
ssg83
g1162
sg76
(lp1174
S':'
asbag69
(g90
g71
NtRp1175
(dp1176
g74
(dp1177
sg83
g1162
sg76
(lp1178
g69
(g70
g71
NtRp1179
(dp1180
g74
(dp1181
g82
I4
ssg83
g1175
sg76
(lp1182
g112
asbasbasbag69
(g85
g71
NtRp1183
(dp1184
g74
(dp1185
sg83
g1045
sg76
(lp1186
g69
(g90
g71
NtRp1187
(dp1188
g74
(dp1189
g94
g95
ssg83
g1183
sg76
(lp1190
S'gluon_parent'
p1191
asbag69
(g90
g71
NtRp1192
(dp1193
g74
(dp1194
g101
g102
ssg83
g1183
sg76
(lp1195
S':'
asbag69
(g90
g71
NtRp1196
(dp1197
g74
(dp1198
sg83
g1183
sg76
(lp1199
g69
(g70
g71
NtRp1200
(dp1201
g74
(dp1202
g82
I4
ssg83
g1196
sg76
(lp1203
S'/home/shipra/Desktop/Semester 1.2/ITWS-2/web2py'
p1204
asbasbasbag69
(g85
g71
NtRp1205
(dp1206
g74
(dp1207
sg83
g1045
sg76
(lp1208
g69
(g90
g71
NtRp1209
(dp1210
g74
(dp1211
g94
g95
ssg83
g1205
sg76
(lp1212
S'http_accept'
p1213
asbag69
(g90
g71
NtRp1214
(dp1215
g74
(dp1216
g101
g102
ssg83
g1205
sg76
(lp1217
S':'
asbag69
(g90
g71
NtRp1218
(dp1219
g74
(dp1220
sg83
g1205
sg76
(lp1221
g69
(g70
g71
NtRp1222
(dp1223
g74
(dp1224
g82
I4
ssg83
g1218
sg76
(lp1225
S'text/html,application/xhtml+xml,application/xml;q=0.9,*/*;q=0.8'
p1226
asbasbasbag69
(g85
g71
NtRp1227
(dp1228
g74
(dp1229
sg83
g1045
sg76
(lp1230
g69
(g90
g71
NtRp1231
(dp1232
g74
(dp1233
g94
g95
ssg83
g1227
sg76
(lp1234
S'http_accept_encoding'
p1235
asbag69
(g90
g71
NtRp1236
(dp1237
g74
(dp1238
g101
g102
ssg83
g1227
sg76
(lp1239
S':'
asbag69
(g90
g71
NtRp1240
(dp1241
g74
(dp1242
sg83
g1227
sg76
(lp1243
g69
(g70
g71
NtRp1244
(dp1245
g74
(dp1246
g82
I4
ssg83
g1240
sg76
(lp1247
S'gzip, deflate'
p1248
asbasbasbag69
(g85
g71
NtRp1249
(dp1250
g74
(dp1251
sg83
g1045
sg76
(lp1252
g69
(g90
g71
NtRp1253
(dp1254
g74
(dp1255
g94
g95
ssg83
g1249
sg76
(lp1256
S'http_accept_language'
p1257
asbag69
(g90
g71
NtRp1258
(dp1259
g74
(dp1260
g101
g102
ssg83
g1249
sg76
(lp1261
S':'
asbag69
(g90
g71
NtRp1262
(dp1263
g74
(dp1264
sg83
g1249
sg76
(lp1265
g69
(g70
g71
NtRp1266
(dp1267
g74
(dp1268
g82
I4
ssg83
g1262
sg76
(lp1269
S'en-us,en;q=0.5'
p1270
asbasbasbag69
(g85
g71
NtRp1271
(dp1272
g74
(dp1273
sg83
g1045
sg76
(lp1274
g69
(g90
g71
NtRp1275
(dp1276
g74
(dp1277
g94
g95
ssg83
g1271
sg76
(lp1278
S'http_connection'
p1279
asbag69
(g90
g71
NtRp1280
(dp1281
g74
(dp1282
g101
g102
ssg83
g1271
sg76
(lp1283
S':'
asbag69
(g90
g71
NtRp1284
(dp1285
g74
(dp1286
sg83
g1271
sg76
(lp1287
g69
(g70
g71
NtRp1288
(dp1289
g74
(dp1290
g82
I4
ssg83
g1284
sg76
(lp1291
S'keep-alive'
p1292
asbasbasbag69
(g85
g71
NtRp1293
(dp1294
g74
(dp1295
sg83
g1045
sg76
(lp1296
g69
(g90
g71
NtRp1297
(dp1298
g74
(dp1299
g94
g95
ssg83
g1293
sg76
(lp1300
S'http_cookie'
p1301
asbag69
(g90
g71
NtRp1302
(dp1303
g74
(dp1304
g101
g102
ssg83
g1293
sg76
(lp1305
S':'
asbag69
(g90
g71
NtRp1306
(dp1307
g74
(dp1308
sg83
g1293
sg76
(lp1309
g69
(g70
g71
NtRp1310
(dp1311
g74
(dp1312
g82
I4
ssg83
g1306
sg76
(lp1313
S'__utma=96992031.1334412862.1364672878.1364672878.1364718243.2; __utmz=96992031.1364672878.1.1.utmcsr=(direct)|utmccn=(direct)|utmcmd=(none); __lc.visitor_id.1195381=S1364672235.4faffcf2d2; __ar_v4=OWHSPOGHTNEIPPPBMHVFTA%3A20130329%3A12%7CAMEDRHI4VZG4TIA2AZ565D%3A20130329%3A12%7CWAEQXC4B2NH3DDBR3TZM6I%3A20130329%3A12; mp_2093ad9ff9c5428a2228386de2f2b0e4_mixpanel=%7B%22distinct_id%22%3A%20%2262ffc2d0-7b9f-0130-efb0-22000a1cbb2a%22%2C%22is_registered_user%22%3A%20false%2C%22%24initial_referrer%22%3A%20%22%24direct%22%2C%22%24initial_referring_domain%22%3A%20%22%24direct%22%7D; session_id_welcome=127.0.0.1-41be33b1-dd8c-404d-8f96-d12464bccb42; session_id_shipra=127.0.0.1-8efdbcdb-aaef-4416-8653-cc0a67656b30; session_id_admin=127.0.0.1-b5d81082-138e-4566-964b-4d233277ad5c'
p1314
asbasbasbag69
(g85
g71
NtRp1315
(dp1316
g74
(dp1317
sg83
g1045
sg76
(lp1318
g69
(g90
g71
NtRp1319
(dp1320
g74
(dp1321
g94
g95
ssg83
g1315
sg76
(lp1322
S'http_host'
p1323
asbag69
(g90
g71
NtRp1324
(dp1325
g74
(dp1326
g101
g102
ssg83
g1315
sg76
(lp1327
S':'
asbag69
(g90
g71
NtRp1328
(dp1329
g74
(dp1330
sg83
g1315
sg76
(lp1331
g69
(g70
g71
NtRp1332
(dp1333
g74
(dp1334
g82
I4
ssg83
g1328
sg76
(lp1335
S'127.0.0.1:8000'
p1336
asbasbasbag69
(g85
g71
NtRp1337
(dp1338
g74
(dp1339
sg83
g1045
sg76
(lp1340
g69
(g90
g71
NtRp1341
(dp1342
g74
(dp1343
g94
g95
ssg83
g1337
sg76
(lp1344
S'http_user_agent'
p1345
asbag69
(g90
g71
NtRp1346
(dp1347
g74
(dp1348
g101
g102
ssg83
g1337
sg76
(lp1349
S':'
asbag69
(g90
g71
NtRp1350
(dp1351
g74
(dp1352
sg83
g1337
sg76
(lp1353
g69
(g70
g71
NtRp1354
(dp1355
g74
(dp1356
g82
I4
ssg83
g1350
sg76
(lp1357
S'Mozilla/5.0 (X11; Linux x86_64; rv:12.0) Gecko/20100101 Firefox/12.0'
p1358
asbasbasbag69
(g85
g71
NtRp1359
(dp1360
g74
(dp1361
sg83
g1045
sg76
(lp1362
g69
(g90
g71
NtRp1363
(dp1364
g74
(dp1365
g94
g95
ssg83
g1359
sg76
(lp1366
S'is_jython'
p1367
asbag69
(g90
g71
NtRp1368
(dp1369
g74
(dp1370
g101
g102
ssg83
g1359
sg76
(lp1371
S':'
asbag69
(g90
g71
NtRp1372
(dp1373
g74
(dp1374
sg83
g1359
sg76
(lp1375
g69
(g70
g71
NtRp1376
(dp1377
g74
(dp1378
g82
I4
ssg83
g1372
sg76
(lp1379
g112
asbasbasbag69
(g85
g71
NtRp1380
(dp1381
g74
(dp1382
sg83
g1045
sg76
(lp1383
g69
(g90
g71
NtRp1384
(dp1385
g74
(dp1386
g94
g95
ssg83
g1380
sg76
(lp1387
S'is_pypy'
p1388
asbag69
(g90
g71
NtRp1389
(dp1390
g74
(dp1391
g101
g102
ssg83
g1380
sg76
(lp1392
S':'
asbag69
(g90
g71
NtRp1393
(dp1394
g74
(dp1395
sg83
g1380
sg76
(lp1396
g69
(g70
g71
NtRp1397
(dp1398
g74
(dp1399
g82
I4
ssg83
g1393
sg76
(lp1400
g112
asbasbasbag69
(g85
g71
NtRp1401
(dp1402
g74
(dp1403
sg83
g1045
sg76
(lp1404
g69
(g90
g71
NtRp1405
(dp1406
g74
(dp1407
g94
g95
ssg83
g1401
sg76
(lp1408
S'local_hosts'
p1409
asbag69
(g90
g71
NtRp1410
(dp1411
g74
(dp1412
g101
g102
ssg83
g1401
sg76
(lp1413
S':'
asbag69
(g90
g71
NtRp1414
(dp1415
g74
(dp1416
sg83
g1401
sg76
(lp1417
g69
(g70
g71
NtRp1418
(dp1419
g74
(dp1420
g82
I4
ssg83
g1414
sg76
(lp1421
g69
(g78
g71
NtRp1422
(dp1423
g74
(dp1424
g82
I3
ssg83
Nsg76
(lp1425
g69
(g85
g71
NtRp1426
(dp1427
g74
(dp1428
sg83
g1422
sg76
(lp1429
g69
(g90
g71
NtRp1430
(dp1431
g74
(dp1432
sg83
g1426
sg76
(lp1433
g69
(g70
g71
NtRp1434
(dp1435
g74
(dp1436
g82
I3
ssg83
g1430
sg76
(lp1437
S'::1'
p1438
asbasbasbag69
(g85
g71
NtRp1439
(dp1440
g74
(dp1441
sg83
g1422
sg76
(lp1442
g69
(g90
g71
NtRp1443
(dp1444
g74
(dp1445
sg83
g1439
sg76
(lp1446
g69
(g70
g71
NtRp1447
(dp1448
g74
(dp1449
g82
I3
ssg83
g1443
sg76
(lp1450
S'10.42.0.99'
p1451
asbasbasbag69
(g85
g71
NtRp1452
(dp1453
g74
(dp1454
sg83
g1422
sg76
(lp1455
g69
(g90
g71
NtRp1456
(dp1457
g74
(dp1458
sg83
g1452
sg76
(lp1459
g69
(g70
g71
NtRp1460
(dp1461
g74
(dp1462
g82
I3
ssg83
g1456
sg76
(lp1463
S'::ffff:127.0.0.1'
p1464
asbasbasbag69
(g85
g71
NtRp1465
(dp1466
g74
(dp1467
sg83
g1422
sg76
(lp1468
g69
(g90
g71
NtRp1469
(dp1470
g74
(dp1471
sg83
g1465
sg76
(lp1472
g69
(g70
g71
NtRp1473
(dp1474
g74
(dp1475
g82
I3
ssg83
g1469
sg76
(lp1476
S'127.0.0.1'
p1477
asbasbasbag69
(g85
g71
NtRp1478
(dp1479
g74
(dp1480
sg83
g1422
sg76
(lp1481
g69
(g90
g71
NtRp1482
(dp1483
g74
(dp1484
sg83
g1478
sg76
(lp1485
g69
(g70
g71
NtRp1486
(dp1487
g74
(dp1488
g82
I3
ssg83
g1482
sg76
(lp1489
S'shipra'
p1490
asbasbasbasbasbasbasbag69
(g85
g71
NtRp1491
(dp1492
g74
(dp1493
sg83
g1045
sg76
(lp1494
g69
(g90
g71
NtRp1495
(dp1496
g74
(dp1497
g94
g95
ssg83
g1491
sg76
(lp1498
S'path_info'
p1499
asbag69
(g90
g71
NtRp1500
(dp1501
g74
(dp1502
g101
g102
ssg83
g1491
sg76
(lp1503
S':'
asbag69
(g90
g71
NtRp1504
(dp1505
g74
(dp1506
sg83
g1491
sg76
(lp1507
g69
(g70
g71
NtRp1508
(dp1509
g74
(dp1510
g82
I4
ssg83
g1504
sg76
(lp1511
S'/shipra/default/input'
p1512
asbasbasbag69
(g85
g71
NtRp1513
(dp1514
g74
(dp1515
sg83
g1045
sg76
(lp1516
g69
(g90
g71
NtRp1517
(dp1518
g74
(dp1519
g94
g95
ssg83
g1513
sg76
(lp1520
S'query_string'
p1521
asbag69
(g90
g71
NtRp1522
(dp1523
g74
(dp1524
g101
g102
ssg83
g1513
sg76
(lp1525
S':'
asbag69
(g90
g71
NtRp1526
(dp1527
g74
(dp1528
sg83
g1513
sg76
(lp1529
g69
(g70
g71
NtRp1530
(dp1531
g74
(dp1532
g82
I4
ssg83
g1526
sg76
(lp1533
S''
asbasbasbag69
(g85
g71
NtRp1534
(dp1535
g74
(dp1536
sg83
g1045
sg76
(lp1537
g69
(g90
g71
NtRp1538
(dp1539
g74
(dp1540
g94
g95
ssg83
g1534
sg76
(lp1541
S'remote_addr'
p1542
asbag69
(g90
g71
NtRp1543
(dp1544
g74
(dp1545
g101
g102
ssg83
g1534
sg76
(lp1546
S':'
asbag69
(g90
g71
NtRp1547
(dp1548
g74
(dp1549
sg83
g1534
sg76
(lp1550
g69
(g70
g71
NtRp1551
(dp1552
g74
(dp1553
g82
I4
ssg83
g1547
sg76
(lp1554
g224
asbasbasbag69
(g85
g71
NtRp1555
(dp1556
g74
(dp1557
sg83
g1045
sg76
(lp1558
g69
(g90
g71
NtRp1559
(dp1560
g74
(dp1561
g94
g95
ssg83
g1555
sg76
(lp1562
S'remote_port'
p1563
asbag69
(g90
g71
NtRp1564
(dp1565
g74
(dp1566
g101
g102
ssg83
g1555
sg76
(lp1567
S':'
asbag69
(g90
g71
NtRp1568
(dp1569
g74
(dp1570
sg83
g1555
sg76
(lp1571
g69
(g70
g71
NtRp1572
(dp1573
g74
(dp1574
g82
I4
ssg83
g1568
sg76
(lp1575
S'37697'
p1576
asbasbasbag69
(g85
g71
NtRp1577
(dp1578
g74
(dp1579
sg83
g1045
sg76
(lp1580
g69
(g90
g71
NtRp1581
(dp1582
g74
(dp1583
g94
g95
ssg83
g1577
sg76
(lp1584
S'request_method'
p1585
asbag69
(g90
g71
NtRp1586
(dp1587
g74
(dp1588
g101
g102
ssg83
g1577
sg76
(lp1589
S':'
asbag69
(g90
g71
NtRp1590
(dp1591
g74
(dp1592
sg83
g1577
sg76
(lp1593
g69
(g70
g71
NtRp1594
(dp1595
g74
(dp1596
g82
I4
ssg83
g1590
sg76
(lp1597
S'GET'
p1598
asbasbasbag69
(g85
g71
NtRp1599
(dp1600
g74
(dp1601
sg83
g1045
sg76
(lp1602
g69
(g90
g71
NtRp1603
(dp1604
g74
(dp1605
g94
g95
ssg83
g1599
sg76
(lp1606
S'request_uri'
p1607
asbag69
(g90
g71
NtRp1608
(dp1609
g74
(dp1610
g101
g102
ssg83
g1599
sg76
(lp1611
S':'
asbag69
(g90
g71
NtRp1612
(dp1613
g74
(dp1614
sg83
g1599
sg76
(lp1615
g69
(g70
g71
NtRp1616
(dp1617
g74
(dp1618
g82
I4
ssg83
g1612
sg76
(lp1619
g1512
asbasbasbag69
(g85
g71
NtRp1620
(dp1621
g74
(dp1622
sg83
g1045
sg76
(lp1623
g69
(g90
g71
NtRp1624
(dp1625
g74
(dp1626
g94
g95
ssg83
g1620
sg76
(lp1627
S'script_name'
p1628
asbag69
(g90
g71
NtRp1629
(dp1630
g74
(dp1631
g101
g102
ssg83
g1620
sg76
(lp1632
S':'
asbag69
(g90
g71
NtRp1633
(dp1634
g74
(dp1635
sg83
g1620
sg76
(lp1636
g69
(g70
g71
NtRp1637
(dp1638
g74
(dp1639
g82
I4
ssg83
g1633
sg76
(lp1640
S''
asbasbasbag69
(g85
g71
NtRp1641
(dp1642
g74
(dp1643
sg83
g1045
sg76
(lp1644
g69
(g90
g71
NtRp1645
(dp1646
g74
(dp1647
g94
g95
ssg83
g1641
sg76
(lp1648
S'server_name'
p1649
asbag69
(g90
g71
NtRp1650
(dp1651
g74
(dp1652
g101
g102
ssg83
g1641
sg76
(lp1653
S':'
asbag69
(g90
g71
NtRp1654
(dp1655
g74
(dp1656
sg83
g1641
sg76
(lp1657
g69
(g70
g71
NtRp1658
(dp1659
g74
(dp1660
g82
I4
ssg83
g1654
sg76
(lp1661
S'shipra'
p1662
asbasbasbag69
(g85
g71
NtRp1663
(dp1664
g74
(dp1665
sg83
g1045
sg76
(lp1666
g69
(g90
g71
NtRp1667
(dp1668
g74
(dp1669
g94
g95
ssg83
g1663
sg76
(lp1670
S'server_port'
p1671
asbag69
(g90
g71
NtRp1672
(dp1673
g74
(dp1674
g101
g102
ssg83
g1663
sg76
(lp1675
S':'
asbag69
(g90
g71
NtRp1676
(dp1677
g74
(dp1678
sg83
g1663
sg76
(lp1679
g69
(g70
g71
NtRp1680
(dp1681
g74
(dp1682
g82
I4
ssg83
g1676
sg76
(lp1683
S'8000'
p1684
asbasbasbag69
(g85
g71
NtRp1685
(dp1686
g74
(dp1687
sg83
g1045
sg76
(lp1688
g69
(g90
g71
NtRp1689
(dp1690
g74
(dp1691
g94
g95
ssg83
g1685
sg76
(lp1692
S'server_protocol'
p1693
asbag69
(g90
g71
NtRp1694
(dp1695
g74
(dp1696
g101
g102
ssg83
g1685
sg76
(lp1697
S':'
asbag69
(g90
g71
NtRp1698
(dp1699
g74
(dp1700
sg83
g1685
sg76
(lp1701
g69
(g70
g71
NtRp1702
(dp1703
g74
(dp1704
g82
I4
ssg83
g1698
sg76
(lp1705
S'HTTP/1.1'
p1706
asbasbasbag69
(g85
g71
NtRp1707
(dp1708
g74
(dp1709
sg83
g1045
sg76
(lp1710
g69
(g90
g71
NtRp1711
(dp1712
g74
(dp1713
g94
g95
ssg83
g1707
sg76
(lp1714
S'server_software'
p1715
asbag69
(g90
g71
NtRp1716
(dp1717
g74
(dp1718
g101
g102
ssg83
g1707
sg76
(lp1719
S':'
asbag69
(g90
g71
NtRp1720
(dp1721
g74
(dp1722
sg83
g1707
sg76
(lp1723
g69
(g70
g71
NtRp1724
(dp1725
g74
(dp1726
g82
I4
ssg83
g1720
sg76
(lp1727
S'Rocket 1.2.6'
p1728
asbasbasbag69
(g85
g71
NtRp1729
(dp1730
g74
(dp1731
sg83
g1045
sg76
(lp1732
g69
(g90
g71
NtRp1733
(dp1734
g74
(dp1735
g94
g95
ssg83
g1729
sg76
(lp1736
S'web2py_path'
p1737
asbag69
(g90
g71
NtRp1738
(dp1739
g74
(dp1740
g101
g102
ssg83
g1729
sg76
(lp1741
S':'
asbag69
(g90
g71
NtRp1742
(dp1743
g74
(dp1744
sg83
g1729
sg76
(lp1745
g69
(g70
g71
NtRp1746
(dp1747
g74
(dp1748
g82
I4
ssg83
g1742
sg76
(lp1749
g1092
asbasbasbag69
(g85
g71
NtRp1750
(dp1751
g74
(dp1752
sg83
g1045
sg76
(lp1753
g69
(g90
g71
NtRp1754
(dp1755
g74
(dp1756
g94
g95
ssg83
g1750
sg76
(lp1757
S'web2py_version'
p1758
asbag69
(g90
g71
NtRp1759
(dp1760
g74
(dp1761
g101
g102
ssg83
g1750
sg76
(lp1762
S':'
asbag69
(g90
g71
NtRp1763
(dp1764
g74
(dp1765
sg83
g1750
sg76
(lp1766
g69
(g70
g71
NtRp1767
(dp1768
g74
(dp1769
g82
I4
ssg83
g1763
sg76
(lp1770
g69
(g78
g71
NtRp1771
(dp1772
g74
(dp1773
g82
I3
ssg83
Nsg76
(lp1774
g69
(g85
g71
NtRp1775
(dp1776
g74
(dp1777
sg83
g1771
sg76
(lp1778
g69
(g90
g71
NtRp1779
(dp1780
g74
(dp1781
sg83
g1775
sg76
(lp1782
g69
(g70
g71
NtRp1783
(dp1784
g74
(dp1785
g82
I3
ssg83
g1779
sg76
(lp1786
S'2'
asbasbasbag69
(g85
g71
NtRp1787
(dp1788
g74
(dp1789
sg83
g1771
sg76
(lp1790
g69
(g90
g71
NtRp1791
(dp1792
g74
(dp1793
sg83
g1787
sg76
(lp1794
g69
(g70
g71
NtRp1795
(dp1796
g74
(dp1797
g82
I3
ssg83
g1791
sg76
(lp1798
S'3'
asbasbasbag69
(g85
g71
NtRp1799
(dp1800
g74
(dp1801
sg83
g1771
sg76
(lp1802
g69
(g90
g71
NtRp1803
(dp1804
g74
(dp1805
sg83
g1799
sg76
(lp1806
g69
(g70
g71
NtRp1807
(dp1808
g74
(dp1809
g82
I3
ssg83
g1803
sg76
(lp1810
S'2'
asbasbasbag69
(g85
g71
NtRp1811
(dp1812
g74
(dp1813
sg83
g1771
sg76
(lp1814
g69
(g90
g71
NtRp1815
(dp1816
g74
(dp1817
sg83
g1811
sg76
(lp1818
g69
(g70
g71
NtRp1819
(dp1820
g74
(dp1821
g82
I3
ssg83
g1815
sg76
(lp1822
S'datetime.datetime(2012, 12, 17, 15, 3, 30)'
p1823
asbasbasbag69
(g85
g71
NtRp1824
(dp1825
g74
(dp1826
sg83
g1771
sg76
(lp1827
g69
(g90
g71
NtRp1828
(dp1829
g74
(dp1830
sg83
g1824
sg76
(lp1831
g69
(g70
g71
NtRp1832
(dp1833
g74
(dp1834
g82
I3
ssg83
g1828
sg76
(lp1835
S'stable'
p1836
asbasbasbasbasbasbasbag69
(g85
g71
NtRp1837
(dp1838
g74
(dp1839
sg83
g1045
sg76
(lp1840
g69
(g90
g71
NtRp1841
(dp1842
g74
(dp1843
g94
g95
ssg83
g1837
sg76
(lp1844
S'wsgi_errors'
p1845
asbag69
(g90
g71
NtRp1846
(dp1847
g74
(dp1848
g101
g102
ssg83
g1837
sg76
(lp1849
S':'
asbag69
(g90
g71
NtRp1850
(dp1851
g74
(dp1852
sg83
g1837
sg76
(lp1853
g69
(g70
g71
NtRp1854
(dp1855
g74
(dp1856
g82
I4
ssg83
g1850
sg76
(lp1857
S"<open file '<stderr>', mode 'w' at 0x7fa17964b270>"
p1858
asbasbasbag69
(g85
g71
NtRp1859
(dp1860
g74
(dp1861
sg83
g1045
sg76
(lp1862
g69
(g90
g71
NtRp1863
(dp1864
g74
(dp1865
g94
g95
ssg83
g1859
sg76
(lp1866
S'wsgi_file_wrapper'
p1867
asbag69
(g90
g71
NtRp1868
(dp1869
g74
(dp1870
g101
g102
ssg83
g1859
sg76
(lp1871
S':'
asbag69
(g90
g71
NtRp1872
(dp1873
g74
(dp1874
sg83
g1859
sg76
(lp1875
g69
(g70
g71
NtRp1876
(dp1877
g74
(dp1878
g82
I4
ssg83
g1872
sg76
(lp1879
S'<class wsgiref.util.FileWrapper at 0x28ecdb8>'
p1880
asbasbasbag69
(g85
g71
NtRp1881
(dp1882
g74
(dp1883
sg83
g1045
sg76
(lp1884
g69
(g90
g71
NtRp1885
(dp1886
g74
(dp1887
g94
g95
ssg83
g1881
sg76
(lp1888
S'wsgi_input'
p1889
asbag69
(g90
g71
NtRp1890
(dp1891
g74
(dp1892
g101
g102
ssg83
g1881
sg76
(lp1893
S':'
asbag69
(g90
g71
NtRp1894
(dp1895
g74
(dp1896
sg83
g1881
sg76
(lp1897
g69
(g70
g71
NtRp1898
(dp1899
g74
(dp1900
g82
I4
ssg83
g1894
sg76
(lp1901
S'<socket._fileobject object at 0x7fa1405164d0>'
p1902
asbasbasbag69
(g85
g71
NtRp1903
(dp1904
g74
(dp1905
sg83
g1045
sg76
(lp1906
g69
(g90
g71
NtRp1907
(dp1908
g74
(dp1909
g94
g95
ssg83
g1903
sg76
(lp1910
S'wsgi_multiprocess'
p1911
asbag69
(g90
g71
NtRp1912
(dp1913
g74
(dp1914
g101
g102
ssg83
g1903
sg76
(lp1915
S':'
asbag69
(g90
g71
NtRp1916
(dp1917
g74
(dp1918
sg83
g1903
sg76
(lp1919
g69
(g70
g71
NtRp1920
(dp1921
g74
(dp1922
g82
I4
ssg83
g1916
sg76
(lp1923
g112
asbasbasbag69
(g85
g71
NtRp1924
(dp1925
g74
(dp1926
sg83
g1045
sg76
(lp1927
g69
(g90
g71
NtRp1928
(dp1929
g74
(dp1930
g94
g95
ssg83
g1924
sg76
(lp1931
S'wsgi_multithread'
p1932
asbag69
(g90
g71
NtRp1933
(dp1934
g74
(dp1935
g101
g102
ssg83
g1924
sg76
(lp1936
S':'
asbag69
(g90
g71
NtRp1937
(dp1938
g74
(dp1939
sg83
g1924
sg76
(lp1940
g69
(g70
g71
NtRp1941
(dp1942
g74
(dp1943
g82
I4
ssg83
g1937
sg76
(lp1944
S'True'
p1945
asbasbasbag69
(g85
g71
NtRp1946
(dp1947
g74
(dp1948
sg83
g1045
sg76
(lp1949
g69
(g90
g71
NtRp1950
(dp1951
g74
(dp1952
g94
g95
ssg83
g1946
sg76
(lp1953
S'wsgi_run_once'
p1954
asbag69
(g90
g71
NtRp1955
(dp1956
g74
(dp1957
g101
g102
ssg83
g1946
sg76
(lp1958
S':'
asbag69
(g90
g71
NtRp1959
(dp1960
g74
(dp1961
sg83
g1946
sg76
(lp1962
g69
(g70
g71
NtRp1963
(dp1964
g74
(dp1965
g82
I4
ssg83
g1959
sg76
(lp1966
g112
asbasbasbag69
(g85
g71
NtRp1967
(dp1968
g74
(dp1969
sg83
g1045
sg76
(lp1970
g69
(g90
g71
NtRp1971
(dp1972
g74
(dp1973
g94
g95
ssg83
g1967
sg76
(lp1974
S'wsgi_url_scheme'
p1975
asbag69
(g90
g71
NtRp1976
(dp1977
g74
(dp1978
g101
g102
ssg83
g1967
sg76
(lp1979
S':'
asbag69
(g90
g71
NtRp1980
(dp1981
g74
(dp1982
sg83
g1967
sg76
(lp1983
g69
(g70
g71
NtRp1984
(dp1985
g74
(dp1986
g82
I4
ssg83
g1980
sg76
(lp1987
S'http'
p1988
asbasbasbag69
(g85
g71
NtRp1989
(dp1990
g74
(dp1991
sg83
g1045
sg76
(lp1992
g69
(g90
g71
NtRp1993
(dp1994
g74
(dp1995
g94
g95
ssg83
g1989
sg76
(lp1996
S'wsgi_version'
p1997
asbag69
(g90
g71
NtRp1998
(dp1999
g74
(dp2000
g101
g102
ssg83
g1989
sg76
(lp2001
S':'
asbag69
(g90
g71
NtRp2002
(dp2003
g74
(dp2004
sg83
g1989
sg76
(lp2005
g69
(g70
g71
NtRp2006
(dp2007
g74
(dp2008
g82
I4
ssg83
g2002
sg76
(lp2009
g69
(g78
g71
NtRp2010
(dp2011
g74
(dp2012
g82
I3
ssg83
Nsg76
(lp2013
g69
(g85
g71
NtRp2014
(dp2015
g74
(dp2016
sg83
g2010
sg76
(lp2017
g69
(g90
g71
NtRp2018
(dp2019
g74
(dp2020
sg83
g2014
sg76
(lp2021
g69
(g70
g71
NtRp2022
(dp2023
g74
(dp2024
g82
I3
ssg83
g2018
sg76
(lp2025
S'1'
asbasbasbag69
(g85
g71
NtRp2026
(dp2027
g74
(dp2028
sg83
g2010
sg76
(lp2029
g69
(g90
g71
NtRp2030
(dp2031
g74
(dp2032
sg83
g2026
sg76
(lp2033
g69
(g70
g71
NtRp2034
(dp2035
g74
(dp2036
g82
I3
ssg83
g2030
sg76
(lp2037
S'0'
asbasbasbasbasbasbasbasbasbasbasbag69
(g85
g71
NtRp2038
(dp2039
g74
(dp2040
sg83
g79
sg76
(lp2041
g69
(g90
g71
NtRp2042
(dp2043
g74
(dp2044
g94
g95
ssg83
g2038
sg76
(lp2045
S'extension'
p2046
asbag69
(g90
g71
NtRp2047
(dp2048
g74
(dp2049
g101
g102
ssg83
g2038
sg76
(lp2050
S':'
asbag69
(g90
g71
NtRp2051
(dp2052
g74
(dp2053
sg83
g2038
sg76
(lp2054
g69
(g70
g71
NtRp2055
(dp2056
g74
(dp2057
g82
I5
ssg83
g2051
sg76
(lp2058
S'html'
p2059
asbasbasbag69
(g85
g71
NtRp2060
(dp2061
g74
(dp2062
sg83
g79
sg76
(lp2063
g69
(g90
g71
NtRp2064
(dp2065
g74
(dp2066
g94
g95
ssg83
g2060
sg76
(lp2067
S'folder'
p2068
asbag69
(g90
g71
NtRp2069
(dp2070
g74
(dp2071
g101
g102
ssg83
g2060
sg76
(lp2072
S':'
asbag69
(g90
g71
NtRp2073
(dp2074
g74
(dp2075
sg83
g2060
sg76
(lp2076
g69
(g70
g71
NtRp2077
(dp2078
g74
(dp2079
g82
I5
ssg83
g2073
sg76
(lp2080
S'/home/shipra/Desktop/Semester 1.2/ITWS-2/web2py/applications/shipra/'
p2081
asbasbasbag69
(g85
g71
NtRp2082
(dp2083
g74
(dp2084
sg83
g79
sg76
(lp2085
g69
(g90
g71
NtRp2086
(dp2087
g74
(dp2088
g94
g95
ssg83
g2082
sg76
(lp2089
S'function'
p2090
asbag69
(g90
g71
NtRp2091
(dp2092
g74
(dp2093
g101
g102
ssg83
g2082
sg76
(lp2094
S':'
asbag69
(g90
g71
NtRp2095
(dp2096
g74
(dp2097
sg83
g2082
sg76
(lp2098
g69
(g70
g71
NtRp2099
(dp2100
g74
(dp2101
g82
I5
ssg83
g2095
sg76
(lp2102
S'input'
p2103
asbasbasbag69
(g85
g71
NtRp2104
(dp2105
g74
(dp2106
sg83
g79
sg76
(lp2107
g69
(g90
g71
NtRp2108
(dp2109
g74
(dp2110
g94
g95
ssg83
g2104
sg76
(lp2111
S'get_vars'
p2112
asbag69
(g90
g71
NtRp2113
(dp2114
g74
(dp2115
g101
g102
ssg83
g2104
sg76
(lp2116
S':'
asbag69
(g90
g71
NtRp2117
(dp2118
g74
(dp2119
sg83
g2104
sg76
(lp2120
g69
(g70
g71
NtRp2121
(dp2122
g74
(dp2123
g82
I5
ssg83
g2117
sg76
(lp2124
g69
(g78
g71
NtRp2125
(dp2126
g74
(dp2127
g82
I4
ssg83
Nsg76
(lp2128
sbasbasbasbag69
(g85
g71
NtRp2129
(dp2130
g74
(dp2131
sg83
g79
sg76
(lp2132
g69
(g90
g71
NtRp2133
(dp2134
g74
(dp2135
g94
g95
ssg83
g2129
sg76
(lp2136
S'global_settings'
p2137
asbag69
(g90
g71
NtRp2138
(dp2139
g74
(dp2140
g101
g102
ssg83
g2129
sg76
(lp2141
S':'
asbag69
(g90
g71
NtRp2142
(dp2143
g74
(dp2144
sg83
g2129
sg76
(lp2145
g69
(g70
g71
NtRp2146
(dp2147
g74
(dp2148
g82
I5
ssg83
g2142
sg76
(lp2149
g69
(g78
g71
NtRp2150
(dp2151
g74
(dp2152
g82
I4
ssg83
Nsg76
(lp2153
g69
(g85
g71
NtRp2154
(dp2155
g74
(dp2156
sg83
g2150
sg76
(lp2157
g69
(g90
g71
NtRp2158
(dp2159
g74
(dp2160
g94
g95
ssg83
g2154
sg76
(lp2161
g1057
asbag69
(g90
g71
NtRp2162
(dp2163
g74
(dp2164
g101
g102
ssg83
g2154
sg76
(lp2165
S':'
asbag69
(g90
g71
NtRp2166
(dp2167
g74
(dp2168
sg83
g2154
sg76
(lp2169
g69
(g70
g71
NtRp2170
(dp2171
g74
(dp2172
g82
I4
ssg83
g2166
sg76
(lp2173
S"set(['/home/shipra/Desktop/Semester 1.2/ITWS-2/web2py/applications/shipra/', '/home/shipra/Desktop/Semester 1.2/ITWS-2/web2py/applications/welcome/', '/home/shipra/Desktop/Semester 1.2/ITWS-2/web2py/applications/admin/'])"
p2174
asbasbasbag69
(g85
g71
NtRp2175
(dp2176
g74
(dp2177
sg83
g2150
sg76
(lp2178
g69
(g90
g71
NtRp2179
(dp2180
g74
(dp2181
g94
g95
ssg83
g2175
sg76
(lp2182
g1079
asbag69
(g90
g71
NtRp2183
(dp2184
g74
(dp2185
g101
g102
ssg83
g2175
sg76
(lp2186
S':'
asbag69
(g90
g71
NtRp2187
(dp2188
g74
(dp2189
sg83
g2175
sg76
(lp2190
g69
(g70
g71
NtRp2191
(dp2192
g74
(dp2193
g82
I4
ssg83
g2187
sg76
(lp2194
g1092
asbasbasbag69
(g85
g71
NtRp2195
(dp2196
g74
(dp2197
sg83
g2150
sg76
(lp2198
g69
(g90
g71
NtRp2199
(dp2200
g74
(dp2201
g94
g95
ssg83
g2195
sg76
(lp2202
g1101
asbag69
(g90
g71
NtRp2203
(dp2204
g74
(dp2205
g101
g102
ssg83
g2195
sg76
(lp2206
S':'
asbag69
(g90
g71
NtRp2207
(dp2208
g74
(dp2209
sg83
g2195
sg76
(lp2210
g69
(g70
g71
NtRp2211
(dp2212
g74
(dp2213
g82
I4
ssg83
g2207
sg76
(lp2214
g69
(g78
g71
NtRp2215
(dp2216
g74
(dp2217
g82
I3
ssg83
Nsg76
(lp2218
sbasbasbasbag69
(g85
g71
NtRp2219
(dp2220
g74
(dp2221
sg83
g2150
sg76
(lp2222
g69
(g90
g71
NtRp2223
(dp2224
g74
(dp2225
g94
g95
ssg83
g2219
sg76
(lp2226
g1126
asbag69
(g90
g71
NtRp2227
(dp2228
g74
(dp2229
g101
g102
ssg83
g2219
sg76
(lp2230
S':'
asbag69
(g90
g71
NtRp2231
(dp2232
g74
(dp2233
sg83
g2219
sg76
(lp2234
g69
(g70
g71
NtRp2235
(dp2236
g74
(dp2237
g82
I4
ssg83
g2231
sg76
(lp2238
S"<Values at 0x2963248: {'verbose': False, 'ip': '127.0.0.1', 'with_scheduler': False, 'ips': ['10.42.0.99'], 'shutdown_timeout': 5, 'taskbar': False, 'port': 8000, 'maxthreads': None, 'softcron': False, 'server_name': 'shipra', 'bpython': False, 'nogui': False, 'pid_filename': 'httpserver.pid', 'extcron': False, 'runcron': False, 'run_system_tests': False, 'test': None, 'folder': '/home/shipra/Desktop/Semester 1.2/ITWS-2/web2py', 'config': '', 'minthreads': None, 'winservice': '', 'shell': None, 'run': '', 'log_filename': 'httpserver.log', 'debuglevel': 30, 'args': [''], 'socket_timeout': 5, 'ssl_ca_certificate': None, 'scheduler': None, 'profiler_filename': None, 'ssl_private_key': '', 'scheduler_groups': None, 'password': '<ask>', 'request_queue_size': 5, 'ssl_certificate': '', 'cronjob': False, 'numthreads': None, 'quiet': False, 'interfaces': None, 'import_models': False, 'timeout': 10, 'plain': False, 'nobanner': False}>"
p2239
asbasbasbag69
(g85
g71
NtRp2240
(dp2241
g74
(dp2242
sg83
g2150
sg76
(lp2243
g69
(g90
g71
NtRp2244
(dp2245
g74
(dp2246
g94
g95
ssg83
g2240
sg76
(lp2247
g1148
asbag69
(g90
g71
NtRp2248
(dp2249
g74
(dp2250
g101
g102
ssg83
g2240
sg76
(lp2251
S':'
asbag69
(g90
g71
NtRp2252
(dp2253
g74
(dp2254
sg83
g2240
sg76
(lp2255
g69
(g70
g71
NtRp2256
(dp2257
g74
(dp2258
g82
I4
ssg83
g2252
sg76
(lp2259
S'set([])'
p2260
asbasbasbag69
(g85
g71
NtRp2261
(dp2262
g74
(dp2263
sg83
g2150
sg76
(lp2264
g69
(g90
g71
NtRp2265
(dp2266
g74
(dp2267
g94
g95
ssg83
g2261
sg76
(lp2268
g1170
asbag69
(g90
g71
NtRp2269
(dp2270
g74
(dp2271
g101
g102
ssg83
g2261
sg76
(lp2272
S':'
asbag69
(g90
g71
NtRp2273
(dp2274
g74
(dp2275
sg83
g2261
sg76
(lp2276
g69
(g70
g71
NtRp2277
(dp2278
g74
(dp2279
g82
I4
ssg83
g2273
sg76
(lp2280
g112
asbasbasbag69
(g85
g71
NtRp2281
(dp2282
g74
(dp2283
sg83
g2150
sg76
(lp2284
g69
(g90
g71
NtRp2285
(dp2286
g74
(dp2287
g94
g95
ssg83
g2281
sg76
(lp2288
g1191
asbag69
(g90
g71
NtRp2289
(dp2290
g74
(dp2291
g101
g102
ssg83
g2281
sg76
(lp2292
S':'
asbag69
(g90
g71
NtRp2293
(dp2294
g74
(dp2295
sg83
g2281
sg76
(lp2296
g69
(g70
g71
NtRp2297
(dp2298
g74
(dp2299
g82
I4
ssg83
g2293
sg76
(lp2300
g1204
asbasbasbag69
(g85
g71
NtRp2301
(dp2302
g74
(dp2303
sg83
g2150
sg76
(lp2304
g69
(g90
g71
NtRp2305
(dp2306
g74
(dp2307
g94
g95
ssg83
g2301
sg76
(lp2308
g1367
asbag69
(g90
g71
NtRp2309
(dp2310
g74
(dp2311
g101
g102
ssg83
g2301
sg76
(lp2312
S':'
asbag69
(g90
g71
NtRp2313
(dp2314
g74
(dp2315
sg83
g2301
sg76
(lp2316
g69
(g70
g71
NtRp2317
(dp2318
g74
(dp2319
g82
I4
ssg83
g2313
sg76
(lp2320
g112
asbasbasbag69
(g85
g71
NtRp2321
(dp2322
g74
(dp2323
sg83
g2150
sg76
(lp2324
g69
(g90
g71
NtRp2325
(dp2326
g74
(dp2327
g94
g95
ssg83
g2321
sg76
(lp2328
g1388
asbag69
(g90
g71
NtRp2329
(dp2330
g74
(dp2331
g101
g102
ssg83
g2321
sg76
(lp2332
S':'
asbag69
(g90
g71
NtRp2333
(dp2334
g74
(dp2335
sg83
g2321
sg76
(lp2336
g69
(g70
g71
NtRp2337
(dp2338
g74
(dp2339
g82
I4
ssg83
g2333
sg76
(lp2340
g112
asbasbasbag69
(g85
g71
NtRp2341
(dp2342
g74
(dp2343
sg83
g2150
sg76
(lp2344
g69
(g90
g71
NtRp2345
(dp2346
g74
(dp2347
g94
g95
ssg83
g2341
sg76
(lp2348
g1409
asbag69
(g90
g71
NtRp2349
(dp2350
g74
(dp2351
g101
g102
ssg83
g2341
sg76
(lp2352
S':'
asbag69
(g90
g71
NtRp2353
(dp2354
g74
(dp2355
sg83
g2341
sg76
(lp2356
g69
(g70
g71
NtRp2357
(dp2358
g74
(dp2359
g82
I4
ssg83
g2353
sg76
(lp2360
g69
(g78
g71
NtRp2361
(dp2362
g74
(dp2363
g82
I3
ssg83
Nsg76
(lp2364
g69
(g85
g71
NtRp2365
(dp2366
g74
(dp2367
sg83
g2361
sg76
(lp2368
g69
(g90
g71
NtRp2369
(dp2370
g74
(dp2371
sg83
g2365
sg76
(lp2372
g69
(g70
g71
NtRp2373
(dp2374
g74
(dp2375
g82
I3
ssg83
g2369
sg76
(lp2376
g1438
asbasbasbag69
(g85
g71
NtRp2377
(dp2378
g74
(dp2379
sg83
g2361
sg76
(lp2380
g69
(g90
g71
NtRp2381
(dp2382
g74
(dp2383
sg83
g2377
sg76
(lp2384
g69
(g70
g71
NtRp2385
(dp2386
g74
(dp2387
g82
I3
ssg83
g2381
sg76
(lp2388
g1451
asbasbasbag69
(g85
g71
NtRp2389
(dp2390
g74
(dp2391
sg83
g2361
sg76
(lp2392
g69
(g90
g71
NtRp2393
(dp2394
g74
(dp2395
sg83
g2389
sg76
(lp2396
g69
(g70
g71
NtRp2397
(dp2398
g74
(dp2399
g82
I3
ssg83
g2393
sg76
(lp2400
g1464
asbasbasbag69
(g85
g71
NtRp2401
(dp2402
g74
(dp2403
sg83
g2361
sg76
(lp2404
g69
(g90
g71
NtRp2405
(dp2406
g74
(dp2407
sg83
g2401
sg76
(lp2408
g69
(g70
g71
NtRp2409
(dp2410
g74
(dp2411
g82
I3
ssg83
g2405
sg76
(lp2412
g1477
asbasbasbag69
(g85
g71
NtRp2413
(dp2414
g74
(dp2415
sg83
g2361
sg76
(lp2416
g69
(g90
g71
NtRp2417
(dp2418
g74
(dp2419
sg83
g2413
sg76
(lp2420
g69
(g70
g71
NtRp2421
(dp2422
g74
(dp2423
g82
I3
ssg83
g2417
sg76
(lp2424
g1490
asbasbasbasbasbasbasbag69
(g85
g71
NtRp2425
(dp2426
g74
(dp2427
sg83
g2150
sg76
(lp2428
g69
(g90
g71
NtRp2429
(dp2430
g74
(dp2431
g94
g95
ssg83
g2425
sg76
(lp2432
g1758
asbag69
(g90
g71
NtRp2433
(dp2434
g74
(dp2435
g101
g102
ssg83
g2425
sg76
(lp2436
S':'
asbag69
(g90
g71
NtRp2437
(dp2438
g74
(dp2439
sg83
g2425
sg76
(lp2440
g69
(g70
g71
NtRp2441
(dp2442
g74
(dp2443
g82
I4
ssg83
g2437
sg76
(lp2444
g69
(g78
g71
NtRp2445
(dp2446
g74
(dp2447
g82
I3
ssg83
Nsg76
(lp2448
g69
(g85
g71
NtRp2449
(dp2450
g74
(dp2451
sg83
g2445
sg76
(lp2452
g69
(g90
g71
NtRp2453
(dp2454
g74
(dp2455
sg83
g2449
sg76
(lp2456
g69
(g70
g71
NtRp2457
(dp2458
g74
(dp2459
g82
I3
ssg83
g2453
sg76
(lp2460
S'2'
asbasbasbag69
(g85
g71
NtRp2461
(dp2462
g74
(dp2463
sg83
g2445
sg76
(lp2464
g69
(g90
g71
NtRp2465
(dp2466
g74
(dp2467
sg83
g2461
sg76
(lp2468
g69
(g70
g71
NtRp2469
(dp2470
g74
(dp2471
g82
I3
ssg83
g2465
sg76
(lp2472
S'3'
asbasbasbag69
(g85
g71
NtRp2473
(dp2474
g74
(dp2475
sg83
g2445
sg76
(lp2476
g69
(g90
g71
NtRp2477
(dp2478
g74
(dp2479
sg83
g2473
sg76
(lp2480
g69
(g70
g71
NtRp2481
(dp2482
g74
(dp2483
g82
I3
ssg83
g2477
sg76
(lp2484
S'2'
asbasbasbag69
(g85
g71
NtRp2485
(dp2486
g74
(dp2487
sg83
g2445
sg76
(lp2488
g69
(g90
g71
NtRp2489
(dp2490
g74
(dp2491
sg83
g2485
sg76
(lp2492
g69
(g70
g71
NtRp2493
(dp2494
g74
(dp2495
g82
I3
ssg83
g2489
sg76
(lp2496
S'datetime.datetime(2012, 12, 17, 15, 3, 30)'
p2497
asbasbasbag69
(g85
g71
NtRp2498
(dp2499
g74
(dp2500
sg83
g2445
sg76
(lp2501
g69
(g90
g71
NtRp2502
(dp2503
g74
(dp2504
sg83
g2498
sg76
(lp2505
g69
(g70
g71
NtRp2506
(dp2507
g74
(dp2508
g82
I3
ssg83
g2502
sg76
(lp2509
g1836
asbasbasbasbasbasbasbasbasbasbasbag69
(g85
g71
NtRp2510
(dp2511
g74
(dp2512
sg83
g79
sg76
(lp2513
g69
(g90
g71
NtRp2514
(dp2515
g74
(dp2516
g94
g95
ssg83
g2510
sg76
(lp2517
S'is_https'
p2518
asbag69
(g90
g71
NtRp2519
(dp2520
g74
(dp2521
g101
g102
ssg83
g2510
sg76
(lp2522
S':'
asbag69
(g90
g71
NtRp2523
(dp2524
g74
(dp2525
sg83
g2510
sg76
(lp2526
g69
(g70
g71
NtRp2527
(dp2528
g74
(dp2529
g82
I5
ssg83
g2523
sg76
(lp2530
g112
asbasbasbag69
(g85
g71
NtRp2531
(dp2532
g74
(dp2533
sg83
g79
sg76
(lp2534
g69
(g90
g71
NtRp2535
(dp2536
g74
(dp2537
g94
g95
ssg83
g2531
sg76
(lp2538
S'is_local'
p2539
asbag69
(g90
g71
NtRp2540
(dp2541
g74
(dp2542
g101
g102
ssg83
g2531
sg76
(lp2543
S':'
asbag69
(g90
g71
NtRp2544
(dp2545
g74
(dp2546
sg83
g2531
sg76
(lp2547
g69
(g70
g71
NtRp2548
(dp2549
g74
(dp2550
g82
I5
ssg83
g2544
sg76
(lp2551
g1945
asbasbasbag69
(g85
g71
NtRp2552
(dp2553
g74
(dp2554
sg83
g79
sg76
(lp2555
g69
(g90
g71
NtRp2556
(dp2557
g74
(dp2558
g94
g95
ssg83
g2552
sg76
(lp2559
S'is_restful'
p2560
asbag69
(g90
g71
NtRp2561
(dp2562
g74
(dp2563
g101
g102
ssg83
g2552
sg76
(lp2564
S':'
asbag69
(g90
g71
NtRp2565
(dp2566
g74
(dp2567
sg83
g2552
sg76
(lp2568
g69
(g70
g71
NtRp2569
(dp2570
g74
(dp2571
g82
I5
ssg83
g2565
sg76
(lp2572
g112
asbasbasbag69
(g85
g71
NtRp2573
(dp2574
g74
(dp2575
sg83
g79
sg76
(lp2576
g69
(g90
g71
NtRp2577
(dp2578
g74
(dp2579
g94
g95
ssg83
g2573
sg76
(lp2580
S'now'
p2581
asbag69
(g90
g71
NtRp2582
(dp2583
g74
(dp2584
g101
g102
ssg83
g2573
sg76
(lp2585
S':'
asbag69
(g90
g71
NtRp2586
(dp2587
g74
(dp2588
sg83
g2573
sg76
(lp2589
g69
(g70
g71
NtRp2590
(dp2591
g74
(dp2592
g82
I5
ssg83
g2586
sg76
(lp2593
S'datetime.datetime(2013, 4, 14, 2, 5, 14, 55039)'
p2594
asbasbasbag69
(g85
g71
NtRp2595
(dp2596
g74
(dp2597
sg83
g79
sg76
(lp2598
g69
(g90
g71
NtRp2599
(dp2600
g74
(dp2601
g94
g95
ssg83
g2595
sg76
(lp2602
S'post_vars'
p2603
asbag69
(g90
g71
NtRp2604
(dp2605
g74
(dp2606
g101
g102
ssg83
g2595
sg76
(lp2607
S':'
asbag69
(g90
g71
NtRp2608
(dp2609
g74
(dp2610
sg83
g2595
sg76
(lp2611
g69
(g70
g71
NtRp2612
(dp2613
g74
(dp2614
g82
I5
ssg83
g2608
sg76
(lp2615
g69
(g78
g71
NtRp2616
(dp2617
g74
(dp2618
g82
I4
ssg83
Nsg76
(lp2619
sbasbasbasbag69
(g85
g71
NtRp2620
(dp2621
g74
(dp2622
sg83
g79
sg76
(lp2623
g69
(g90
g71
NtRp2624
(dp2625
g74
(dp2626
g94
g95
ssg83
g2620
sg76
(lp2627
S'raw_args'
p2628
asbag69
(g90
g71
NtRp2629
(dp2630
g74
(dp2631
g101
g102
ssg83
g2620
sg76
(lp2632
S':'
asbag69
(g90
g71
NtRp2633
(dp2634
g74
(dp2635
sg83
g2620
sg76
(lp2636
g69
(g70
g71
NtRp2637
(dp2638
g74
(dp2639
g82
I5
ssg83
g2633
sg76
(lp2640
S''
asbasbasbag69
(g85
g71
NtRp2641
(dp2642
g74
(dp2643
sg83
g79
sg76
(lp2644
g69
(g90
g71
NtRp2645
(dp2646
g74
(dp2647
g94
g95
ssg83
g2641
sg76
(lp2648
S'raw_extension'
p2649
asbag69
(g90
g71
NtRp2650
(dp2651
g74
(dp2652
g101
g102
ssg83
g2641
sg76
(lp2653
S':'
asbag69
(g90
g71
NtRp2654
(dp2655
g74
(dp2656
sg83
g2641
sg76
(lp2657
g69
(g70
g71
NtRp2658
(dp2659
g74
(dp2660
g82
I5
ssg83
g2654
sg76
(lp2661
S'None'
p2662
asbasbasbag69
(g85
g71
NtRp2663
(dp2664
g74
(dp2665
sg83
g79
sg76
(lp2666
g69
(g90
g71
NtRp2667
(dp2668
g74
(dp2669
g94
g95
ssg83
g2663
sg76
(lp2670
S'url'
p2671
asbag69
(g90
g71
NtRp2672
(dp2673
g74
(dp2674
g101
g102
ssg83
g2663
sg76
(lp2675
S':'
asbag69
(g90
g71
NtRp2676
(dp2677
g74
(dp2678
sg83
g2663
sg76
(lp2679
g69
(g70
g71
NtRp2680
(dp2681
g74
(dp2682
g82
I5
ssg83
g2676
sg76
(lp2683
g1512
asbasbasbag69
(g85
g71
NtRp2684
(dp2685
g74
(dp2686
sg83
g79
sg76
(lp2687
g69
(g90
g71
NtRp2688
(dp2689
g74
(dp2690
g94
g95
ssg83
g2684
sg76
(lp2691
S'utcnow'
p2692
asbag69
(g90
g71
NtRp2693
(dp2694
g74
(dp2695
g101
g102
ssg83
g2684
sg76
(lp2696
S':'
asbag69
(g90
g71
NtRp2697
(dp2698
g74
(dp2699
sg83
g2684
sg76
(lp2700
g69
(g70
g71
NtRp2701
(dp2702
g74
(dp2703
g82
I5
ssg83
g2697
sg76
(lp2704
S'datetime.datetime(2013, 4, 13, 20, 35, 14, 55079)'
p2705
asbasbasbag69
(g85
g71
NtRp2706
(dp2707
g74
(dp2708
sg83
g79
sg76
(lp2709
g69
(g90
g71
NtRp2710
(dp2711
g74
(dp2712
g94
g95
ssg83
g2706
sg76
(lp2713
S'uuid'
p2714
asbag69
(g90
g71
NtRp2715
(dp2716
g74
(dp2717
g101
g102
ssg83
g2706
sg76
(lp2718
S':'
asbag69
(g90
g71
NtRp2719
(dp2720
g74
(dp2721
sg83
g2706
sg76
(lp2722
g69
(g70
g71
NtRp2723
(dp2724
g74
(dp2725
g82
I5
ssg83
g2719
sg76
(lp2726
S'shipra/127.0.0.1.2013-04-14.02-05-14.49ea7d2d-109f-4cdb-a396-1d51ec658821'
p2727
asbasbasbag69
(g85
g71
NtRp2728
(dp2729
g74
(dp2730
sg83
g79
sg76
(lp2731
g69
(g90
g71
NtRp2732
(dp2733
g74
(dp2734
g94
g95
ssg83
g2728
sg76
(lp2735
S'vars'
p2736
asbag69
(g90
g71
NtRp2737
(dp2738
g74
(dp2739
g101
g102
ssg83
g2728
sg76
(lp2740
S':'
asbag69
(g90
g71
NtRp2741
(dp2742
g74
(dp2743
sg83
g2728
sg76
(lp2744
g69
(g70
g71
NtRp2745
(dp2746
g74
(dp2747
g82
I5
ssg83
g2741
sg76
(lp2748
g69
(g78
g71
NtRp2749
(dp2750
g74
(dp2751
g82
I4
ssg83
Nsg76
(lp2752
sbasbasbasbag69
(g85
g71
NtRp2753
(dp2754
g74
(dp2755
sg83
g79
sg76
(lp2756
g69
(g90
g71
NtRp2757
(dp2758
g74
(dp2759
g94
g95
ssg83
g2753
sg76
(lp2760
S'wsgi'
p2761
asbag69
(g90
g71
NtRp2762
(dp2763
g74
(dp2764
g101
g102
ssg83
g2753
sg76
(lp2765
S':'
asbag69
(g90
g71
NtRp2766
(dp2767
g74
(dp2768
sg83
g2753
sg76
(lp2769
g69
(g70
g71
NtRp2770
(dp2771
g74
(dp2772
g82
I5
ssg83
g2766
sg76
(lp2773
g69
(g78
g71
NtRp2774
(dp2775
g74
(dp2776
g82
I4
ssg83
Nsg76
(lp2777
g69
(g85
g71
NtRp2778
(dp2779
g74
(dp2780
sg83
g2774
sg76
(lp2781
g69
(g90
g71
NtRp2782
(dp2783
g74
(dp2784
g94
g95
ssg83
g2778
sg76
(lp2785
S'environ'
p2786
asbag69
(g90
g71
NtRp2787
(dp2788
g74
(dp2789
g101
g102
ssg83
g2778
sg76
(lp2790
S':'
asbag69
(g90
g71
NtRp2791
(dp2792
g74
(dp2793
sg83
g2778
sg76
(lp2794
g69
(g70
g71
NtRp2795
(dp2796
g74
(dp2797
g82
I4
ssg83
g2791
sg76
(lp2798
g69
(g78
g71
NtRp2799
(dp2800
g74
(dp2801
g82
I3
ssg83
Nsg76
(lp2802
g69
(g85
g71
NtRp2803
(dp2804
g74
(dp2805
sg83
g2799
sg76
(lp2806
g69
(g90
g71
NtRp2807
(dp2808
g74
(dp2809
g94
g95
ssg83
g2803
sg76
(lp2810
S'HTTP_ACCEPT'
p2811
asbag69
(g90
g71
NtRp2812
(dp2813
g74
(dp2814
g101
g102
ssg83
g2803
sg76
(lp2815
S':'
asbag69
(g90
g71
NtRp2816
(dp2817
g74
(dp2818
sg83
g2803
sg76
(lp2819
g69
(g70
g71
NtRp2820
(dp2821
g74
(dp2822
g82
I3
ssg83
g2816
sg76
(lp2823
g1226
asbasbasbag69
(g85
g71
NtRp2824
(dp2825
g74
(dp2826
sg83
g2799
sg76
(lp2827
g69
(g90
g71
NtRp2828
(dp2829
g74
(dp2830
g94
g95
ssg83
g2824
sg76
(lp2831
S'HTTP_ACCEPT_ENCODING'
p2832
asbag69
(g90
g71
NtRp2833
(dp2834
g74
(dp2835
g101
g102
ssg83
g2824
sg76
(lp2836
S':'
asbag69
(g90
g71
NtRp2837
(dp2838
g74
(dp2839
sg83
g2824
sg76
(lp2840
g69
(g70
g71
NtRp2841
(dp2842
g74
(dp2843
g82
I3
ssg83
g2837
sg76
(lp2844
g1248
asbasbasbag69
(g85
g71
NtRp2845
(dp2846
g74
(dp2847
sg83
g2799
sg76
(lp2848
g69
(g90
g71
NtRp2849
(dp2850
g74
(dp2851
g94
g95
ssg83
g2845
sg76
(lp2852
S'HTTP_ACCEPT_LANGUAGE'
p2853
asbag69
(g90
g71
NtRp2854
(dp2855
g74
(dp2856
g101
g102
ssg83
g2845
sg76
(lp2857
S':'
asbag69
(g90
g71
NtRp2858
(dp2859
g74
(dp2860
sg83
g2845
sg76
(lp2861
g69
(g70
g71
NtRp2862
(dp2863
g74
(dp2864
g82
I3
ssg83
g2858
sg76
(lp2865
g1270
asbasbasbag69
(g85
g71
NtRp2866
(dp2867
g74
(dp2868
sg83
g2799
sg76
(lp2869
g69
(g90
g71
NtRp2870
(dp2871
g74
(dp2872
g94
g95
ssg83
g2866
sg76
(lp2873
S'HTTP_CONNECTION'
p2874
asbag69
(g90
g71
NtRp2875
(dp2876
g74
(dp2877
g101
g102
ssg83
g2866
sg76
(lp2878
S':'
asbag69
(g90
g71
NtRp2879
(dp2880
g74
(dp2881
sg83
g2866
sg76
(lp2882
g69
(g70
g71
NtRp2883
(dp2884
g74
(dp2885
g82
I3
ssg83
g2879
sg76
(lp2886
g1292
asbasbasbag69
(g85
g71
NtRp2887
(dp2888
g74
(dp2889
sg83
g2799
sg76
(lp2890
g69
(g90
g71
NtRp2891
(dp2892
g74
(dp2893
g94
g95
ssg83
g2887
sg76
(lp2894
S'HTTP_COOKIE'
p2895
asbag69
(g90
g71
NtRp2896
(dp2897
g74
(dp2898
g101
g102
ssg83
g2887
sg76
(lp2899
S':'
asbag69
(g90
g71
NtRp2900
(dp2901
g74
(dp2902
sg83
g2887
sg76
(lp2903
g69
(g70
g71
NtRp2904
(dp2905
g74
(dp2906
g82
I3
ssg83
g2900
sg76
(lp2907
g1314
asbasbasbag69
(g85
g71
NtRp2908
(dp2909
g74
(dp2910
sg83
g2799
sg76
(lp2911
g69
(g90
g71
NtRp2912
(dp2913
g74
(dp2914
g94
g95
ssg83
g2908
sg76
(lp2915
S'HTTP_HOST'
p2916
asbag69
(g90
g71
NtRp2917
(dp2918
g74
(dp2919
g101
g102
ssg83
g2908
sg76
(lp2920
S':'
asbag69
(g90
g71
NtRp2921
(dp2922
g74
(dp2923
sg83
g2908
sg76
(lp2924
g69
(g70
g71
NtRp2925
(dp2926
g74
(dp2927
g82
I3
ssg83
g2921
sg76
(lp2928
g1336
asbasbasbag69
(g85
g71
NtRp2929
(dp2930
g74
(dp2931
sg83
g2799
sg76
(lp2932
g69
(g90
g71
NtRp2933
(dp2934
g74
(dp2935
g94
g95
ssg83
g2929
sg76
(lp2936
S'HTTP_USER_AGENT'
p2937
asbag69
(g90
g71
NtRp2938
(dp2939
g74
(dp2940
g101
g102
ssg83
g2929
sg76
(lp2941
S':'
asbag69
(g90
g71
NtRp2942
(dp2943
g74
(dp2944
sg83
g2929
sg76
(lp2945
g69
(g70
g71
NtRp2946
(dp2947
g74
(dp2948
g82
I3
ssg83
g2942
sg76
(lp2949
g1358
asbasbasbag69
(g85
g71
NtRp2950
(dp2951
g74
(dp2952
sg83
g2799
sg76
(lp2953
g69
(g90
g71
NtRp2954
(dp2955
g74
(dp2956
g94
g95
ssg83
g2950
sg76
(lp2957
S'PATH_INFO'
p2958
asbag69
(g90
g71
NtRp2959
(dp2960
g74
(dp2961
g101
g102
ssg83
g2950
sg76
(lp2962
S':'
asbag69
(g90
g71
NtRp2963
(dp2964
g74
(dp2965
sg83
g2950
sg76
(lp2966
g69
(g70
g71
NtRp2967
(dp2968
g74
(dp2969
g82
I3
ssg83
g2963
sg76
(lp2970
g1512
asbasbasbag69
(g85
g71
NtRp2971
(dp2972
g74
(dp2973
sg83
g2799
sg76
(lp2974
g69
(g90
g71
NtRp2975
(dp2976
g74
(dp2977
g94
g95
ssg83
g2971
sg76
(lp2978
S'QUERY_STRING'
p2979
asbag69
(g90
g71
NtRp2980
(dp2981
g74
(dp2982
g101
g102
ssg83
g2971
sg76
(lp2983
S':'
asbag69
(g90
g71
NtRp2984
(dp2985
g74
(dp2986
sg83
g2971
sg76
(lp2987
g69
(g70
g71
NtRp2988
(dp2989
g74
(dp2990
g82
I3
ssg83
g2984
sg76
(lp2991
S''
asbasbasbag69
(g85
g71
NtRp2992
(dp2993
g74
(dp2994
sg83
g2799
sg76
(lp2995
g69
(g90
g71
NtRp2996
(dp2997
g74
(dp2998
g94
g95
ssg83
g2992
sg76
(lp2999
S'REMOTE_ADDR'
p3000
asbag69
(g90
g71
NtRp3001
(dp3002
g74
(dp3003
g101
g102
ssg83
g2992
sg76
(lp3004
S':'
asbag69
(g90
g71
NtRp3005
(dp3006
g74
(dp3007
sg83
g2992
sg76
(lp3008
g69
(g70
g71
NtRp3009
(dp3010
g74
(dp3011
g82
I3
ssg83
g3005
sg76
(lp3012
g224
asbasbasbag69
(g85
g71
NtRp3013
(dp3014
g74
(dp3015
sg83
g2799
sg76
(lp3016
g69
(g90
g71
NtRp3017
(dp3018
g74
(dp3019
g94
g95
ssg83
g3013
sg76
(lp3020
S'REMOTE_PORT'
p3021
asbag69
(g90
g71
NtRp3022
(dp3023
g74
(dp3024
g101
g102
ssg83
g3013
sg76
(lp3025
S':'
asbag69
(g90
g71
NtRp3026
(dp3027
g74
(dp3028
sg83
g3013
sg76
(lp3029
g69
(g70
g71
NtRp3030
(dp3031
g74
(dp3032
g82
I3
ssg83
g3026
sg76
(lp3033
g1576
asbasbasbag69
(g85
g71
NtRp3034
(dp3035
g74
(dp3036
sg83
g2799
sg76
(lp3037
g69
(g90
g71
NtRp3038
(dp3039
g74
(dp3040
g94
g95
ssg83
g3034
sg76
(lp3041
S'REQUEST_METHOD'
p3042
asbag69
(g90
g71
NtRp3043
(dp3044
g74
(dp3045
g101
g102
ssg83
g3034
sg76
(lp3046
S':'
asbag69
(g90
g71
NtRp3047
(dp3048
g74
(dp3049
sg83
g3034
sg76
(lp3050
g69
(g70
g71
NtRp3051
(dp3052
g74
(dp3053
g82
I3
ssg83
g3047
sg76
(lp3054
g1598
asbasbasbag69
(g85
g71
NtRp3055
(dp3056
g74
(dp3057
sg83
g2799
sg76
(lp3058
g69
(g90
g71
NtRp3059
(dp3060
g74
(dp3061
g94
g95
ssg83
g3055
sg76
(lp3062
S'REQUEST_URI'
p3063
asbag69
(g90
g71
NtRp3064
(dp3065
g74
(dp3066
g101
g102
ssg83
g3055
sg76
(lp3067
S':'
asbag69
(g90
g71
NtRp3068
(dp3069
g74
(dp3070
sg83
g3055
sg76
(lp3071
g69
(g70
g71
NtRp3072
(dp3073
g74
(dp3074
g82
I3
ssg83
g3068
sg76
(lp3075
g1512
asbasbasbag69
(g85
g71
NtRp3076
(dp3077
g74
(dp3078
sg83
g2799
sg76
(lp3079
g69
(g90
g71
NtRp3080
(dp3081
g74
(dp3082
g94
g95
ssg83
g3076
sg76
(lp3083
S'SCRIPT_NAME'
p3084
asbag69
(g90
g71
NtRp3085
(dp3086
g74
(dp3087
g101
g102
ssg83
g3076
sg76
(lp3088
S':'
asbag69
(g90
g71
NtRp3089
(dp3090
g74
(dp3091
sg83
g3076
sg76
(lp3092
g69
(g70
g71
NtRp3093
(dp3094
g74
(dp3095
g82
I3
ssg83
g3089
sg76
(lp3096
S''
asbasbasbag69
(g85
g71
NtRp3097
(dp3098
g74
(dp3099
sg83
g2799
sg76
(lp3100
g69
(g90
g71
NtRp3101
(dp3102
g74
(dp3103
g94
g95
ssg83
g3097
sg76
(lp3104
S'SERVER_NAME'
p3105
asbag69
(g90
g71
NtRp3106
(dp3107
g74
(dp3108
g101
g102
ssg83
g3097
sg76
(lp3109
S':'
asbag69
(g90
g71
NtRp3110
(dp3111
g74
(dp3112
sg83
g3097
sg76
(lp3113
g69
(g70
g71
NtRp3114
(dp3115
g74
(dp3116
g82
I3
ssg83
g3110
sg76
(lp3117
g1662
asbasbasbag69
(g85
g71
NtRp3118
(dp3119
g74
(dp3120
sg83
g2799
sg76
(lp3121
g69
(g90
g71
NtRp3122
(dp3123
g74
(dp3124
g94
g95
ssg83
g3118
sg76
(lp3125
S'SERVER_PORT'
p3126
asbag69
(g90
g71
NtRp3127
(dp3128
g74
(dp3129
g101
g102
ssg83
g3118
sg76
(lp3130
S':'
asbag69
(g90
g71
NtRp3131
(dp3132
g74
(dp3133
sg83
g3118
sg76
(lp3134
g69
(g70
g71
NtRp3135
(dp3136
g74
(dp3137
g82
I3
ssg83
g3131
sg76
(lp3138
g1684
asbasbasbag69
(g85
g71
NtRp3139
(dp3140
g74
(dp3141
sg83
g2799
sg76
(lp3142
g69
(g90
g71
NtRp3143
(dp3144
g74
(dp3145
g94
g95
ssg83
g3139
sg76
(lp3146
S'SERVER_PROTOCOL'
p3147
asbag69
(g90
g71
NtRp3148
(dp3149
g74
(dp3150
g101
g102
ssg83
g3139
sg76
(lp3151
S':'
asbag69
(g90
g71
NtRp3152
(dp3153
g74
(dp3154
sg83
g3139
sg76
(lp3155
g69
(g70
g71
NtRp3156
(dp3157
g74
(dp3158
g82
I3
ssg83
g3152
sg76
(lp3159
g1706
asbasbasbag69
(g85
g71
NtRp3160
(dp3161
g74
(dp3162
sg83
g2799
sg76
(lp3163
g69
(g90
g71
NtRp3164
(dp3165
g74
(dp3166
g94
g95
ssg83
g3160
sg76
(lp3167
S'SERVER_SOFTWARE'
p3168
asbag69
(g90
g71
NtRp3169
(dp3170
g74
(dp3171
g101
g102
ssg83
g3160
sg76
(lp3172
S':'
asbag69
(g90
g71
NtRp3173
(dp3174
g74
(dp3175
sg83
g3160
sg76
(lp3176
g69
(g70
g71
NtRp3177
(dp3178
g74
(dp3179
g82
I3
ssg83
g3173
sg76
(lp3180
g1728
asbasbasbag69
(g85
g71
NtRp3181
(dp3182
g74
(dp3183
sg83
g2799
sg76
(lp3184
g69
(g90
g71
NtRp3185
(dp3186
g74
(dp3187
g94
g95
ssg83
g3181
sg76
(lp3188
S'wsgi.errors'
p3189
asbag69
(g90
g71
NtRp3190
(dp3191
g74
(dp3192
g101
g102
ssg83
g3181
sg76
(lp3193
S':'
asbag69
(g90
g71
NtRp3194
(dp3195
g74
(dp3196
sg83
g3181
sg76
(lp3197
g69
(g70
g71
NtRp3198
(dp3199
g74
(dp3200
g82
I3
ssg83
g3194
sg76
(lp3201
S"<open file '<stderr>', mode 'w' at 0x7fa17964b270>"
p3202
asbasbasbag69
(g85
g71
NtRp3203
(dp3204
g74
(dp3205
sg83
g2799
sg76
(lp3206
g69
(g90
g71
NtRp3207
(dp3208
g74
(dp3209
g94
g95
ssg83
g3203
sg76
(lp3210
S'wsgi.file_wrapper'
p3211
asbag69
(g90
g71
NtRp3212
(dp3213
g74
(dp3214
g101
g102
ssg83
g3203
sg76
(lp3215
S':'
asbag69
(g90
g71
NtRp3216
(dp3217
g74
(dp3218
sg83
g3203
sg76
(lp3219
g69
(g70
g71
NtRp3220
(dp3221
g74
(dp3222
g82
I3
ssg83
g3216
sg76
(lp3223
S'<class wsgiref.util.FileWrapper at 0x28ecdb8>'
p3224
asbasbasbag69
(g85
g71
NtRp3225
(dp3226
g74
(dp3227
sg83
g2799
sg76
(lp3228
g69
(g90
g71
NtRp3229
(dp3230
g74
(dp3231
g94
g95
ssg83
g3225
sg76
(lp3232
S'wsgi.input'
p3233
asbag69
(g90
g71
NtRp3234
(dp3235
g74
(dp3236
g101
g102
ssg83
g3225
sg76
(lp3237
S':'
asbag69
(g90
g71
NtRp3238
(dp3239
g74
(dp3240
sg83
g3225
sg76
(lp3241
g69
(g70
g71
NtRp3242
(dp3243
g74
(dp3244
g82
I3
ssg83
g3238
sg76
(lp3245
S'<cStringIO.StringO object at 0x7fa14c2f6ae8>'
p3246
asbasbasbag69
(g85
g71
NtRp3247
(dp3248
g74
(dp3249
sg83
g2799
sg76
(lp3250
g69
(g90
g71
NtRp3251
(dp3252
g74
(dp3253
g94
g95
ssg83
g3247
sg76
(lp3254
S'wsgi.multiprocess'
p3255
asbag69
(g90
g71
NtRp3256
(dp3257
g74
(dp3258
g101
g102
ssg83
g3247
sg76
(lp3259
S':'
asbag69
(g90
g71
NtRp3260
(dp3261
g74
(dp3262
sg83
g3247
sg76
(lp3263
g69
(g70
g71
NtRp3264
(dp3265
g74
(dp3266
g82
I3
ssg83
g3260
sg76
(lp3267
g112
asbasbasbag69
(g85
g71
NtRp3268
(dp3269
g74
(dp3270
sg83
g2799
sg76
(lp3271
g69
(g90
g71
NtRp3272
(dp3273
g74
(dp3274
g94
g95
ssg83
g3268
sg76
(lp3275
S'wsgi.multithread'
p3276
asbag69
(g90
g71
NtRp3277
(dp3278
g74
(dp3279
g101
g102
ssg83
g3268
sg76
(lp3280
S':'
asbag69
(g90
g71
NtRp3281
(dp3282
g74
(dp3283
sg83
g3268
sg76
(lp3284
g69
(g70
g71
NtRp3285
(dp3286
g74
(dp3287
g82
I3
ssg83
g3281
sg76
(lp3288
g1945
asbasbasbag69
(g85
g71
NtRp3289
(dp3290
g74
(dp3291
sg83
g2799
sg76
(lp3292
g69
(g90
g71
NtRp3293
(dp3294
g74
(dp3295
g94
g95
ssg83
g3289
sg76
(lp3296
S'wsgi.run_once'
p3297
asbag69
(g90
g71
NtRp3298
(dp3299
g74
(dp3300
g101
g102
ssg83
g3289
sg76
(lp3301
S':'
asbag69
(g90
g71
NtRp3302
(dp3303
g74
(dp3304
sg83
g3289
sg76
(lp3305
g69
(g70
g71
NtRp3306
(dp3307
g74
(dp3308
g82
I3
ssg83
g3302
sg76
(lp3309
g112
asbasbasbag69
(g85
g71
NtRp3310
(dp3311
g74
(dp3312
sg83
g2799
sg76
(lp3313
g69
(g90
g71
NtRp3314
(dp3315
g74
(dp3316
g94
g95
ssg83
g3310
sg76
(lp3317
S'wsgi.url_scheme'
p3318
asbag69
(g90
g71
NtRp3319
(dp3320
g74
(dp3321
g101
g102
ssg83
g3310
sg76
(lp3322
S':'
asbag69
(g90
g71
NtRp3323
(dp3324
g74
(dp3325
sg83
g3310
sg76
(lp3326
g69
(g70
g71
NtRp3327
(dp3328
g74
(dp3329
g82
I3
ssg83
g3323
sg76
(lp3330
g1988
asbasbasbag69
(g85
g71
NtRp3331
(dp3332
g74
(dp3333
sg83
g2799
sg76
(lp3334
g69
(g90
g71
NtRp3335
(dp3336
g74
(dp3337
g94
g95
ssg83
g3331
sg76
(lp3338
S'wsgi.version'
p3339
asbag69
(g90
g71
NtRp3340
(dp3341
g74
(dp3342
g101
g102
ssg83
g3331
sg76
(lp3343
S':'
asbag69
(g90
g71
NtRp3344
(dp3345
g74
(dp3346
sg83
g3331
sg76
(lp3347
g69
(g70
g71
NtRp3348
(dp3349
g74
(dp3350
g82
I3
ssg83
g3344
sg76
(lp3351
S'1'
asbasbasbasbasbasbasbasbasbasbasbasbasbsS'frames'
p3352
(lp3353
(dp3354
S'file'
p3355
S'/home/shipra/Desktop/Semester 1.2/ITWS-2/web2py/gluon/restricted.py'
p3356
sS'dump'
p3357
(dp3358
S'environment'
p3359
S"{'A': <class 'gluon.html.A'>, 'Auth': <class 'gluon.tools.Auth'>, 'B': <class 'gluon.html.B'>, 'BEAUTIFY': <class 'gluon.html.BEAUTIFY'>, 'BODY': <class 'gluon.html.BODY'>, 'BR': <class 'gluon.html.BR'>, 'BUTTON': <class 'gluon.html.BUTTON'>, 'CAT': <class 'gluon.html.CAT'>, 'CENTER': <class 'gluon.html.CENTER'>, 'CLEANUP': <class 'gluon.validators.CLEANUP'>, ...}"
p3360
sS'ccode'
p3361
S'<code object <module> at 0x7fa14c2fb3b0, file "/...eb2py/applications/shipra/models/db.py", line 12>'
p3362
ssS'lnum'
p3363
I212
sS'lines'
p3364
(dp3365
I207
S'    try:'
p3366
sI208
S'        if isinstance(code, types.CodeType):'
p3367
sI209
S'            ccode = code'
p3368
sI210
S'        else:'
p3369
sI211
S'            ccode = compile2(code, layer)'
p3370
sI212
S'        exec ccode in environment'
p3371
sI213
S'    except HTTP:'
p3372
sI214
S'        raise'
p3373
sI215
S'    except RestrictedError:'
p3374
sI216
S'        # do not encapsulate (obfuscate) the original RestrictedError'
p3375
ssS'call'
p3376
S"(code='# -*- coding: utf-8 -*-\\n\\n#######################...ble auditing\\n# auth.enable_record_versioning(db)\\n', environment={'A': <class 'gluon.html.A'>, 'Auth': <class 'gluon.tools.Auth'>, 'B': <class 'gluon.html.B'>, 'BEAUTIFY': <class 'gluon.html.BEAUTIFY'>, 'BODY': <class 'gluon.html.BODY'>, 'BR': <class 'gluon.html.BR'>, 'BUTTON': <class 'gluon.html.BUTTON'>, 'CAT': <class 'gluon.html.CAT'>, 'CENTER': <class 'gluon.html.CENTER'>, 'CLEANUP': <class 'gluon.validators.CLEANUP'>, ...}, layer='/home/shipra/Desktop/Semester 1.2/ITWS-2/web2py/applications/shipra/models/db.py')"
p3377
sS'func'
p3378
S'restricted'
p3379
sa(dp3380
g3355
S'/home/shipra/Desktop/Semester 1.2/ITWS-2/web2py/applications/shipra/models/db.py'
p3381
sg3357
(dp3382
S'db.Field'
p3383
S"<class 'gluon.dal.Field'>"
p3384
sS'db'
p3385
S'<DAL uri="sqlite://storage.sqlite">'
p3386
ssg3363
I120
sg3364
(dp3387
I115
S"\tdb.Field('XMarks','integer'),"
p3388
sI116
S"\tdb.Field('XIIMarks','integer'),"
p3389
sI117
S"\tdb.Field('CGPA','integer'),"
p3390
sI118
S"\tdb.Field('Company','string'),"
p3391
sI119
S"\tdb.Field('Duration','integer'),"
p3392
sI120
S"\tdb.Field('Post','string'))"
p3393
sI121
S''
sI122
S''
sI123
S''
sI124
S'## after defining tables, uncomment below to enable auditing'
p3394
ssg3376
S'()'
p3395
sg3378
S'<module>'
p3396
sa(dp3397
g3355
S'/home/shipra/Desktop/Semester 1.2/ITWS-2/web2py/gluon/dal.py'
p3398
sg3357
(dp3399
S'self.check_reserved_keyword'
p3400
S'<bound method DAL.check_reserved_keyword of <DAL uri="sqlite://storage.sqlite">>'
p3401
sS'self'
p3402
S'<DAL uri="sqlite://storage.sqlite">'
p3403
sS'tablename'
p3404
S"'search'"
p3405
ssg3363
I7176
sg3364
(dp3406
I7171
S"                raise SyntaxError('table already defined: %s' % tablename)"
p3407
sI7172
S"        elif tablename.startswith('_') or hasattr(self,tablename) or \\"
p3408
sI7173
S'                REGEX_PYTHON_KEYWORDS.match(tablename):'
p3409
sI7174
S"            raise SyntaxError('invalid table name: %s' % tablename)"
p3410
sI7175
S'        elif self.check_reserved:'
p3411
sI7176
S'            self.check_reserved_keyword(tablename)'
p3412
sI7177
S'        else:'
p3413
sI7178
S'            invalid_args = set(args)-TABLE_ARGS'
p3414
sI7179
S'            if invalid_args:'
p3415
sI7180
S'                raise SyntaxError(\'invalid table "%s" attributes: %s\' \\'
p3416
ssg3376
S'(self=<DAL uri="sqlite://storage.sqlite">, tablename=\'search\', *fields=(<gluon.dal.Field object>, <gluon.dal.Field object>, <gluon.dal.Field object>, <gluon.dal.Field object>, <gluon.dal.Field object>, <gluon.dal.Field object>, <gluon.dal.Field object>, <gluon.dal.Field object>, <gluon.dal.Field object>, <gluon.dal.Field object>, <gluon.dal.Field object>, <gluon.dal.Field object>, <gluon.dal.Field object>), **args={})'
p3417
sg3378
S'define_table'
p3418
sa(dp3419
g3355
S'/home/shipra/Desktop/Semester 1.2/ITWS-2/web2py/gluon/dal.py'
p3420
sg3357
(dp3421
S'backend.upper'
p3422
S'<built-in method upper of str object>'
p3423
sS'name'
p3424
S"'search'"
p3425
sS'backend'
p3426
S"'all'"
p3427
ssg3363
I6930
sg3364
(dp3428
I6925
S"        ['all']"
p3429
sI6926
S'        """'
p3430
sI6927
S'        for backend in self.check_reserved:'
p3431
sI6928
S'            if name.upper() in self.RSK[backend]:'
p3432
sI6929
S'                raise SyntaxError('
p3433
sI6930
S'                    \'invalid table/column name "%s" is a "%s" reserved SQL keyword\' % (name, backend.upper()))'
p3434
sI6931
S''
sI6932
S'    def parse_as_rest(self,patterns,args,vars,queries=None,nested_select=True):'
p3435
sI6933
S'        """'
p3436
sI6934
S'        EXAMPLE:'
p3437
ssg3376
S'(self=<DAL uri="sqlite://storage.sqlite">, name=\'search\')'
p3438
sg3378
S'check_reserved_keyword'
p3439
sasS'pyver'
p3440
S'Python 2.7.3: /usr/bin/python'
p3441
sS'session'
p3442
g69
(g70
g71
NtRp3443
(dp3444
g74
(dp3445
sg76
(lp3446
g69
(g78
g71
NtRp3447
(dp3448
g74
(dp3449
g82
I5
ssg83
Nsg76
(lp3450
sbasbsS'etype'
p3451
S"<type 'exceptions.SyntaxError'>"
p3452
sS'date'
p3453
S'Sun Apr 14 02:05:14 2013'
p3454
sS'response'
p3455
g69
(g70
g71
NtRp3456
(dp3457
g74
(dp3458
sg76
(lp3459
g69
(g78
g71
NtRp3460
(dp3461
g74
(dp3462
g82
I5
ssg83
Nsg76
(lp3463
g69
(g85
g71
NtRp3464
(dp3465
g74
(dp3466
sg83
g3460
sg76
(lp3467
g69
(g90
g71
NtRp3468
(dp3469
g74
(dp3470
g94
g95
ssg83
g3464
sg76
(lp3471
g167
asbag69
(g90
g71
NtRp3472
(dp3473
g74
(dp3474
g101
g102
ssg83
g3464
sg76
(lp3475
S':'
asbag69
(g90
g71
NtRp3476
(dp3477
g74
(dp3478
sg83
g3464
sg76
(lp3479
g69
(g70
g71
NtRp3480
(dp3481
g74
(dp3482
g82
I5
ssg83
g3476
sg76
(lp3483
S'<cStringIO.StringO object at 0x7fa1406ca340>'
p3484
asbasbasbag69
(g85
g71
NtRp3485
(dp3486
g74
(dp3487
sg83
g3460
sg76
(lp3488
g69
(g90
g71
NtRp3489
(dp3490
g74
(dp3491
g94
g95
ssg83
g3485
sg76
(lp3492
g255
asbag69
(g90
g71
NtRp3493
(dp3494
g74
(dp3495
g101
g102
ssg83
g3485
sg76
(lp3496
S':'
asbag69
(g90
g71
NtRp3497
(dp3498
g74
(dp3499
sg83
g3485
sg76
(lp3500
g69
(g70
g71
NtRp3501
(dp3502
g74
(dp3503
g82
I5
ssg83
g3497
sg76
(lp3504
g69
(g78
g71
NtRp3505
(dp3506
g74
(dp3507
g82
I4
ssg83
Nsg76
(lp3508
g69
(g85
g71
NtRp3509
(dp3510
g74
(dp3511
sg83
g3505
sg76
(lp3512
g69
(g90
g71
NtRp3513
(dp3514
g74
(dp3515
g94
g95
ssg83
g3509
sg76
(lp3516
S'session_id_shipra'
p3517
asbag69
(g90
g71
NtRp3518
(dp3519
g74
(dp3520
g101
g102
ssg83
g3509
sg76
(lp3521
S':'
asbag69
(g90
g71
NtRp3522
(dp3523
g74
(dp3524
sg83
g3509
sg76
(lp3525
g69
(g70
g71
NtRp3526
(dp3527
g74
(dp3528
g82
I4
ssg83
g3522
sg76
(lp3529
g673
ag69
(g78
g71
NtRp3530
(dp3531
g74
(dp3532
g82
I3
ssg83
Nsg76
(lp3533
g69
(g85
g71
NtRp3534
(dp3535
g74
(dp3536
sg83
g3530
sg76
(lp3537
g69
(g90
g71
NtRp3538
(dp3539
g74
(dp3540
g94
g95
ssg83
g3534
sg76
(lp3541
g306
asbag69
(g90
g71
NtRp3542
(dp3543
g74
(dp3544
g101
g102
ssg83
g3534
sg76
(lp3545
S':'
asbag69
(g90
g71
NtRp3546
(dp3547
g74
(dp3548
sg83
g3534
sg76
(lp3549
g69
(g70
g71
NtRp3550
(dp3551
g74
(dp3552
g82
I3
ssg83
g3546
sg76
(lp3553
S''
asbasbasbag69
(g85
g71
NtRp3554
(dp3555
g74
(dp3556
sg83
g3530
sg76
(lp3557
g69
(g90
g71
NtRp3558
(dp3559
g74
(dp3560
g94
g95
ssg83
g3554
sg76
(lp3561
g327
asbag69
(g90
g71
NtRp3562
(dp3563
g74
(dp3564
g101
g102
ssg83
g3554
sg76
(lp3565
S':'
asbag69
(g90
g71
NtRp3566
(dp3567
g74
(dp3568
sg83
g3554
sg76
(lp3569
g69
(g70
g71
NtRp3570
(dp3571
g74
(dp3572
g82
I3
ssg83
g3566
sg76
(lp3573
S''
asbasbasbag69
(g85
g71
NtRp3574
(dp3575
g74
(dp3576
sg83
g3530
sg76
(lp3577
g69
(g90
g71
NtRp3578
(dp3579
g74
(dp3580
g94
g95
ssg83
g3574
sg76
(lp3581
g348
asbag69
(g90
g71
NtRp3582
(dp3583
g74
(dp3584
g101
g102
ssg83
g3574
sg76
(lp3585
S':'
asbag69
(g90
g71
NtRp3586
(dp3587
g74
(dp3588
sg83
g3574
sg76
(lp3589
g69
(g70
g71
NtRp3590
(dp3591
g74
(dp3592
g82
I3
ssg83
g3586
sg76
(lp3593
S''
asbasbasbag69
(g85
g71
NtRp3594
(dp3595
g74
(dp3596
sg83
g3530
sg76
(lp3597
g69
(g90
g71
NtRp3598
(dp3599
g74
(dp3600
g94
g95
ssg83
g3594
sg76
(lp3601
g369
asbag69
(g90
g71
NtRp3602
(dp3603
g74
(dp3604
g101
g102
ssg83
g3594
sg76
(lp3605
S':'
asbag69
(g90
g71
NtRp3606
(dp3607
g74
(dp3608
sg83
g3594
sg76
(lp3609
g69
(g70
g71
NtRp3610
(dp3611
g74
(dp3612
g82
I3
ssg83
g3606
sg76
(lp3613
S''
asbasbasbag69
(g85
g71
NtRp3614
(dp3615
g74
(dp3616
sg83
g3530
sg76
(lp3617
g69
(g90
g71
NtRp3618
(dp3619
g74
(dp3620
g94
g95
ssg83
g3614
sg76
(lp3621
g390
asbag69
(g90
g71
NtRp3622
(dp3623
g74
(dp3624
g101
g102
ssg83
g3614
sg76
(lp3625
S':'
asbag69
(g90
g71
NtRp3626
(dp3627
g74
(dp3628
sg83
g3614
sg76
(lp3629
g69
(g70
g71
NtRp3630
(dp3631
g74
(dp3632
g82
I3
ssg83
g3626
sg76
(lp3633
S''
asbasbasbag69
(g85
g71
NtRp3634
(dp3635
g74
(dp3636
sg83
g3530
sg76
(lp3637
g69
(g90
g71
NtRp3638
(dp3639
g74
(dp3640
g94
g95
ssg83
g3634
sg76
(lp3641
g411
asbag69
(g90
g71
NtRp3642
(dp3643
g74
(dp3644
g101
g102
ssg83
g3634
sg76
(lp3645
S':'
asbag69
(g90
g71
NtRp3646
(dp3647
g74
(dp3648
sg83
g3634
sg76
(lp3649
g69
(g70
g71
NtRp3650
(dp3651
g74
(dp3652
g82
I3
ssg83
g3646
sg76
(lp3653
S'/'
asbasbasbag69
(g85
g71
NtRp3654
(dp3655
g74
(dp3656
sg83
g3530
sg76
(lp3657
g69
(g90
g71
NtRp3658
(dp3659
g74
(dp3660
g94
g95
ssg83
g3654
sg76
(lp3661
g432
asbag69
(g90
g71
NtRp3662
(dp3663
g74
(dp3664
g101
g102
ssg83
g3654
sg76
(lp3665
S':'
asbag69
(g90
g71
NtRp3666
(dp3667
g74
(dp3668
sg83
g3654
sg76
(lp3669
g69
(g70
g71
NtRp3670
(dp3671
g74
(dp3672
g82
I3
ssg83
g3666
sg76
(lp3673
S''
asbasbasbag69
(g85
g71
NtRp3674
(dp3675
g74
(dp3676
sg83
g3530
sg76
(lp3677
g69
(g90
g71
NtRp3678
(dp3679
g74
(dp3680
g94
g95
ssg83
g3674
sg76
(lp3681
g453
asbag69
(g90
g71
NtRp3682
(dp3683
g74
(dp3684
g101
g102
ssg83
g3674
sg76
(lp3685
S':'
asbag69
(g90
g71
NtRp3686
(dp3687
g74
(dp3688
sg83
g3674
sg76
(lp3689
g69
(g70
g71
NtRp3690
(dp3691
g74
(dp3692
g82
I3
ssg83
g3686
sg76
(lp3693
S''
asbasbasbasbasbasbasbasbasbasbasbag69
(g85
g71
NtRp3694
(dp3695
g74
(dp3696
sg83
g3460
sg76
(lp3697
g69
(g90
g71
NtRp3698
(dp3699
g74
(dp3700
g94
g95
ssg83
g3694
sg76
(lp3701
S'delimiters'
p3702
asbag69
(g90
g71
NtRp3703
(dp3704
g74
(dp3705
g101
g102
ssg83
g3694
sg76
(lp3706
S':'
asbag69
(g90
g71
NtRp3707
(dp3708
g74
(dp3709
sg83
g3694
sg76
(lp3710
g69
(g70
g71
NtRp3711
(dp3712
g74
(dp3713
g82
I5
ssg83
g3707
sg76
(lp3714
g69
(g78
g71
NtRp3715
(dp3716
g74
(dp3717
g82
I4
ssg83
Nsg76
(lp3718
g69
(g85
g71
NtRp3719
(dp3720
g74
(dp3721
sg83
g3715
sg76
(lp3722
g69
(g90
g71
NtRp3723
(dp3724
g74
(dp3725
sg83
g3719
sg76
(lp3726
g69
(g70
g71
NtRp3727
(dp3728
g74
(dp3729
g82
I4
ssg83
g3723
sg76
(lp3730
S'{{'
p3731
asbasbasbag69
(g85
g71
NtRp3732
(dp3733
g74
(dp3734
sg83
g3715
sg76
(lp3735
g69
(g90
g71
NtRp3736
(dp3737
g74
(dp3738
sg83
g3732
sg76
(lp3739
g69
(g70
g71
NtRp3740
(dp3741
g74
(dp3742
g82
I4
ssg83
g3736
sg76
(lp3743
S'}}'
p3744
asbasbasbasbasbasbasbag69
(g85
g71
NtRp3745
(dp3746
g74
(dp3747
sg83
g3460
sg76
(lp3748
g69
(g90
g71
NtRp3749
(dp3750
g74
(dp3751
g94
g95
ssg83
g3745
sg76
(lp3752
S'files'
p3753
asbag69
(g90
g71
NtRp3754
(dp3755
g74
(dp3756
g101
g102
ssg83
g3745
sg76
(lp3757
S':'
asbag69
(g90
g71
NtRp3758
(dp3759
g74
(dp3760
sg83
g3745
sg76
(lp3761
g69
(g70
g71
NtRp3762
(dp3763
g74
(dp3764
g82
I5
ssg83
g3758
sg76
(lp3765
g69
(g78
g71
NtRp3766
(dp3767
g74
(dp3768
g82
I4
ssg83
Nsg76
(lp3769
sbasbasbasbag69
(g85
g71
NtRp3770
(dp3771
g74
(dp3772
sg83
g3460
sg76
(lp3773
g69
(g90
g71
NtRp3774
(dp3775
g74
(dp3776
g94
g95
ssg83
g3770
sg76
(lp3777
S'flash'
p3778
asbag69
(g90
g71
NtRp3779
(dp3780
g74
(dp3781
g101
g102
ssg83
g3770
sg76
(lp3782
S':'
asbag69
(g90
g71
NtRp3783
(dp3784
g74
(dp3785
sg83
g3770
sg76
(lp3786
g69
(g70
g71
NtRp3787
(dp3788
g74
(dp3789
g82
I5
ssg83
g3783
sg76
(lp3790
S''
asbasbasbag69
(g85
g71
NtRp3791
(dp3792
g74
(dp3793
sg83
g3460
sg76
(lp3794
g69
(g90
g71
NtRp3795
(dp3796
g74
(dp3797
g94
g95
ssg83
g3791
sg76
(lp3798
S'generic_patterns'
p3799
asbag69
(g90
g71
NtRp3800
(dp3801
g74
(dp3802
g101
g102
ssg83
g3791
sg76
(lp3803
S':'
asbag69
(g90
g71
NtRp3804
(dp3805
g74
(dp3806
sg83
g3791
sg76
(lp3807
g69
(g70
g71
NtRp3808
(dp3809
g74
(dp3810
g82
I5
ssg83
g3804
sg76
(lp3811
g69
(g78
g71
NtRp3812
(dp3813
g74
(dp3814
g82
I4
ssg83
Nsg76
(lp3815
g69
(g85
g71
NtRp3816
(dp3817
g74
(dp3818
sg83
g3812
sg76
(lp3819
g69
(g90
g71
NtRp3820
(dp3821
g74
(dp3822
sg83
g3816
sg76
(lp3823
g69
(g70
g71
NtRp3824
(dp3825
g74
(dp3826
g82
I4
ssg83
g3820
sg76
(lp3827
S'*'
asbasbasbasbasbasbasbag69
(g85
g71
NtRp3828
(dp3829
g74
(dp3830
sg83
g3460
sg76
(lp3831
g69
(g90
g71
NtRp3832
(dp3833
g74
(dp3834
g94
g95
ssg83
g3828
sg76
(lp3835
S'headers'
p3836
asbag69
(g90
g71
NtRp3837
(dp3838
g74
(dp3839
g101
g102
ssg83
g3828
sg76
(lp3840
S':'
asbag69
(g90
g71
NtRp3841
(dp3842
g74
(dp3843
sg83
g3828
sg76
(lp3844
g69
(g70
g71
NtRp3845
(dp3846
g74
(dp3847
g82
I5
ssg83
g3841
sg76
(lp3848
g69
(g78
g71
NtRp3849
(dp3850
g74
(dp3851
g82
I4
ssg83
Nsg76
(lp3852
g69
(g85
g71
NtRp3853
(dp3854
g74
(dp3855
sg83
g3849
sg76
(lp3856
g69
(g90
g71
NtRp3857
(dp3858
g74
(dp3859
g94
g95
ssg83
g3853
sg76
(lp3860
S'X-Powered-By'
p3861
asbag69
(g90
g71
NtRp3862
(dp3863
g74
(dp3864
g101
g102
ssg83
g3853
sg76
(lp3865
S':'
asbag69
(g90
g71
NtRp3866
(dp3867
g74
(dp3868
sg83
g3853
sg76
(lp3869
g69
(g70
g71
NtRp3870
(dp3871
g74
(dp3872
g82
I4
ssg83
g3866
sg76
(lp3873
S'web2py'
p3874
asbasbasbasbasbasbasbag69
(g85
g71
NtRp3875
(dp3876
g74
(dp3877
sg83
g3460
sg76
(lp3878
g69
(g90
g71
NtRp3879
(dp3880
g74
(dp3881
g94
g95
ssg83
g3875
sg76
(lp3882
S'menu'
p3883
asbag69
(g90
g71
NtRp3884
(dp3885
g74
(dp3886
g101
g102
ssg83
g3875
sg76
(lp3887
S':'
asbag69
(g90
g71
NtRp3888
(dp3889
g74
(dp3890
sg83
g3875
sg76
(lp3891
g69
(g70
g71
NtRp3892
(dp3893
g74
(dp3894
g82
I5
ssg83
g3888
sg76
(lp3895
g69
(g78
g71
NtRp3896
(dp3897
g74
(dp3898
g82
I4
ssg83
Nsg76
(lp3899
sbasbasbasbag69
(g85
g71
NtRp3900
(dp3901
g74
(dp3902
sg83
g3460
sg76
(lp3903
g69
(g90
g71
NtRp3904
(dp3905
g74
(dp3906
g94
g95
ssg83
g3900
sg76
(lp3907
S'meta'
p3908
asbag69
(g90
g71
NtRp3909
(dp3910
g74
(dp3911
g101
g102
ssg83
g3900
sg76
(lp3912
S':'
asbag69
(g90
g71
NtRp3913
(dp3914
g74
(dp3915
sg83
g3900
sg76
(lp3916
g69
(g70
g71
NtRp3917
(dp3918
g74
(dp3919
g82
I5
ssg83
g3913
sg76
(lp3920
g69
(g78
g71
NtRp3921
(dp3922
g74
(dp3923
g82
I4
ssg83
Nsg76
(lp3924
sbasbasbasbag69
(g85
g71
NtRp3925
(dp3926
g74
(dp3927
sg83
g3460
sg76
(lp3928
g69
(g90
g71
NtRp3929
(dp3930
g74
(dp3931
g94
g95
ssg83
g3925
sg76
(lp3932
S'models_to_run'
p3933
asbag69
(g90
g71
NtRp3934
(dp3935
g74
(dp3936
g101
g102
ssg83
g3925
sg76
(lp3937
S':'
asbag69
(g90
g71
NtRp3938
(dp3939
g74
(dp3940
sg83
g3925
sg76
(lp3941
g69
(g70
g71
NtRp3942
(dp3943
g74
(dp3944
g82
I5
ssg83
g3938
sg76
(lp3945
g69
(g78
g71
NtRp3946
(dp3947
g74
(dp3948
g82
I4
ssg83
Nsg76
(lp3949
g69
(g85
g71
NtRp3950
(dp3951
g74
(dp3952
sg83
g3946
sg76
(lp3953
g69
(g90
g71
NtRp3954
(dp3955
g74
(dp3956
sg83
g3950
sg76
(lp3957
g69
(g70
g71
NtRp3958
(dp3959
g74
(dp3960
g82
I4
ssg83
g3954
sg76
(lp3961
S'^\\w+\\.py$'
p3962
asbasbasbag69
(g85
g71
NtRp3963
(dp3964
g74
(dp3965
sg83
g3946
sg76
(lp3966
g69
(g90
g71
NtRp3967
(dp3968
g74
(dp3969
sg83
g3963
sg76
(lp3970
g69
(g70
g71
NtRp3971
(dp3972
g74
(dp3973
g82
I4
ssg83
g3967
sg76
(lp3974
S'^default/\\w+\\.py$'
p3975
asbasbasbag69
(g85
g71
NtRp3976
(dp3977
g74
(dp3978
sg83
g3946
sg76
(lp3979
g69
(g90
g71
NtRp3980
(dp3981
g74
(dp3982
sg83
g3976
sg76
(lp3983
g69
(g70
g71
NtRp3984
(dp3985
g74
(dp3986
g82
I4
ssg83
g3980
sg76
(lp3987
S'^default/input/\\w+\\.py$'
p3988
asbasbasbasbasbasbasbag69
(g85
g71
NtRp3989
(dp3990
g74
(dp3991
sg83
g3460
sg76
(lp3992
g69
(g90
g71
NtRp3993
(dp3994
g74
(dp3995
g94
g95
ssg83
g3989
sg76
(lp3996
S'postprocessing'
p3997
asbag69
(g90
g71
NtRp3998
(dp3999
g74
(dp4000
g101
g102
ssg83
g3989
sg76
(lp4001
S':'
asbag69
(g90
g71
NtRp4002
(dp4003
g74
(dp4004
sg83
g3989
sg76
(lp4005
g69
(g70
g71
NtRp4006
(dp4007
g74
(dp4008
g82
I5
ssg83
g4002
sg76
(lp4009
g69
(g78
g71
NtRp4010
(dp4011
g74
(dp4012
g82
I4
ssg83
Nsg76
(lp4013
sbasbasbasbag69
(g85
g71
NtRp4014
(dp4015
g74
(dp4016
sg83
g3460
sg76
(lp4017
g69
(g90
g71
NtRp4018
(dp4019
g74
(dp4020
g94
g95
ssg83
g4014
sg76
(lp4021
S'session_cookie_expires'
p4022
asbag69
(g90
g71
NtRp4023
(dp4024
g74
(dp4025
g101
g102
ssg83
g4014
sg76
(lp4026
S':'
asbag69
(g90
g71
NtRp4027
(dp4028
g74
(dp4029
sg83
g4014
sg76
(lp4030
g69
(g70
g71
NtRp4031
(dp4032
g74
(dp4033
g82
I5
ssg83
g4027
sg76
(lp4034
S'None'
p4035
asbasbasbag69
(g85
g71
NtRp4036
(dp4037
g74
(dp4038
sg83
g3460
sg76
(lp4039
g69
(g90
g71
NtRp4040
(dp4041
g74
(dp4042
g94
g95
ssg83
g4036
sg76
(lp4043
S'session_data_name'
p4044
asbag69
(g90
g71
NtRp4045
(dp4046
g74
(dp4047
g101
g102
ssg83
g4036
sg76
(lp4048
S':'
asbag69
(g90
g71
NtRp4049
(dp4050
g74
(dp4051
sg83
g4036
sg76
(lp4052
g69
(g70
g71
NtRp4053
(dp4054
g74
(dp4055
g82
I5
ssg83
g4049
sg76
(lp4056
S'session_data_shipra'
p4057
asbasbasbag69
(g85
g71
NtRp4058
(dp4059
g74
(dp4060
sg83
g3460
sg76
(lp4061
g69
(g90
g71
NtRp4062
(dp4063
g74
(dp4064
g94
g95
ssg83
g4058
sg76
(lp4065
S'session_file'
p4066
asbag69
(g90
g71
NtRp4067
(dp4068
g74
(dp4069
g101
g102
ssg83
g4058
sg76
(lp4070
S':'
asbag69
(g90
g71
NtRp4071
(dp4072
g74
(dp4073
sg83
g4058
sg76
(lp4074
g69
(g70
g71
NtRp4075
(dp4076
g74
(dp4077
g82
I5
ssg83
g4071
sg76
(lp4078
S"<open file '/home/shipra/Desktop/Semester 1.2/ITWS-2/web2py/applications/shipra/sessions/127.0.0.1-8efdbcdb-aaef-4416-8653-cc0a67656b30', mode 'rb+' at 0x7fa14c2f88a0>"
p4079
asbasbasbag69
(g85
g71
NtRp4080
(dp4081
g74
(dp4082
sg83
g3460
sg76
(lp4083
g69
(g90
g71
NtRp4084
(dp4085
g74
(dp4086
g94
g95
ssg83
g4080
sg76
(lp4087
S'session_filename'
p4088
asbag69
(g90
g71
NtRp4089
(dp4090
g74
(dp4091
g101
g102
ssg83
g4080
sg76
(lp4092
S':'
asbag69
(g90
g71
NtRp4093
(dp4094
g74
(dp4095
sg83
g4080
sg76
(lp4096
g69
(g70
g71
NtRp4097
(dp4098
g74
(dp4099
g82
I5
ssg83
g4093
sg76
(lp4100
S'/home/shipra/Desktop/Semester 1.2/ITWS-2/web2py/applications/shipra/sessions/127.0.0.1-8efdbcdb-aaef-4416-8653-cc0a67656b30'
p4101
asbasbasbag69
(g85
g71
NtRp4102
(dp4103
g74
(dp4104
sg83
g3460
sg76
(lp4105
g69
(g90
g71
NtRp4106
(dp4107
g74
(dp4108
g94
g95
ssg83
g4102
sg76
(lp4109
S'session_id'
p4110
asbag69
(g90
g71
NtRp4111
(dp4112
g74
(dp4113
g101
g102
ssg83
g4102
sg76
(lp4114
S':'
asbag69
(g90
g71
NtRp4115
(dp4116
g74
(dp4117
sg83
g4102
sg76
(lp4118
g69
(g70
g71
NtRp4119
(dp4120
g74
(dp4121
g82
I5
ssg83
g4115
sg76
(lp4122
g673
asbasbasbag69
(g85
g71
NtRp4123
(dp4124
g74
(dp4125
sg83
g3460
sg76
(lp4126
g69
(g90
g71
NtRp4127
(dp4128
g74
(dp4129
g94
g95
ssg83
g4123
sg76
(lp4130
S'session_id_name'
p4131
asbag69
(g90
g71
NtRp4132
(dp4133
g74
(dp4134
g101
g102
ssg83
g4123
sg76
(lp4135
S':'
asbag69
(g90
g71
NtRp4136
(dp4137
g74
(dp4138
sg83
g4123
sg76
(lp4139
g69
(g70
g71
NtRp4140
(dp4141
g74
(dp4142
g82
I5
ssg83
g4136
sg76
(lp4143
g3517
asbasbasbag69
(g85
g71
NtRp4144
(dp4145
g74
(dp4146
sg83
g3460
sg76
(lp4147
g69
(g90
g71
NtRp4148
(dp4149
g74
(dp4150
g94
g95
ssg83
g4144
sg76
(lp4151
S'session_locked'
p4152
asbag69
(g90
g71
NtRp4153
(dp4154
g74
(dp4155
g101
g102
ssg83
g4144
sg76
(lp4156
S':'
asbag69
(g90
g71
NtRp4157
(dp4158
g74
(dp4159
sg83
g4144
sg76
(lp4160
g69
(g70
g71
NtRp4161
(dp4162
g74
(dp4163
g82
I5
ssg83
g4157
sg76
(lp4164
g1945
asbasbasbag69
(g85
g71
NtRp4165
(dp4166
g74
(dp4167
sg83
g3460
sg76
(lp4168
g69
(g90
g71
NtRp4169
(dp4170
g74
(dp4171
g94
g95
ssg83
g4165
sg76
(lp4172
S'session_new'
p4173
asbag69
(g90
g71
NtRp4174
(dp4175
g74
(dp4176
g101
g102
ssg83
g4165
sg76
(lp4177
S':'
asbag69
(g90
g71
NtRp4178
(dp4179
g74
(dp4180
sg83
g4165
sg76
(lp4181
g69
(g70
g71
NtRp4182
(dp4183
g74
(dp4184
g82
I5
ssg83
g4178
sg76
(lp4185
g112
asbasbasbag69
(g85
g71
NtRp4186
(dp4187
g74
(dp4188
sg83
g3460
sg76
(lp4189
g69
(g90
g71
NtRp4190
(dp4191
g74
(dp4192
g94
g95
ssg83
g4186
sg76
(lp4193
S'session_storage_type'
p4194
asbag69
(g90
g71
NtRp4195
(dp4196
g74
(dp4197
g101
g102
ssg83
g4186
sg76
(lp4198
S':'
asbag69
(g90
g71
NtRp4199
(dp4200
g74
(dp4201
sg83
g4186
sg76
(lp4202
g69
(g70
g71
NtRp4203
(dp4204
g74
(dp4205
g82
I5
ssg83
g4199
sg76
(lp4206
g3355
asbasbasbag69
(g85
g71
NtRp4207
(dp4208
g74
(dp4209
sg83
g3460
sg76
(lp4210
g69
(g90
g71
NtRp4211
(dp4212
g74
(dp4213
g94
g95
ssg83
g4207
sg76
(lp4214
S'status'
p4215
asbag69
(g90
g71
NtRp4216
(dp4217
g74
(dp4218
g101
g102
ssg83
g4207
sg76
(lp4219
S':'
asbag69
(g90
g71
NtRp4220
(dp4221
g74
(dp4222
sg83
g4207
sg76
(lp4223
g69
(g70
g71
NtRp4224
(dp4225
g74
(dp4226
g82
I5
ssg83
g4220
sg76
(lp4227
S'200'
p4228
asbasbasbag69
(g85
g71
NtRp4229
(dp4230
g74
(dp4231
sg83
g3460
sg76
(lp4232
g69
(g90
g71
NtRp4233
(dp4234
g74
(dp4235
g94
g95
ssg83
g4229
sg76
(lp4236
S'view'
p4237
asbag69
(g90
g71
NtRp4238
(dp4239
g74
(dp4240
g101
g102
ssg83
g4229
sg76
(lp4241
S':'
asbag69
(g90
g71
NtRp4242
(dp4243
g74
(dp4244
sg83
g4229
sg76
(lp4245
g69
(g70
g71
NtRp4246
(dp4247
g74
(dp4248
g82
I5
ssg83
g4242
sg76
(lp4249
S'default/input.html'
p4250
asbasbasbasbasbsS'locals'
p4251
(dp4252
S'self'
p4253
S'<DAL uri="sqlite://storage.sqlite">'
p4254
sS'name'
p4255
S"'search'"
p4256
sS'backend'
p4257
S"'all'"
p4258
sssS'traceback'
p4259
S'Traceback (most recent call last):\n  File "/home/shipra/Desktop/Semester 1.2/ITWS-2/web2py/gluon/restricted.py", line 212, in restricted\n    exec ccode in environment\n  File "/home/shipra/Desktop/Semester 1.2/ITWS-2/web2py/applications/shipra/models/db.py", line 120, in <module>\n    db.Field(\'Post\',\'string\'))\n  File "/home/shipra/Desktop/Semester 1.2/ITWS-2/web2py/gluon/dal.py", line 7176, in define_table\n    self.check_reserved_keyword(tablename)\n  File "/home/shipra/Desktop/Semester 1.2/ITWS-2/web2py/gluon/dal.py", line 6930, in check_reserved_keyword\n    \'invalid table/column name "%s" is a "%s" reserved SQL keyword\' % (name, backend.upper()))\nSyntaxError: invalid table/column name "search" is a "ALL" reserved SQL keyword\n'
p4260
s.