(dp1
S'output'
p2
S"<type 'exceptions.SyntaxError'> invalid syntax (default.py, line 44)"
p3
sS'layer'
p4
S'/home/shipra/Desktop/Semester 1.2/ITWS-2/web2py/applications/shipra/controllers/default.py'
p5
sS'code'
p6
S'# -*- coding: utf-8 -*-\n# this file is released under public domain and you can use without limitations\n\n#########################################################################\n## This is a samples controller\n## - index is the default action of any application\n## - user is required for authentication and authorization\n## - download is for downloading files uploaded in the db (does streaming)\n## - call exposes all registered services (none by default)\n#########################################################################\n\n@auth.requires_login()\ndef index():\n    """\n    example action using the internationalization operator T and flash\n    rendered by views/default/index.html or views/generic.html\n\n    if you need a simple wiki simple replace the two lines below with:\n    return auth.wiki()\n    """\n    c=auth.user_id\n    response.flash = T("Welcome to web2py!")\n    return locals()\n    #return dict(message=T(\'Hello World\'))\ndef input():\n\tform=SQLFORM(db.serch)\n\tif form.process().accepted:\n\t\tresponse.flash=\'form accepted\'\n\telif form.errors:\n\t\tresponse.flash=\'form has errors\'\n\treturn dict(form=form)\n\ndef find():\n\ti_n=[]\n\tc=[]\n\tflag=0\n\tc=request.post._vars\n\tcode=db(c[0][\'id\']==db.serch.id).select(db.serch.ALL)\n\treturn locals()\nimport re\ndef resume_search():\n\tform=SQLFORM.factory(\n\t\tField(\'search_by\',requires = IS_IN_SET([\'Firstname\',\'Lastname\',\'Email\']))\n\t\tField(\'search_item\'))\n\tacc=db(db.id>0).select(db.auth_user.ALL)\n\n\tif form.process().accepted:\n\t\tsearch_by = form.vars.search_by\n\t\tsearch_item= form.vars.search_item\n\n\tif search_by == "Firstname":\n\t\tfor j in acc:\n\t\t\tif re.search(search_item,j[\'first_name\'],re.IGNORECASE)!=None:\n\t\t\t\tflag=1\n\t\t\t\tc.append(j[\'first_name\'])\n\t\t\t\ti_n.append(j[\'id\'])\n\t\t\tif flag!=1:\n\t\t\t\tc.append("Not Found")\n\t\t\t\ti_n.append("")\nreturn locals()\n\n@auth.requires_login()\ndef Personal():\n\tc=auth.user_id\n\tdb.Personal.pid.default=c\n\tdb.Personal.pid.readable=True\n\tdb.Personal.pid.writable=False\n\tform=SQLFORM(db.Personal)\n\tif form.process().accepted:\n\t\tresponse.flash=\'form accepted\'\n\telif form.errors:\n\t\tresponse.flash = \'form has errors\'\n\treturn dict(form=form)\ndef Education():\n\tc=auth.user_id\n\tdb.Education.eid.default=c\n\tdb.Education.eid.readable=True\n\tdb.Education.eid.writable=False\n\tform=SQLFORM(db.Education)\n\tif form.process().accepted:\n\t\tresponse.flash=\'form accepted\'\n\telif form.errors:\n\t\tresponse.flash=\'form has errors\'\n\treturn dict(form=form)\ndef Merit():\t\n\tc=auth.user_id\n\tdb.Merit.mid.default=c\n\tdb.Merit.mid.readable=True\n\tdb.Merit.mid.writable=False\n\tform=SQLFORM(db.Merit)\n\tif form.process().accepted:\n\t\tresponse.flash=\'form accepted\'\n\telif form.errors:\n\t\tresponse.flash=\'form has errors\'\n\treturn dict(form=form)\n\ndef Experience():\n\tc=auth.user_id\n\tdb.Experience.exid.default=c\n\tdb.Experience.exid.readable=True\n\tdb.Experience.exid.writable=False\n\tform=SQLFORM(db.Experience)\n\tif form.process().accepted:\n\t\tresponse.flash=\'form accepted\'\n\telif form.errors:\n\t\tresponse.flash=\'form has errors\'\n\treturn dict(form=form)\ndef create():\n\treturn locals()\n\ndef prin():\n\tc=auth.user_id\n\tcont=db(db.auth_user.id==c).select(db.auth_user.ALL)\n\tpers=db(db.Personal.pid==c).select(db.Personal.ALL)\n\tedu=db(db.Education.eid==c).select(db.Education.ALL)\n\tmer=db(db.Merit.mid==c).select(db.Merit.ALL)\n\texp=db(db.Experience.exid==c).select(db.Experience.ALL)\n\treturn locals()\n\ndef user():\n    """\n    exposes:\n    http://..../[app]/default/user/login\n    http://..../[app]/default/user/logout\n    http://..../[app]/default/user/register\n    http://..../[app]/default/user/profile\n    http://..../[app]/default/user/retrieve_password\n    http://..../[app]/default/user/change_password\n    use @auth.requires_login()\n        @auth.requires_membership(\'group name\')\n        @auth.requires_permission(\'read\',\'table name\',record_id)\n    to decorate functions that need access control\n    """\n    return dict(form=auth())\n\n\ndef download():\n    """\n    allows downloading of uploaded files\n    http://..../[app]/default/download/[filename]\n    """\n    return response.download(request, db)\n\n\ndef call():\n    """\n    exposes services. for example:\n    http://..../[app]/default/call/jsonrpc\n    decorate with @services.jsonrpc the functions to expose\n    supports xml, json, xmlrpc, jsonrpc, amfrpc, rss, csv\n    """\n    return service()\n\n\n@auth.requires_signature()\ndef data():\n    """\n    http://..../[app]/default/data/tables\n    http://..../[app]/default/data/create/[table]\n    http://..../[app]/default/data/read/[table]/[id]\n    http://..../[app]/default/data/update/[table]/[id]\n    http://..../[app]/default/data/delete/[table]/[id]\n    http://..../[app]/default/data/select/[table]\n    http://..../[app]/default/data/search/[table]\n    but URLs must be signed, i.e. linked with\n      A(\'table\',_href=URL(\'data/tables\',user_signature=True))\n    or with the signed load operator\n      LOAD(\'default\',\'data.load\',args=\'tables\',ajax=True,user_signature=True)\n    """\n    return dict(form=crud())\n\nresponse._vars=response._caller(resume_search)\n'
p7
sS'snapshot'
p8
(dp9
S'exception'
p10
(dp11
S'__getslice__'
p12
S"<method-wrapper '__getslice__' of exceptions.SyntaxError object>"
p13
sS'text'
p14
S'"\\t\\tField(\'search_item\'))\\n"'
p15
sS'__str__'
p16
S"<method-wrapper '__str__' of exceptions.SyntaxError object>"
p17
sS'__reduce__'
p18
S'<built-in method __reduce__ of exceptions.SyntaxError object>'
p19
sS'__dict__'
p20
S'{}'
p21
sS'__sizeof__'
p22
S'<built-in method __sizeof__ of exceptions.SyntaxError object>'
p23
sS'__init__'
p24
S"<method-wrapper '__init__' of exceptions.SyntaxError object>"
p25
sS'__setattr__'
p26
S"<method-wrapper '__setattr__' of exceptions.SyntaxError object>"
p27
sS'__reduce_ex__'
p28
S'<built-in method __reduce_ex__ of exceptions.SyntaxError object>'
p29
sS'__new__'
p30
S'<built-in method __new__ of type object>'
p31
sS'__format__'
p32
S'<built-in method __format__ of exceptions.SyntaxError object>'
p33
sS'__class__'
p34
S"<type 'exceptions.SyntaxError'>"
p35
sS'filename'
p36
S"'/home/shipra/Desktop/Semester 1.2/ITWS-2/web2py/applications/shipra/controllers/default.py'"
p37
sS'lineno'
p38
S'44'
p39
sS'msg'
p40
S"'invalid syntax'"
p41
sS'__doc__'
p42
S"'Invalid syntax.'"
p43
sS'__getitem__'
p44
S"<method-wrapper '__getitem__' of exceptions.SyntaxError object>"
p45
sS'__setstate__'
p46
S'<built-in method __setstate__ of exceptions.SyntaxError object>'
p47
sS'__getattribute__'
p48
S"<method-wrapper '__getattribute__' of exceptions.SyntaxError object>"
p49
sS'print_file_and_line'
p50
S'None'
p51
sS'args'
p52
S'(\'invalid syntax\', (\'/home/shipra/Desktop/Semester 1.2/ITWS-2/web2py/applications/shipra/controllers/default.py\', 44, 7, "\\t\\tField(\'search_item\'))\\n"))'
p53
sS'__subclasshook__'
p54
S'<built-in method __subclasshook__ of type object>'
p55
sS'offset'
p56
S'7'
sS'__unicode__'
p57
S'<built-in method __unicode__ of exceptions.SyntaxError object>'
p58
sS'__delattr__'
p59
S"<method-wrapper '__delattr__' of exceptions.SyntaxError object>"
p60
sS'__repr__'
p61
S"<method-wrapper '__repr__' of exceptions.SyntaxError object>"
p62
sS'__hash__'
p63
S"<method-wrapper '__hash__' of exceptions.SyntaxError object>"
p64
ssS'evalue'
p65
S'invalid syntax (default.py, line 44)'
p66
sS'request'
p67
ccopy_reg
_reconstructor
p68
(cgluon.html
BEAUTIFY
p69
c__builtin__
object
p70
NtRp71
(dp72
S'attributes'
p73
(dp74
sS'components'
p75
(lp76
g68
(cgluon.html
TABLE
p77
g70
NtRp78
(dp79
g73
(dp80
S'level'
p81
I5
ssS'parent'
p82
Nsg75
(lp83
g68
(cgluon.html
TR
p84
g70
NtRp85
(dp86
g73
(dp87
sg82
g78
sg75
(lp88
g68
(cgluon.html
TD
p89
g70
NtRp90
(dp91
g73
(dp92
S'_style'
p93
S'font-weight:bold;vertical-align:top'
p94
ssg82
g85
sg75
(lp95
S'ajax'
p96
asbag68
(g89
g70
NtRp97
(dp98
g73
(dp99
S'_valign'
p100
S'top'
p101
ssg82
g85
sg75
(lp102
S':'
asbag68
(g89
g70
NtRp103
(dp104
g73
(dp105
sg82
g85
sg75
(lp106
g68
(g69
g70
NtRp107
(dp108
g73
(dp109
g81
I5
ssg82
g103
sg75
(lp110
S'False'
p111
asbasbasbag68
(g84
g70
NtRp112
(dp113
g73
(dp114
sg82
g78
sg75
(lp115
g68
(g89
g70
NtRp116
(dp117
g73
(dp118
g93
g94
ssg82
g112
sg75
(lp119
S'application'
p120
asbag68
(g89
g70
NtRp121
(dp122
g73
(dp123
g100
g101
ssg82
g112
sg75
(lp124
S':'
asbag68
(g89
g70
NtRp125
(dp126
g73
(dp127
sg82
g112
sg75
(lp128
g68
(g69
g70
NtRp129
(dp130
g73
(dp131
g81
I5
ssg82
g125
sg75
(lp132
S'shipra'
p133
asbasbasbag68
(g84
g70
NtRp134
(dp135
g73
(dp136
sg82
g78
sg75
(lp137
g68
(g89
g70
NtRp138
(dp139
g73
(dp140
g93
g94
ssg82
g134
sg75
(lp141
g52
asbag68
(g89
g70
NtRp142
(dp143
g73
(dp144
g100
g101
ssg82
g134
sg75
(lp145
S':'
asbag68
(g89
g70
NtRp146
(dp147
g73
(dp148
sg82
g134
sg75
(lp149
g68
(g69
g70
NtRp150
(dp151
g73
(dp152
g81
I5
ssg82
g146
sg75
(lp153
g68
(g77
g70
NtRp154
(dp155
g73
(dp156
g81
I4
ssg82
Nsg75
(lp157
sbasbasbasbag68
(g84
g70
NtRp158
(dp159
g73
(dp160
sg82
g78
sg75
(lp161
g68
(g89
g70
NtRp162
(dp163
g73
(dp164
g93
g94
ssg82
g158
sg75
(lp165
S'body'
p166
asbag68
(g89
g70
NtRp167
(dp168
g73
(dp169
g100
g101
ssg82
g158
sg75
(lp170
S':'
asbag68
(g89
g70
NtRp171
(dp172
g73
(dp173
sg82
g158
sg75
(lp174
g68
(g69
g70
NtRp175
(dp176
g73
(dp177
g81
I5
ssg82
g171
sg75
(lp178
S'<cStringIO.StringO object at 0x7ffcac7d92d0>'
p179
asbasbasbag68
(g84
g70
NtRp180
(dp181
g73
(dp182
sg82
g78
sg75
(lp183
g68
(g89
g70
NtRp184
(dp185
g73
(dp186
g93
g94
ssg82
g180
sg75
(lp187
S'cid'
p188
asbag68
(g89
g70
NtRp189
(dp190
g73
(dp191
g100
g101
ssg82
g180
sg75
(lp192
S':'
asbag68
(g89
g70
NtRp193
(dp194
g73
(dp195
sg82
g180
sg75
(lp196
g68
(g69
g70
NtRp197
(dp198
g73
(dp199
g81
I5
ssg82
g193
sg75
(lp200
S'None'
p201
asbasbasbag68
(g84
g70
NtRp202
(dp203
g73
(dp204
sg82
g78
sg75
(lp205
g68
(g89
g70
NtRp206
(dp207
g73
(dp208
g93
g94
ssg82
g202
sg75
(lp209
S'client'
p210
asbag68
(g89
g70
NtRp211
(dp212
g73
(dp213
g100
g101
ssg82
g202
sg75
(lp214
S':'
asbag68
(g89
g70
NtRp215
(dp216
g73
(dp217
sg82
g202
sg75
(lp218
g68
(g69
g70
NtRp219
(dp220
g73
(dp221
g81
I5
ssg82
g215
sg75
(lp222
S'127.0.0.1'
p223
asbasbasbag68
(g84
g70
NtRp224
(dp225
g73
(dp226
sg82
g78
sg75
(lp227
g68
(g89
g70
NtRp228
(dp229
g73
(dp230
g93
g94
ssg82
g224
sg75
(lp231
S'controller'
p232
asbag68
(g89
g70
NtRp233
(dp234
g73
(dp235
g100
g101
ssg82
g224
sg75
(lp236
S':'
asbag68
(g89
g70
NtRp237
(dp238
g73
(dp239
sg82
g224
sg75
(lp240
g68
(g69
g70
NtRp241
(dp242
g73
(dp243
g81
I5
ssg82
g237
sg75
(lp244
S'default'
p245
asbasbasbag68
(g84
g70
NtRp246
(dp247
g73
(dp248
sg82
g78
sg75
(lp249
g68
(g89
g70
NtRp250
(dp251
g73
(dp252
g93
g94
ssg82
g246
sg75
(lp253
S'cookies'
p254
asbag68
(g89
g70
NtRp255
(dp256
g73
(dp257
g100
g101
ssg82
g246
sg75
(lp258
S':'
asbag68
(g89
g70
NtRp259
(dp260
g73
(dp261
sg82
g246
sg75
(lp262
g68
(g69
g70
NtRp263
(dp264
g73
(dp265
g81
I5
ssg82
g259
sg75
(lp266
g68
(g77
g70
NtRp267
(dp268
g73
(dp269
g81
I4
ssg82
Nsg75
(lp270
g68
(g84
g70
NtRp271
(dp272
g73
(dp273
sg82
g267
sg75
(lp274
g68
(g89
g70
NtRp275
(dp276
g73
(dp277
g93
g94
ssg82
g271
sg75
(lp278
S'mp_2093ad9ff9c5428a2228386de2f2b0e4_mixpanel'
p279
asbag68
(g89
g70
NtRp280
(dp281
g73
(dp282
g100
g101
ssg82
g271
sg75
(lp283
S':'
asbag68
(g89
g70
NtRp284
(dp285
g73
(dp286
sg82
g271
sg75
(lp287
g68
(g69
g70
NtRp288
(dp289
g73
(dp290
g81
I4
ssg82
g284
sg75
(lp291
S'%7B%22distinct_id%22%3A%20%2262ffc2d0-7b9f-0130-efb0-22000a1cbb2a%22%2C%22is_registered_user%22%3A%20false%2C%22%24initial_referrer%22%3A%20%22%24direct%22%2C%22%24initial_referring_domain%22%3A%20%22%24direct%22%7D'
p292
ag68
(g77
g70
NtRp293
(dp294
g73
(dp295
g81
I3
ssg82
Nsg75
(lp296
g68
(g84
g70
NtRp297
(dp298
g73
(dp299
sg82
g293
sg75
(lp300
g68
(g89
g70
NtRp301
(dp302
g73
(dp303
g93
g94
ssg82
g297
sg75
(lp304
S'comment'
p305
asbag68
(g89
g70
NtRp306
(dp307
g73
(dp308
g100
g101
ssg82
g297
sg75
(lp309
S':'
asbag68
(g89
g70
NtRp310
(dp311
g73
(dp312
sg82
g297
sg75
(lp313
g68
(g69
g70
NtRp314
(dp315
g73
(dp316
g81
I3
ssg82
g310
sg75
(lp317
S''
asbasbasbag68
(g84
g70
NtRp318
(dp319
g73
(dp320
sg82
g293
sg75
(lp321
g68
(g89
g70
NtRp322
(dp323
g73
(dp324
g93
g94
ssg82
g318
sg75
(lp325
S'domain'
p326
asbag68
(g89
g70
NtRp327
(dp328
g73
(dp329
g100
g101
ssg82
g318
sg75
(lp330
S':'
asbag68
(g89
g70
NtRp331
(dp332
g73
(dp333
sg82
g318
sg75
(lp334
g68
(g69
g70
NtRp335
(dp336
g73
(dp337
g81
I3
ssg82
g331
sg75
(lp338
S''
asbasbasbag68
(g84
g70
NtRp339
(dp340
g73
(dp341
sg82
g293
sg75
(lp342
g68
(g89
g70
NtRp343
(dp344
g73
(dp345
g93
g94
ssg82
g339
sg75
(lp346
S'expires'
p347
asbag68
(g89
g70
NtRp348
(dp349
g73
(dp350
g100
g101
ssg82
g339
sg75
(lp351
S':'
asbag68
(g89
g70
NtRp352
(dp353
g73
(dp354
sg82
g339
sg75
(lp355
g68
(g69
g70
NtRp356
(dp357
g73
(dp358
g81
I3
ssg82
g352
sg75
(lp359
S''
asbasbasbag68
(g84
g70
NtRp360
(dp361
g73
(dp362
sg82
g293
sg75
(lp363
g68
(g89
g70
NtRp364
(dp365
g73
(dp366
g93
g94
ssg82
g360
sg75
(lp367
S'httponly'
p368
asbag68
(g89
g70
NtRp369
(dp370
g73
(dp371
g100
g101
ssg82
g360
sg75
(lp372
S':'
asbag68
(g89
g70
NtRp373
(dp374
g73
(dp375
sg82
g360
sg75
(lp376
g68
(g69
g70
NtRp377
(dp378
g73
(dp379
g81
I3
ssg82
g373
sg75
(lp380
S''
asbasbasbag68
(g84
g70
NtRp381
(dp382
g73
(dp383
sg82
g293
sg75
(lp384
g68
(g89
g70
NtRp385
(dp386
g73
(dp387
g93
g94
ssg82
g381
sg75
(lp388
S'max-age'
p389
asbag68
(g89
g70
NtRp390
(dp391
g73
(dp392
g100
g101
ssg82
g381
sg75
(lp393
S':'
asbag68
(g89
g70
NtRp394
(dp395
g73
(dp396
sg82
g381
sg75
(lp397
g68
(g69
g70
NtRp398
(dp399
g73
(dp400
g81
I3
ssg82
g394
sg75
(lp401
S''
asbasbasbag68
(g84
g70
NtRp402
(dp403
g73
(dp404
sg82
g293
sg75
(lp405
g68
(g89
g70
NtRp406
(dp407
g73
(dp408
g93
g94
ssg82
g402
sg75
(lp409
S'path'
p410
asbag68
(g89
g70
NtRp411
(dp412
g73
(dp413
g100
g101
ssg82
g402
sg75
(lp414
S':'
asbag68
(g89
g70
NtRp415
(dp416
g73
(dp417
sg82
g402
sg75
(lp418
g68
(g69
g70
NtRp419
(dp420
g73
(dp421
g81
I3
ssg82
g415
sg75
(lp422
S''
asbasbasbag68
(g84
g70
NtRp423
(dp424
g73
(dp425
sg82
g293
sg75
(lp426
g68
(g89
g70
NtRp427
(dp428
g73
(dp429
g93
g94
ssg82
g423
sg75
(lp430
S'secure'
p431
asbag68
(g89
g70
NtRp432
(dp433
g73
(dp434
g100
g101
ssg82
g423
sg75
(lp435
S':'
asbag68
(g89
g70
NtRp436
(dp437
g73
(dp438
sg82
g423
sg75
(lp439
g68
(g69
g70
NtRp440
(dp441
g73
(dp442
g81
I3
ssg82
g436
sg75
(lp443
S''
asbasbasbag68
(g84
g70
NtRp444
(dp445
g73
(dp446
sg82
g293
sg75
(lp447
g68
(g89
g70
NtRp448
(dp449
g73
(dp450
g93
g94
ssg82
g444
sg75
(lp451
S'version'
p452
asbag68
(g89
g70
NtRp453
(dp454
g73
(dp455
g100
g101
ssg82
g444
sg75
(lp456
S':'
asbag68
(g89
g70
NtRp457
(dp458
g73
(dp459
sg82
g444
sg75
(lp460
g68
(g69
g70
NtRp461
(dp462
g73
(dp463
g81
I3
ssg82
g457
sg75
(lp464
S''
asbasbasbasbasbasbasbag68
(g84
g70
NtRp465
(dp466
g73
(dp467
sg82
g267
sg75
(lp468
g68
(g89
g70
NtRp469
(dp470
g73
(dp471
g93
g94
ssg82
g465
sg75
(lp472
S'session_id_admin'
p473
asbag68
(g89
g70
NtRp474
(dp475
g73
(dp476
g100
g101
ssg82
g465
sg75
(lp477
S':'
asbag68
(g89
g70
NtRp478
(dp479
g73
(dp480
sg82
g465
sg75
(lp481
g68
(g69
g70
NtRp482
(dp483
g73
(dp484
g81
I4
ssg82
g478
sg75
(lp485
S'127.0.0.1-d05a66de-144d-4476-baca-ef5d2872972e'
p486
ag68
(g77
g70
NtRp487
(dp488
g73
(dp489
g81
I3
ssg82
Nsg75
(lp490
g68
(g84
g70
NtRp491
(dp492
g73
(dp493
sg82
g487
sg75
(lp494
g68
(g89
g70
NtRp495
(dp496
g73
(dp497
g93
g94
ssg82
g491
sg75
(lp498
g305
asbag68
(g89
g70
NtRp499
(dp500
g73
(dp501
g100
g101
ssg82
g491
sg75
(lp502
S':'
asbag68
(g89
g70
NtRp503
(dp504
g73
(dp505
sg82
g491
sg75
(lp506
g68
(g69
g70
NtRp507
(dp508
g73
(dp509
g81
I3
ssg82
g503
sg75
(lp510
S''
asbasbasbag68
(g84
g70
NtRp511
(dp512
g73
(dp513
sg82
g487
sg75
(lp514
g68
(g89
g70
NtRp515
(dp516
g73
(dp517
g93
g94
ssg82
g511
sg75
(lp518
g326
asbag68
(g89
g70
NtRp519
(dp520
g73
(dp521
g100
g101
ssg82
g511
sg75
(lp522
S':'
asbag68
(g89
g70
NtRp523
(dp524
g73
(dp525
sg82
g511
sg75
(lp526
g68
(g69
g70
NtRp527
(dp528
g73
(dp529
g81
I3
ssg82
g523
sg75
(lp530
S''
asbasbasbag68
(g84
g70
NtRp531
(dp532
g73
(dp533
sg82
g487
sg75
(lp534
g68
(g89
g70
NtRp535
(dp536
g73
(dp537
g93
g94
ssg82
g531
sg75
(lp538
g347
asbag68
(g89
g70
NtRp539
(dp540
g73
(dp541
g100
g101
ssg82
g531
sg75
(lp542
S':'
asbag68
(g89
g70
NtRp543
(dp544
g73
(dp545
sg82
g531
sg75
(lp546
g68
(g69
g70
NtRp547
(dp548
g73
(dp549
g81
I3
ssg82
g543
sg75
(lp550
S''
asbasbasbag68
(g84
g70
NtRp551
(dp552
g73
(dp553
sg82
g487
sg75
(lp554
g68
(g89
g70
NtRp555
(dp556
g73
(dp557
g93
g94
ssg82
g551
sg75
(lp558
g368
asbag68
(g89
g70
NtRp559
(dp560
g73
(dp561
g100
g101
ssg82
g551
sg75
(lp562
S':'
asbag68
(g89
g70
NtRp563
(dp564
g73
(dp565
sg82
g551
sg75
(lp566
g68
(g69
g70
NtRp567
(dp568
g73
(dp569
g81
I3
ssg82
g563
sg75
(lp570
S''
asbasbasbag68
(g84
g70
NtRp571
(dp572
g73
(dp573
sg82
g487
sg75
(lp574
g68
(g89
g70
NtRp575
(dp576
g73
(dp577
g93
g94
ssg82
g571
sg75
(lp578
g389
asbag68
(g89
g70
NtRp579
(dp580
g73
(dp581
g100
g101
ssg82
g571
sg75
(lp582
S':'
asbag68
(g89
g70
NtRp583
(dp584
g73
(dp585
sg82
g571
sg75
(lp586
g68
(g69
g70
NtRp587
(dp588
g73
(dp589
g81
I3
ssg82
g583
sg75
(lp590
S''
asbasbasbag68
(g84
g70
NtRp591
(dp592
g73
(dp593
sg82
g487
sg75
(lp594
g68
(g89
g70
NtRp595
(dp596
g73
(dp597
g93
g94
ssg82
g591
sg75
(lp598
g410
asbag68
(g89
g70
NtRp599
(dp600
g73
(dp601
g100
g101
ssg82
g591
sg75
(lp602
S':'
asbag68
(g89
g70
NtRp603
(dp604
g73
(dp605
sg82
g591
sg75
(lp606
g68
(g69
g70
NtRp607
(dp608
g73
(dp609
g81
I3
ssg82
g603
sg75
(lp610
S''
asbasbasbag68
(g84
g70
NtRp611
(dp612
g73
(dp613
sg82
g487
sg75
(lp614
g68
(g89
g70
NtRp615
(dp616
g73
(dp617
g93
g94
ssg82
g611
sg75
(lp618
g431
asbag68
(g89
g70
NtRp619
(dp620
g73
(dp621
g100
g101
ssg82
g611
sg75
(lp622
S':'
asbag68
(g89
g70
NtRp623
(dp624
g73
(dp625
sg82
g611
sg75
(lp626
g68
(g69
g70
NtRp627
(dp628
g73
(dp629
g81
I3
ssg82
g623
sg75
(lp630
S''
asbasbasbag68
(g84
g70
NtRp631
(dp632
g73
(dp633
sg82
g487
sg75
(lp634
g68
(g89
g70
NtRp635
(dp636
g73
(dp637
g93
g94
ssg82
g631
sg75
(lp638
g452
asbag68
(g89
g70
NtRp639
(dp640
g73
(dp641
g100
g101
ssg82
g631
sg75
(lp642
S':'
asbag68
(g89
g70
NtRp643
(dp644
g73
(dp645
sg82
g631
sg75
(lp646
g68
(g69
g70
NtRp647
(dp648
g73
(dp649
g81
I3
ssg82
g643
sg75
(lp650
S''
asbasbasbasbasbasbasbag68
(g84
g70
NtRp651
(dp652
g73
(dp653
sg82
g267
sg75
(lp654
g68
(g89
g70
NtRp655
(dp656
g73
(dp657
g93
g94
ssg82
g651
sg75
(lp658
S'session_id_shipra'
p659
asbag68
(g89
g70
NtRp660
(dp661
g73
(dp662
g100
g101
ssg82
g651
sg75
(lp663
S':'
asbag68
(g89
g70
NtRp664
(dp665
g73
(dp666
sg82
g651
sg75
(lp667
g68
(g69
g70
NtRp668
(dp669
g73
(dp670
g81
I4
ssg82
g664
sg75
(lp671
S'127.0.0.1-7fa5acfe-848f-4c14-b600-f6d33f5c9539'
p672
ag68
(g77
g70
NtRp673
(dp674
g73
(dp675
g81
I3
ssg82
Nsg75
(lp676
g68
(g84
g70
NtRp677
(dp678
g73
(dp679
sg82
g673
sg75
(lp680
g68
(g89
g70
NtRp681
(dp682
g73
(dp683
g93
g94
ssg82
g677
sg75
(lp684
g305
asbag68
(g89
g70
NtRp685
(dp686
g73
(dp687
g100
g101
ssg82
g677
sg75
(lp688
S':'
asbag68
(g89
g70
NtRp689
(dp690
g73
(dp691
sg82
g677
sg75
(lp692
g68
(g69
g70
NtRp693
(dp694
g73
(dp695
g81
I3
ssg82
g689
sg75
(lp696
S''
asbasbasbag68
(g84
g70
NtRp697
(dp698
g73
(dp699
sg82
g673
sg75
(lp700
g68
(g89
g70
NtRp701
(dp702
g73
(dp703
g93
g94
ssg82
g697
sg75
(lp704
g326
asbag68
(g89
g70
NtRp705
(dp706
g73
(dp707
g100
g101
ssg82
g697
sg75
(lp708
S':'
asbag68
(g89
g70
NtRp709
(dp710
g73
(dp711
sg82
g697
sg75
(lp712
g68
(g69
g70
NtRp713
(dp714
g73
(dp715
g81
I3
ssg82
g709
sg75
(lp716
S''
asbasbasbag68
(g84
g70
NtRp717
(dp718
g73
(dp719
sg82
g673
sg75
(lp720
g68
(g89
g70
NtRp721
(dp722
g73
(dp723
g93
g94
ssg82
g717
sg75
(lp724
g347
asbag68
(g89
g70
NtRp725
(dp726
g73
(dp727
g100
g101
ssg82
g717
sg75
(lp728
S':'
asbag68
(g89
g70
NtRp729
(dp730
g73
(dp731
sg82
g717
sg75
(lp732
g68
(g69
g70
NtRp733
(dp734
g73
(dp735
g81
I3
ssg82
g729
sg75
(lp736
S''
asbasbasbag68
(g84
g70
NtRp737
(dp738
g73
(dp739
sg82
g673
sg75
(lp740
g68
(g89
g70
NtRp741
(dp742
g73
(dp743
g93
g94
ssg82
g737
sg75
(lp744
g368
asbag68
(g89
g70
NtRp745
(dp746
g73
(dp747
g100
g101
ssg82
g737
sg75
(lp748
S':'
asbag68
(g89
g70
NtRp749
(dp750
g73
(dp751
sg82
g737
sg75
(lp752
g68
(g69
g70
NtRp753
(dp754
g73
(dp755
g81
I3
ssg82
g749
sg75
(lp756
S''
asbasbasbag68
(g84
g70
NtRp757
(dp758
g73
(dp759
sg82
g673
sg75
(lp760
g68
(g89
g70
NtRp761
(dp762
g73
(dp763
g93
g94
ssg82
g757
sg75
(lp764
g389
asbag68
(g89
g70
NtRp765
(dp766
g73
(dp767
g100
g101
ssg82
g757
sg75
(lp768
S':'
asbag68
(g89
g70
NtRp769
(dp770
g73
(dp771
sg82
g757
sg75
(lp772
g68
(g69
g70
NtRp773
(dp774
g73
(dp775
g81
I3
ssg82
g769
sg75
(lp776
S''
asbasbasbag68
(g84
g70
NtRp777
(dp778
g73
(dp779
sg82
g673
sg75
(lp780
g68
(g89
g70
NtRp781
(dp782
g73
(dp783
g93
g94
ssg82
g777
sg75
(lp784
g410
asbag68
(g89
g70
NtRp785
(dp786
g73
(dp787
g100
g101
ssg82
g777
sg75
(lp788
S':'
asbag68
(g89
g70
NtRp789
(dp790
g73
(dp791
sg82
g777
sg75
(lp792
g68
(g69
g70
NtRp793
(dp794
g73
(dp795
g81
I3
ssg82
g789
sg75
(lp796
S''
asbasbasbag68
(g84
g70
NtRp797
(dp798
g73
(dp799
sg82
g673
sg75
(lp800
g68
(g89
g70
NtRp801
(dp802
g73
(dp803
g93
g94
ssg82
g797
sg75
(lp804
g431
asbag68
(g89
g70
NtRp805
(dp806
g73
(dp807
g100
g101
ssg82
g797
sg75
(lp808
S':'
asbag68
(g89
g70
NtRp809
(dp810
g73
(dp811
sg82
g797
sg75
(lp812
g68
(g69
g70
NtRp813
(dp814
g73
(dp815
g81
I3
ssg82
g809
sg75
(lp816
S''
asbasbasbag68
(g84
g70
NtRp817
(dp818
g73
(dp819
sg82
g673
sg75
(lp820
g68
(g89
g70
NtRp821
(dp822
g73
(dp823
g93
g94
ssg82
g817
sg75
(lp824
g452
asbag68
(g89
g70
NtRp825
(dp826
g73
(dp827
g100
g101
ssg82
g817
sg75
(lp828
S':'
asbag68
(g89
g70
NtRp829
(dp830
g73
(dp831
sg82
g817
sg75
(lp832
g68
(g69
g70
NtRp833
(dp834
g73
(dp835
g81
I3
ssg82
g829
sg75
(lp836
S''
asbasbasbasbasbasbasbag68
(g84
g70
NtRp837
(dp838
g73
(dp839
sg82
g267
sg75
(lp840
g68
(g89
g70
NtRp841
(dp842
g73
(dp843
g93
g94
ssg82
g837
sg75
(lp844
S'session_id_welcome'
p845
asbag68
(g89
g70
NtRp846
(dp847
g73
(dp848
g100
g101
ssg82
g837
sg75
(lp849
S':'
asbag68
(g89
g70
NtRp850
(dp851
g73
(dp852
sg82
g837
sg75
(lp853
g68
(g69
g70
NtRp854
(dp855
g73
(dp856
g81
I4
ssg82
g850
sg75
(lp857
S'127.0.0.1-71cc98c4-8380-49bc-bd8a-dc48450dcb05'
p858
ag68
(g77
g70
NtRp859
(dp860
g73
(dp861
g81
I3
ssg82
Nsg75
(lp862
g68
(g84
g70
NtRp863
(dp864
g73
(dp865
sg82
g859
sg75
(lp866
g68
(g89
g70
NtRp867
(dp868
g73
(dp869
g93
g94
ssg82
g863
sg75
(lp870
g305
asbag68
(g89
g70
NtRp871
(dp872
g73
(dp873
g100
g101
ssg82
g863
sg75
(lp874
S':'
asbag68
(g89
g70
NtRp875
(dp876
g73
(dp877
sg82
g863
sg75
(lp878
g68
(g69
g70
NtRp879
(dp880
g73
(dp881
g81
I3
ssg82
g875
sg75
(lp882
S''
asbasbasbag68
(g84
g70
NtRp883
(dp884
g73
(dp885
sg82
g859
sg75
(lp886
g68
(g89
g70
NtRp887
(dp888
g73
(dp889
g93
g94
ssg82
g883
sg75
(lp890
g326
asbag68
(g89
g70
NtRp891
(dp892
g73
(dp893
g100
g101
ssg82
g883
sg75
(lp894
S':'
asbag68
(g89
g70
NtRp895
(dp896
g73
(dp897
sg82
g883
sg75
(lp898
g68
(g69
g70
NtRp899
(dp900
g73
(dp901
g81
I3
ssg82
g895
sg75
(lp902
S''
asbasbasbag68
(g84
g70
NtRp903
(dp904
g73
(dp905
sg82
g859
sg75
(lp906
g68
(g89
g70
NtRp907
(dp908
g73
(dp909
g93
g94
ssg82
g903
sg75
(lp910
g347
asbag68
(g89
g70
NtRp911
(dp912
g73
(dp913
g100
g101
ssg82
g903
sg75
(lp914
S':'
asbag68
(g89
g70
NtRp915
(dp916
g73
(dp917
sg82
g903
sg75
(lp918
g68
(g69
g70
NtRp919
(dp920
g73
(dp921
g81
I3
ssg82
g915
sg75
(lp922
S''
asbasbasbag68
(g84
g70
NtRp923
(dp924
g73
(dp925
sg82
g859
sg75
(lp926
g68
(g89
g70
NtRp927
(dp928
g73
(dp929
g93
g94
ssg82
g923
sg75
(lp930
g368
asbag68
(g89
g70
NtRp931
(dp932
g73
(dp933
g100
g101
ssg82
g923
sg75
(lp934
S':'
asbag68
(g89
g70
NtRp935
(dp936
g73
(dp937
sg82
g923
sg75
(lp938
g68
(g69
g70
NtRp939
(dp940
g73
(dp941
g81
I3
ssg82
g935
sg75
(lp942
S''
asbasbasbag68
(g84
g70
NtRp943
(dp944
g73
(dp945
sg82
g859
sg75
(lp946
g68
(g89
g70
NtRp947
(dp948
g73
(dp949
g93
g94
ssg82
g943
sg75
(lp950
g389
asbag68
(g89
g70
NtRp951
(dp952
g73
(dp953
g100
g101
ssg82
g943
sg75
(lp954
S':'
asbag68
(g89
g70
NtRp955
(dp956
g73
(dp957
sg82
g943
sg75
(lp958
g68
(g69
g70
NtRp959
(dp960
g73
(dp961
g81
I3
ssg82
g955
sg75
(lp962
S''
asbasbasbag68
(g84
g70
NtRp963
(dp964
g73
(dp965
sg82
g859
sg75
(lp966
g68
(g89
g70
NtRp967
(dp968
g73
(dp969
g93
g94
ssg82
g963
sg75
(lp970
g410
asbag68
(g89
g70
NtRp971
(dp972
g73
(dp973
g100
g101
ssg82
g963
sg75
(lp974
S':'
asbag68
(g89
g70
NtRp975
(dp976
g73
(dp977
sg82
g963
sg75
(lp978
g68
(g69
g70
NtRp979
(dp980
g73
(dp981
g81
I3
ssg82
g975
sg75
(lp982
S''
asbasbasbag68
(g84
g70
NtRp983
(dp984
g73
(dp985
sg82
g859
sg75
(lp986
g68
(g89
g70
NtRp987
(dp988
g73
(dp989
g93
g94
ssg82
g983
sg75
(lp990
g431
asbag68
(g89
g70
NtRp991
(dp992
g73
(dp993
g100
g101
ssg82
g983
sg75
(lp994
S':'
asbag68
(g89
g70
NtRp995
(dp996
g73
(dp997
sg82
g983
sg75
(lp998
g68
(g69
g70
NtRp999
(dp1000
g73
(dp1001
g81
I3
ssg82
g995
sg75
(lp1002
S''
asbasbasbag68
(g84
g70
NtRp1003
(dp1004
g73
(dp1005
sg82
g859
sg75
(lp1006
g68
(g89
g70
NtRp1007
(dp1008
g73
(dp1009
g93
g94
ssg82
g1003
sg75
(lp1010
g452
asbag68
(g89
g70
NtRp1011
(dp1012
g73
(dp1013
g100
g101
ssg82
g1003
sg75
(lp1014
S':'
asbag68
(g89
g70
NtRp1015
(dp1016
g73
(dp1017
sg82
g1003
sg75
(lp1018
g68
(g69
g70
NtRp1019
(dp1020
g73
(dp1021
g81
I3
ssg82
g1015
sg75
(lp1022
S''
asbasbasbasbasbasbasbasbasbasbasbag68
(g84
g70
NtRp1023
(dp1024
g73
(dp1025
sg82
g78
sg75
(lp1026
g68
(g89
g70
NtRp1027
(dp1028
g73
(dp1029
g93
g94
ssg82
g1023
sg75
(lp1030
S'env'
p1031
asbag68
(g89
g70
NtRp1032
(dp1033
g73
(dp1034
g100
g101
ssg82
g1023
sg75
(lp1035
S':'
asbag68
(g89
g70
NtRp1036
(dp1037
g73
(dp1038
sg82
g1023
sg75
(lp1039
g68
(g69
g70
NtRp1040
(dp1041
g73
(dp1042
g81
I5
ssg82
g1036
sg75
(lp1043
g68
(g77
g70
NtRp1044
(dp1045
g73
(dp1046
g81
I4
ssg82
Nsg75
(lp1047
g68
(g84
g70
NtRp1048
(dp1049
g73
(dp1050
sg82
g1044
sg75
(lp1051
g68
(g89
g70
NtRp1052
(dp1053
g73
(dp1054
g93
g94
ssg82
g1048
sg75
(lp1055
S'app_folders'
p1056
asbag68
(g89
g70
NtRp1057
(dp1058
g73
(dp1059
g100
g101
ssg82
g1048
sg75
(lp1060
S':'
asbag68
(g89
g70
NtRp1061
(dp1062
g73
(dp1063
sg82
g1048
sg75
(lp1064
g68
(g69
g70
NtRp1065
(dp1066
g73
(dp1067
g81
I4
ssg82
g1061
sg75
(lp1068
S"set(['/home/shipra/Desktop/Semester 1.2/ITWS-2/web2py/applications/shipra/', '/home/shipra/Desktop/Semester 1.2/ITWS-2/web2py/applications/welcome/', '/home/shipra/Desktop/Semester 1.2/ITWS-2/web2py/applications/admin/'])"
p1069
asbasbasbag68
(g84
g70
NtRp1070
(dp1071
g73
(dp1072
sg82
g1044
sg75
(lp1073
g68
(g89
g70
NtRp1074
(dp1075
g73
(dp1076
g93
g94
ssg82
g1070
sg75
(lp1077
S'applications_parent'
p1078
asbag68
(g89
g70
NtRp1079
(dp1080
g73
(dp1081
g100
g101
ssg82
g1070
sg75
(lp1082
S':'
asbag68
(g89
g70
NtRp1083
(dp1084
g73
(dp1085
sg82
g1070
sg75
(lp1086
g68
(g69
g70
NtRp1087
(dp1088
g73
(dp1089
g81
I4
ssg82
g1083
sg75
(lp1090
S'/home/shipra/Desktop/Semester 1.2/ITWS-2/web2py'
p1091
asbasbasbag68
(g84
g70
NtRp1092
(dp1093
g73
(dp1094
sg82
g1044
sg75
(lp1095
g68
(g89
g70
NtRp1096
(dp1097
g73
(dp1098
g93
g94
ssg82
g1092
sg75
(lp1099
S'cmd_args'
p1100
asbag68
(g89
g70
NtRp1101
(dp1102
g73
(dp1103
g100
g101
ssg82
g1092
sg75
(lp1104
S':'
asbag68
(g89
g70
NtRp1105
(dp1106
g73
(dp1107
sg82
g1092
sg75
(lp1108
g68
(g69
g70
NtRp1109
(dp1110
g73
(dp1111
g81
I4
ssg82
g1105
sg75
(lp1112
g68
(g77
g70
NtRp1113
(dp1114
g73
(dp1115
g81
I3
ssg82
Nsg75
(lp1116
sbasbasbasbag68
(g84
g70
NtRp1117
(dp1118
g73
(dp1119
sg82
g1044
sg75
(lp1120
g68
(g89
g70
NtRp1121
(dp1122
g73
(dp1123
g93
g94
ssg82
g1117
sg75
(lp1124
S'cmd_options'
p1125
asbag68
(g89
g70
NtRp1126
(dp1127
g73
(dp1128
g100
g101
ssg82
g1117
sg75
(lp1129
S':'
asbag68
(g89
g70
NtRp1130
(dp1131
g73
(dp1132
sg82
g1117
sg75
(lp1133
g68
(g69
g70
NtRp1134
(dp1135
g73
(dp1136
g81
I4
ssg82
g1130
sg75
(lp1137
S"<Values at 0x27ad248: {'verbose': False, 'ip': '127.0.0.1', 'with_scheduler': False, 'ips': ['192.168.122.1', 'fe80::8a53:2eff:fe7d:9d6c%wlan0', '10.42.0.99'], 'shutdown_timeout': 5, 'taskbar': False, 'port': 8000, 'maxthreads': None, 'softcron': False, 'server_name': 'shipra', 'bpython': False, 'nogui': False, 'pid_filename': 'httpserver.pid', 'extcron': False, 'runcron': False, 'run_system_tests': False, 'test': None, 'folder': '/home/shipra/Desktop/Semester 1.2/ITWS-2/web2py', 'config': '', 'minthreads': None, 'winservice': '', 'shell': None, 'run': '', 'log_filename': 'httpserver.log', 'debuglevel': 30, 'args': [''], 'socket_timeout': 5, 'ssl_ca_certificate': None, 'scheduler': None, 'profiler_filename': None, 'ssl_private_key': '', 'scheduler_groups': None, 'password': '<ask>', 'request_queue_size': 5, 'ssl_certificate': '', 'cronjob': False, 'numthreads': None, 'quiet': False, 'interfaces': None, 'import_models': False, 'timeout': 10, 'plain': False, 'nobanner': False}>"
p1138
asbasbasbag68
(g84
g70
NtRp1139
(dp1140
g73
(dp1141
sg82
g1044
sg75
(lp1142
g68
(g89
g70
NtRp1143
(dp1144
g73
(dp1145
g93
g94
ssg82
g1139
sg75
(lp1146
S'db_sessions'
p1147
asbag68
(g89
g70
NtRp1148
(dp1149
g73
(dp1150
g100
g101
ssg82
g1139
sg75
(lp1151
S':'
asbag68
(g89
g70
NtRp1152
(dp1153
g73
(dp1154
sg82
g1139
sg75
(lp1155
g68
(g69
g70
NtRp1156
(dp1157
g73
(dp1158
g81
I4
ssg82
g1152
sg75
(lp1159
S'set([])'
p1160
asbasbasbag68
(g84
g70
NtRp1161
(dp1162
g73
(dp1163
sg82
g1044
sg75
(lp1164
g68
(g89
g70
NtRp1165
(dp1166
g73
(dp1167
g93
g94
ssg82
g1161
sg75
(lp1168
S'debugging'
p1169
asbag68
(g89
g70
NtRp1170
(dp1171
g73
(dp1172
g100
g101
ssg82
g1161
sg75
(lp1173
S':'
asbag68
(g89
g70
NtRp1174
(dp1175
g73
(dp1176
sg82
g1161
sg75
(lp1177
g68
(g69
g70
NtRp1178
(dp1179
g73
(dp1180
g81
I4
ssg82
g1174
sg75
(lp1181
g111
asbasbasbag68
(g84
g70
NtRp1182
(dp1183
g73
(dp1184
sg82
g1044
sg75
(lp1185
g68
(g89
g70
NtRp1186
(dp1187
g73
(dp1188
g93
g94
ssg82
g1182
sg75
(lp1189
S'gluon_parent'
p1190
asbag68
(g89
g70
NtRp1191
(dp1192
g73
(dp1193
g100
g101
ssg82
g1182
sg75
(lp1194
S':'
asbag68
(g89
g70
NtRp1195
(dp1196
g73
(dp1197
sg82
g1182
sg75
(lp1198
g68
(g69
g70
NtRp1199
(dp1200
g73
(dp1201
g81
I4
ssg82
g1195
sg75
(lp1202
S'/home/shipra/Desktop/Semester 1.2/ITWS-2/web2py'
p1203
asbasbasbag68
(g84
g70
NtRp1204
(dp1205
g73
(dp1206
sg82
g1044
sg75
(lp1207
g68
(g89
g70
NtRp1208
(dp1209
g73
(dp1210
g93
g94
ssg82
g1204
sg75
(lp1211
S'http_accept'
p1212
asbag68
(g89
g70
NtRp1213
(dp1214
g73
(dp1215
g100
g101
ssg82
g1204
sg75
(lp1216
S':'
asbag68
(g89
g70
NtRp1217
(dp1218
g73
(dp1219
sg82
g1204
sg75
(lp1220
g68
(g69
g70
NtRp1221
(dp1222
g73
(dp1223
g81
I4
ssg82
g1217
sg75
(lp1224
S'text/html,application/xhtml+xml,application/xml;q=0.9,*/*;q=0.8'
p1225
asbasbasbag68
(g84
g70
NtRp1226
(dp1227
g73
(dp1228
sg82
g1044
sg75
(lp1229
g68
(g89
g70
NtRp1230
(dp1231
g73
(dp1232
g93
g94
ssg82
g1226
sg75
(lp1233
S'http_accept_encoding'
p1234
asbag68
(g89
g70
NtRp1235
(dp1236
g73
(dp1237
g100
g101
ssg82
g1226
sg75
(lp1238
S':'
asbag68
(g89
g70
NtRp1239
(dp1240
g73
(dp1241
sg82
g1226
sg75
(lp1242
g68
(g69
g70
NtRp1243
(dp1244
g73
(dp1245
g81
I4
ssg82
g1239
sg75
(lp1246
S'gzip, deflate'
p1247
asbasbasbag68
(g84
g70
NtRp1248
(dp1249
g73
(dp1250
sg82
g1044
sg75
(lp1251
g68
(g89
g70
NtRp1252
(dp1253
g73
(dp1254
g93
g94
ssg82
g1248
sg75
(lp1255
S'http_accept_language'
p1256
asbag68
(g89
g70
NtRp1257
(dp1258
g73
(dp1259
g100
g101
ssg82
g1248
sg75
(lp1260
S':'
asbag68
(g89
g70
NtRp1261
(dp1262
g73
(dp1263
sg82
g1248
sg75
(lp1264
g68
(g69
g70
NtRp1265
(dp1266
g73
(dp1267
g81
I4
ssg82
g1261
sg75
(lp1268
S'en-us,en;q=0.5'
p1269
asbasbasbag68
(g84
g70
NtRp1270
(dp1271
g73
(dp1272
sg82
g1044
sg75
(lp1273
g68
(g89
g70
NtRp1274
(dp1275
g73
(dp1276
g93
g94
ssg82
g1270
sg75
(lp1277
S'http_connection'
p1278
asbag68
(g89
g70
NtRp1279
(dp1280
g73
(dp1281
g100
g101
ssg82
g1270
sg75
(lp1282
S':'
asbag68
(g89
g70
NtRp1283
(dp1284
g73
(dp1285
sg82
g1270
sg75
(lp1286
g68
(g69
g70
NtRp1287
(dp1288
g73
(dp1289
g81
I4
ssg82
g1283
sg75
(lp1290
S'keep-alive'
p1291
asbasbasbag68
(g84
g70
NtRp1292
(dp1293
g73
(dp1294
sg82
g1044
sg75
(lp1295
g68
(g89
g70
NtRp1296
(dp1297
g73
(dp1298
g93
g94
ssg82
g1292
sg75
(lp1299
S'http_cookie'
p1300
asbag68
(g89
g70
NtRp1301
(dp1302
g73
(dp1303
g100
g101
ssg82
g1292
sg75
(lp1304
S':'
asbag68
(g89
g70
NtRp1305
(dp1306
g73
(dp1307
sg82
g1292
sg75
(lp1308
g68
(g69
g70
NtRp1309
(dp1310
g73
(dp1311
g81
I4
ssg82
g1305
sg75
(lp1312
S'__utma=96992031.1334412862.1364672878.1364672878.1364718243.2; __utmz=96992031.1364672878.1.1.utmcsr=(direct)|utmccn=(direct)|utmcmd=(none); __lc.visitor_id.1195381=S1364672235.4faffcf2d2; __ar_v4=OWHSPOGHTNEIPPPBMHVFTA%3A20130329%3A12%7CAMEDRHI4VZG4TIA2AZ565D%3A20130329%3A12%7CWAEQXC4B2NH3DDBR3TZM6I%3A20130329%3A12; mp_2093ad9ff9c5428a2228386de2f2b0e4_mixpanel=%7B%22distinct_id%22%3A%20%2262ffc2d0-7b9f-0130-efb0-22000a1cbb2a%22%2C%22is_registered_user%22%3A%20false%2C%22%24initial_referrer%22%3A%20%22%24direct%22%2C%22%24initial_referring_domain%22%3A%20%22%24direct%22%7D; session_id_welcome=127.0.0.1-71cc98c4-8380-49bc-bd8a-dc48450dcb05; session_id_shipra=127.0.0.1-7fa5acfe-848f-4c14-b600-f6d33f5c9539; session_id_admin=127.0.0.1-d05a66de-144d-4476-baca-ef5d2872972e'
p1313
asbasbasbag68
(g84
g70
NtRp1314
(dp1315
g73
(dp1316
sg82
g1044
sg75
(lp1317
g68
(g89
g70
NtRp1318
(dp1319
g73
(dp1320
g93
g94
ssg82
g1314
sg75
(lp1321
S'http_host'
p1322
asbag68
(g89
g70
NtRp1323
(dp1324
g73
(dp1325
g100
g101
ssg82
g1314
sg75
(lp1326
S':'
asbag68
(g89
g70
NtRp1327
(dp1328
g73
(dp1329
sg82
g1314
sg75
(lp1330
g68
(g69
g70
NtRp1331
(dp1332
g73
(dp1333
g81
I4
ssg82
g1327
sg75
(lp1334
S'127.0.0.1:8000'
p1335
asbasbasbag68
(g84
g70
NtRp1336
(dp1337
g73
(dp1338
sg82
g1044
sg75
(lp1339
g68
(g89
g70
NtRp1340
(dp1341
g73
(dp1342
g93
g94
ssg82
g1336
sg75
(lp1343
S'http_user_agent'
p1344
asbag68
(g89
g70
NtRp1345
(dp1346
g73
(dp1347
g100
g101
ssg82
g1336
sg75
(lp1348
S':'
asbag68
(g89
g70
NtRp1349
(dp1350
g73
(dp1351
sg82
g1336
sg75
(lp1352
g68
(g69
g70
NtRp1353
(dp1354
g73
(dp1355
g81
I4
ssg82
g1349
sg75
(lp1356
S'Mozilla/5.0 (X11; Linux x86_64; rv:12.0) Gecko/20100101 Firefox/12.0'
p1357
asbasbasbag68
(g84
g70
NtRp1358
(dp1359
g73
(dp1360
sg82
g1044
sg75
(lp1361
g68
(g89
g70
NtRp1362
(dp1363
g73
(dp1364
g93
g94
ssg82
g1358
sg75
(lp1365
S'is_jython'
p1366
asbag68
(g89
g70
NtRp1367
(dp1368
g73
(dp1369
g100
g101
ssg82
g1358
sg75
(lp1370
S':'
asbag68
(g89
g70
NtRp1371
(dp1372
g73
(dp1373
sg82
g1358
sg75
(lp1374
g68
(g69
g70
NtRp1375
(dp1376
g73
(dp1377
g81
I4
ssg82
g1371
sg75
(lp1378
g111
asbasbasbag68
(g84
g70
NtRp1379
(dp1380
g73
(dp1381
sg82
g1044
sg75
(lp1382
g68
(g89
g70
NtRp1383
(dp1384
g73
(dp1385
g93
g94
ssg82
g1379
sg75
(lp1386
S'is_pypy'
p1387
asbag68
(g89
g70
NtRp1388
(dp1389
g73
(dp1390
g100
g101
ssg82
g1379
sg75
(lp1391
S':'
asbag68
(g89
g70
NtRp1392
(dp1393
g73
(dp1394
sg82
g1379
sg75
(lp1395
g68
(g69
g70
NtRp1396
(dp1397
g73
(dp1398
g81
I4
ssg82
g1392
sg75
(lp1399
g111
asbasbasbag68
(g84
g70
NtRp1400
(dp1401
g73
(dp1402
sg82
g1044
sg75
(lp1403
g68
(g89
g70
NtRp1404
(dp1405
g73
(dp1406
g93
g94
ssg82
g1400
sg75
(lp1407
S'local_hosts'
p1408
asbag68
(g89
g70
NtRp1409
(dp1410
g73
(dp1411
g100
g101
ssg82
g1400
sg75
(lp1412
S':'
asbag68
(g89
g70
NtRp1413
(dp1414
g73
(dp1415
sg82
g1400
sg75
(lp1416
g68
(g69
g70
NtRp1417
(dp1418
g73
(dp1419
g81
I4
ssg82
g1413
sg75
(lp1420
g68
(g77
g70
NtRp1421
(dp1422
g73
(dp1423
g81
I3
ssg82
Nsg75
(lp1424
g68
(g84
g70
NtRp1425
(dp1426
g73
(dp1427
sg82
g1421
sg75
(lp1428
g68
(g89
g70
NtRp1429
(dp1430
g73
(dp1431
sg82
g1425
sg75
(lp1432
g68
(g69
g70
NtRp1433
(dp1434
g73
(dp1435
g81
I3
ssg82
g1429
sg75
(lp1436
S'10.42.0.99'
p1437
asbasbasbag68
(g84
g70
NtRp1438
(dp1439
g73
(dp1440
sg82
g1421
sg75
(lp1441
g68
(g89
g70
NtRp1442
(dp1443
g73
(dp1444
sg82
g1438
sg75
(lp1445
g68
(g69
g70
NtRp1446
(dp1447
g73
(dp1448
g81
I3
ssg82
g1442
sg75
(lp1449
S'::ffff:127.0.0.1'
p1450
asbasbasbag68
(g84
g70
NtRp1451
(dp1452
g73
(dp1453
sg82
g1421
sg75
(lp1454
g68
(g89
g70
NtRp1455
(dp1456
g73
(dp1457
sg82
g1451
sg75
(lp1458
g68
(g69
g70
NtRp1459
(dp1460
g73
(dp1461
g81
I3
ssg82
g1455
sg75
(lp1462
S'::1'
p1463
asbasbasbag68
(g84
g70
NtRp1464
(dp1465
g73
(dp1466
sg82
g1421
sg75
(lp1467
g68
(g89
g70
NtRp1468
(dp1469
g73
(dp1470
sg82
g1464
sg75
(lp1471
g68
(g69
g70
NtRp1472
(dp1473
g73
(dp1474
g81
I3
ssg82
g1468
sg75
(lp1475
S'fe80::8a53:2eff:fe7d:9d6c%wlan0'
p1476
asbasbasbag68
(g84
g70
NtRp1477
(dp1478
g73
(dp1479
sg82
g1421
sg75
(lp1480
g68
(g89
g70
NtRp1481
(dp1482
g73
(dp1483
sg82
g1477
sg75
(lp1484
g68
(g69
g70
NtRp1485
(dp1486
g73
(dp1487
g81
I3
ssg82
g1481
sg75
(lp1488
S'192.168.122.1'
p1489
asbasbasbag68
(g84
g70
NtRp1490
(dp1491
g73
(dp1492
sg82
g1421
sg75
(lp1493
g68
(g89
g70
NtRp1494
(dp1495
g73
(dp1496
sg82
g1490
sg75
(lp1497
g68
(g69
g70
NtRp1498
(dp1499
g73
(dp1500
g81
I3
ssg82
g1494
sg75
(lp1501
S'127.0.0.1'
p1502
asbasbasbag68
(g84
g70
NtRp1503
(dp1504
g73
(dp1505
sg82
g1421
sg75
(lp1506
g68
(g89
g70
NtRp1507
(dp1508
g73
(dp1509
sg82
g1503
sg75
(lp1510
g68
(g69
g70
NtRp1511
(dp1512
g73
(dp1513
g81
I3
ssg82
g1507
sg75
(lp1514
S'shipra'
p1515
asbasbasbasbasbasbasbag68
(g84
g70
NtRp1516
(dp1517
g73
(dp1518
sg82
g1044
sg75
(lp1519
g68
(g89
g70
NtRp1520
(dp1521
g73
(dp1522
g93
g94
ssg82
g1516
sg75
(lp1523
S'path_info'
p1524
asbag68
(g89
g70
NtRp1525
(dp1526
g73
(dp1527
g100
g101
ssg82
g1516
sg75
(lp1528
S':'
asbag68
(g89
g70
NtRp1529
(dp1530
g73
(dp1531
sg82
g1516
sg75
(lp1532
g68
(g69
g70
NtRp1533
(dp1534
g73
(dp1535
g81
I4
ssg82
g1529
sg75
(lp1536
S'/shipra/default/resume_search'
p1537
asbasbasbag68
(g84
g70
NtRp1538
(dp1539
g73
(dp1540
sg82
g1044
sg75
(lp1541
g68
(g89
g70
NtRp1542
(dp1543
g73
(dp1544
g93
g94
ssg82
g1538
sg75
(lp1545
S'query_string'
p1546
asbag68
(g89
g70
NtRp1547
(dp1548
g73
(dp1549
g100
g101
ssg82
g1538
sg75
(lp1550
S':'
asbag68
(g89
g70
NtRp1551
(dp1552
g73
(dp1553
sg82
g1538
sg75
(lp1554
g68
(g69
g70
NtRp1555
(dp1556
g73
(dp1557
g81
I4
ssg82
g1551
sg75
(lp1558
S''
asbasbasbag68
(g84
g70
NtRp1559
(dp1560
g73
(dp1561
sg82
g1044
sg75
(lp1562
g68
(g89
g70
NtRp1563
(dp1564
g73
(dp1565
g93
g94
ssg82
g1559
sg75
(lp1566
S'remote_addr'
p1567
asbag68
(g89
g70
NtRp1568
(dp1569
g73
(dp1570
g100
g101
ssg82
g1559
sg75
(lp1571
S':'
asbag68
(g89
g70
NtRp1572
(dp1573
g73
(dp1574
sg82
g1559
sg75
(lp1575
g68
(g69
g70
NtRp1576
(dp1577
g73
(dp1578
g81
I4
ssg82
g1572
sg75
(lp1579
g223
asbasbasbag68
(g84
g70
NtRp1580
(dp1581
g73
(dp1582
sg82
g1044
sg75
(lp1583
g68
(g89
g70
NtRp1584
(dp1585
g73
(dp1586
g93
g94
ssg82
g1580
sg75
(lp1587
S'remote_port'
p1588
asbag68
(g89
g70
NtRp1589
(dp1590
g73
(dp1591
g100
g101
ssg82
g1580
sg75
(lp1592
S':'
asbag68
(g89
g70
NtRp1593
(dp1594
g73
(dp1595
sg82
g1580
sg75
(lp1596
g68
(g69
g70
NtRp1597
(dp1598
g73
(dp1599
g81
I4
ssg82
g1593
sg75
(lp1600
S'45021'
p1601
asbasbasbag68
(g84
g70
NtRp1602
(dp1603
g73
(dp1604
sg82
g1044
sg75
(lp1605
g68
(g89
g70
NtRp1606
(dp1607
g73
(dp1608
g93
g94
ssg82
g1602
sg75
(lp1609
S'request_method'
p1610
asbag68
(g89
g70
NtRp1611
(dp1612
g73
(dp1613
g100
g101
ssg82
g1602
sg75
(lp1614
S':'
asbag68
(g89
g70
NtRp1615
(dp1616
g73
(dp1617
sg82
g1602
sg75
(lp1618
g68
(g69
g70
NtRp1619
(dp1620
g73
(dp1621
g81
I4
ssg82
g1615
sg75
(lp1622
S'GET'
p1623
asbasbasbag68
(g84
g70
NtRp1624
(dp1625
g73
(dp1626
sg82
g1044
sg75
(lp1627
g68
(g89
g70
NtRp1628
(dp1629
g73
(dp1630
g93
g94
ssg82
g1624
sg75
(lp1631
S'request_uri'
p1632
asbag68
(g89
g70
NtRp1633
(dp1634
g73
(dp1635
g100
g101
ssg82
g1624
sg75
(lp1636
S':'
asbag68
(g89
g70
NtRp1637
(dp1638
g73
(dp1639
sg82
g1624
sg75
(lp1640
g68
(g69
g70
NtRp1641
(dp1642
g73
(dp1643
g81
I4
ssg82
g1637
sg75
(lp1644
g1537
asbasbasbag68
(g84
g70
NtRp1645
(dp1646
g73
(dp1647
sg82
g1044
sg75
(lp1648
g68
(g89
g70
NtRp1649
(dp1650
g73
(dp1651
g93
g94
ssg82
g1645
sg75
(lp1652
S'script_name'
p1653
asbag68
(g89
g70
NtRp1654
(dp1655
g73
(dp1656
g100
g101
ssg82
g1645
sg75
(lp1657
S':'
asbag68
(g89
g70
NtRp1658
(dp1659
g73
(dp1660
sg82
g1645
sg75
(lp1661
g68
(g69
g70
NtRp1662
(dp1663
g73
(dp1664
g81
I4
ssg82
g1658
sg75
(lp1665
S''
asbasbasbag68
(g84
g70
NtRp1666
(dp1667
g73
(dp1668
sg82
g1044
sg75
(lp1669
g68
(g89
g70
NtRp1670
(dp1671
g73
(dp1672
g93
g94
ssg82
g1666
sg75
(lp1673
S'server_name'
p1674
asbag68
(g89
g70
NtRp1675
(dp1676
g73
(dp1677
g100
g101
ssg82
g1666
sg75
(lp1678
S':'
asbag68
(g89
g70
NtRp1679
(dp1680
g73
(dp1681
sg82
g1666
sg75
(lp1682
g68
(g69
g70
NtRp1683
(dp1684
g73
(dp1685
g81
I4
ssg82
g1679
sg75
(lp1686
S'shipra'
p1687
asbasbasbag68
(g84
g70
NtRp1688
(dp1689
g73
(dp1690
sg82
g1044
sg75
(lp1691
g68
(g89
g70
NtRp1692
(dp1693
g73
(dp1694
g93
g94
ssg82
g1688
sg75
(lp1695
S'server_port'
p1696
asbag68
(g89
g70
NtRp1697
(dp1698
g73
(dp1699
g100
g101
ssg82
g1688
sg75
(lp1700
S':'
asbag68
(g89
g70
NtRp1701
(dp1702
g73
(dp1703
sg82
g1688
sg75
(lp1704
g68
(g69
g70
NtRp1705
(dp1706
g73
(dp1707
g81
I4
ssg82
g1701
sg75
(lp1708
S'8000'
p1709
asbasbasbag68
(g84
g70
NtRp1710
(dp1711
g73
(dp1712
sg82
g1044
sg75
(lp1713
g68
(g89
g70
NtRp1714
(dp1715
g73
(dp1716
g93
g94
ssg82
g1710
sg75
(lp1717
S'server_protocol'
p1718
asbag68
(g89
g70
NtRp1719
(dp1720
g73
(dp1721
g100
g101
ssg82
g1710
sg75
(lp1722
S':'
asbag68
(g89
g70
NtRp1723
(dp1724
g73
(dp1725
sg82
g1710
sg75
(lp1726
g68
(g69
g70
NtRp1727
(dp1728
g73
(dp1729
g81
I4
ssg82
g1723
sg75
(lp1730
S'HTTP/1.1'
p1731
asbasbasbag68
(g84
g70
NtRp1732
(dp1733
g73
(dp1734
sg82
g1044
sg75
(lp1735
g68
(g89
g70
NtRp1736
(dp1737
g73
(dp1738
g93
g94
ssg82
g1732
sg75
(lp1739
S'server_software'
p1740
asbag68
(g89
g70
NtRp1741
(dp1742
g73
(dp1743
g100
g101
ssg82
g1732
sg75
(lp1744
S':'
asbag68
(g89
g70
NtRp1745
(dp1746
g73
(dp1747
sg82
g1732
sg75
(lp1748
g68
(g69
g70
NtRp1749
(dp1750
g73
(dp1751
g81
I4
ssg82
g1745
sg75
(lp1752
S'Rocket 1.2.6'
p1753
asbasbasbag68
(g84
g70
NtRp1754
(dp1755
g73
(dp1756
sg82
g1044
sg75
(lp1757
g68
(g89
g70
NtRp1758
(dp1759
g73
(dp1760
g93
g94
ssg82
g1754
sg75
(lp1761
S'web2py_path'
p1762
asbag68
(g89
g70
NtRp1763
(dp1764
g73
(dp1765
g100
g101
ssg82
g1754
sg75
(lp1766
S':'
asbag68
(g89
g70
NtRp1767
(dp1768
g73
(dp1769
sg82
g1754
sg75
(lp1770
g68
(g69
g70
NtRp1771
(dp1772
g73
(dp1773
g81
I4
ssg82
g1767
sg75
(lp1774
g1091
asbasbasbag68
(g84
g70
NtRp1775
(dp1776
g73
(dp1777
sg82
g1044
sg75
(lp1778
g68
(g89
g70
NtRp1779
(dp1780
g73
(dp1781
g93
g94
ssg82
g1775
sg75
(lp1782
S'web2py_version'
p1783
asbag68
(g89
g70
NtRp1784
(dp1785
g73
(dp1786
g100
g101
ssg82
g1775
sg75
(lp1787
S':'
asbag68
(g89
g70
NtRp1788
(dp1789
g73
(dp1790
sg82
g1775
sg75
(lp1791
g68
(g69
g70
NtRp1792
(dp1793
g73
(dp1794
g81
I4
ssg82
g1788
sg75
(lp1795
g68
(g77
g70
NtRp1796
(dp1797
g73
(dp1798
g81
I3
ssg82
Nsg75
(lp1799
g68
(g84
g70
NtRp1800
(dp1801
g73
(dp1802
sg82
g1796
sg75
(lp1803
g68
(g89
g70
NtRp1804
(dp1805
g73
(dp1806
sg82
g1800
sg75
(lp1807
g68
(g69
g70
NtRp1808
(dp1809
g73
(dp1810
g81
I3
ssg82
g1804
sg75
(lp1811
S'2'
asbasbasbag68
(g84
g70
NtRp1812
(dp1813
g73
(dp1814
sg82
g1796
sg75
(lp1815
g68
(g89
g70
NtRp1816
(dp1817
g73
(dp1818
sg82
g1812
sg75
(lp1819
g68
(g69
g70
NtRp1820
(dp1821
g73
(dp1822
g81
I3
ssg82
g1816
sg75
(lp1823
S'3'
asbasbasbag68
(g84
g70
NtRp1824
(dp1825
g73
(dp1826
sg82
g1796
sg75
(lp1827
g68
(g89
g70
NtRp1828
(dp1829
g73
(dp1830
sg82
g1824
sg75
(lp1831
g68
(g69
g70
NtRp1832
(dp1833
g73
(dp1834
g81
I3
ssg82
g1828
sg75
(lp1835
S'2'
asbasbasbag68
(g84
g70
NtRp1836
(dp1837
g73
(dp1838
sg82
g1796
sg75
(lp1839
g68
(g89
g70
NtRp1840
(dp1841
g73
(dp1842
sg82
g1836
sg75
(lp1843
g68
(g69
g70
NtRp1844
(dp1845
g73
(dp1846
g81
I3
ssg82
g1840
sg75
(lp1847
S'datetime.datetime(2012, 12, 17, 15, 3, 30)'
p1848
asbasbasbag68
(g84
g70
NtRp1849
(dp1850
g73
(dp1851
sg82
g1796
sg75
(lp1852
g68
(g89
g70
NtRp1853
(dp1854
g73
(dp1855
sg82
g1849
sg75
(lp1856
g68
(g69
g70
NtRp1857
(dp1858
g73
(dp1859
g81
I3
ssg82
g1853
sg75
(lp1860
S'stable'
p1861
asbasbasbasbasbasbasbag68
(g84
g70
NtRp1862
(dp1863
g73
(dp1864
sg82
g1044
sg75
(lp1865
g68
(g89
g70
NtRp1866
(dp1867
g73
(dp1868
g93
g94
ssg82
g1862
sg75
(lp1869
S'wsgi_errors'
p1870
asbag68
(g89
g70
NtRp1871
(dp1872
g73
(dp1873
g100
g101
ssg82
g1862
sg75
(lp1874
S':'
asbag68
(g89
g70
NtRp1875
(dp1876
g73
(dp1877
sg82
g1862
sg75
(lp1878
g68
(g69
g70
NtRp1879
(dp1880
g73
(dp1881
g81
I4
ssg82
g1875
sg75
(lp1882
S"<open file '<stderr>', mode 'w' at 0x7ffcdb781270>"
p1883
asbasbasbag68
(g84
g70
NtRp1884
(dp1885
g73
(dp1886
sg82
g1044
sg75
(lp1887
g68
(g89
g70
NtRp1888
(dp1889
g73
(dp1890
g93
g94
ssg82
g1884
sg75
(lp1891
S'wsgi_file_wrapper'
p1892
asbag68
(g89
g70
NtRp1893
(dp1894
g73
(dp1895
g100
g101
ssg82
g1884
sg75
(lp1896
S':'
asbag68
(g89
g70
NtRp1897
(dp1898
g73
(dp1899
sg82
g1884
sg75
(lp1900
g68
(g69
g70
NtRp1901
(dp1902
g73
(dp1903
g81
I4
ssg82
g1897
sg75
(lp1904
S'<class wsgiref.util.FileWrapper at 0x2736db8>'
p1905
asbasbasbag68
(g84
g70
NtRp1906
(dp1907
g73
(dp1908
sg82
g1044
sg75
(lp1909
g68
(g89
g70
NtRp1910
(dp1911
g73
(dp1912
g93
g94
ssg82
g1906
sg75
(lp1913
S'wsgi_input'
p1914
asbag68
(g89
g70
NtRp1915
(dp1916
g73
(dp1917
g100
g101
ssg82
g1906
sg75
(lp1918
S':'
asbag68
(g89
g70
NtRp1919
(dp1920
g73
(dp1921
sg82
g1906
sg75
(lp1922
g68
(g69
g70
NtRp1923
(dp1924
g73
(dp1925
g81
I4
ssg82
g1919
sg75
(lp1926
S'<socket._fileobject object at 0x7ffcc4319050>'
p1927
asbasbasbag68
(g84
g70
NtRp1928
(dp1929
g73
(dp1930
sg82
g1044
sg75
(lp1931
g68
(g89
g70
NtRp1932
(dp1933
g73
(dp1934
g93
g94
ssg82
g1928
sg75
(lp1935
S'wsgi_multiprocess'
p1936
asbag68
(g89
g70
NtRp1937
(dp1938
g73
(dp1939
g100
g101
ssg82
g1928
sg75
(lp1940
S':'
asbag68
(g89
g70
NtRp1941
(dp1942
g73
(dp1943
sg82
g1928
sg75
(lp1944
g68
(g69
g70
NtRp1945
(dp1946
g73
(dp1947
g81
I4
ssg82
g1941
sg75
(lp1948
g111
asbasbasbag68
(g84
g70
NtRp1949
(dp1950
g73
(dp1951
sg82
g1044
sg75
(lp1952
g68
(g89
g70
NtRp1953
(dp1954
g73
(dp1955
g93
g94
ssg82
g1949
sg75
(lp1956
S'wsgi_multithread'
p1957
asbag68
(g89
g70
NtRp1958
(dp1959
g73
(dp1960
g100
g101
ssg82
g1949
sg75
(lp1961
S':'
asbag68
(g89
g70
NtRp1962
(dp1963
g73
(dp1964
sg82
g1949
sg75
(lp1965
g68
(g69
g70
NtRp1966
(dp1967
g73
(dp1968
g81
I4
ssg82
g1962
sg75
(lp1969
S'True'
p1970
asbasbasbag68
(g84
g70
NtRp1971
(dp1972
g73
(dp1973
sg82
g1044
sg75
(lp1974
g68
(g89
g70
NtRp1975
(dp1976
g73
(dp1977
g93
g94
ssg82
g1971
sg75
(lp1978
S'wsgi_run_once'
p1979
asbag68
(g89
g70
NtRp1980
(dp1981
g73
(dp1982
g100
g101
ssg82
g1971
sg75
(lp1983
S':'
asbag68
(g89
g70
NtRp1984
(dp1985
g73
(dp1986
sg82
g1971
sg75
(lp1987
g68
(g69
g70
NtRp1988
(dp1989
g73
(dp1990
g81
I4
ssg82
g1984
sg75
(lp1991
g111
asbasbasbag68
(g84
g70
NtRp1992
(dp1993
g73
(dp1994
sg82
g1044
sg75
(lp1995
g68
(g89
g70
NtRp1996
(dp1997
g73
(dp1998
g93
g94
ssg82
g1992
sg75
(lp1999
S'wsgi_url_scheme'
p2000
asbag68
(g89
g70
NtRp2001
(dp2002
g73
(dp2003
g100
g101
ssg82
g1992
sg75
(lp2004
S':'
asbag68
(g89
g70
NtRp2005
(dp2006
g73
(dp2007
sg82
g1992
sg75
(lp2008
g68
(g69
g70
NtRp2009
(dp2010
g73
(dp2011
g81
I4
ssg82
g2005
sg75
(lp2012
S'http'
p2013
asbasbasbag68
(g84
g70
NtRp2014
(dp2015
g73
(dp2016
sg82
g1044
sg75
(lp2017
g68
(g89
g70
NtRp2018
(dp2019
g73
(dp2020
g93
g94
ssg82
g2014
sg75
(lp2021
S'wsgi_version'
p2022
asbag68
(g89
g70
NtRp2023
(dp2024
g73
(dp2025
g100
g101
ssg82
g2014
sg75
(lp2026
S':'
asbag68
(g89
g70
NtRp2027
(dp2028
g73
(dp2029
sg82
g2014
sg75
(lp2030
g68
(g69
g70
NtRp2031
(dp2032
g73
(dp2033
g81
I4
ssg82
g2027
sg75
(lp2034
g68
(g77
g70
NtRp2035
(dp2036
g73
(dp2037
g81
I3
ssg82
Nsg75
(lp2038
g68
(g84
g70
NtRp2039
(dp2040
g73
(dp2041
sg82
g2035
sg75
(lp2042
g68
(g89
g70
NtRp2043
(dp2044
g73
(dp2045
sg82
g2039
sg75
(lp2046
g68
(g69
g70
NtRp2047
(dp2048
g73
(dp2049
g81
I3
ssg82
g2043
sg75
(lp2050
S'1'
asbasbasbag68
(g84
g70
NtRp2051
(dp2052
g73
(dp2053
sg82
g2035
sg75
(lp2054
g68
(g89
g70
NtRp2055
(dp2056
g73
(dp2057
sg82
g2051
sg75
(lp2058
g68
(g69
g70
NtRp2059
(dp2060
g73
(dp2061
g81
I3
ssg82
g2055
sg75
(lp2062
S'0'
asbasbasbasbasbasbasbasbasbasbasbag68
(g84
g70
NtRp2063
(dp2064
g73
(dp2065
sg82
g78
sg75
(lp2066
g68
(g89
g70
NtRp2067
(dp2068
g73
(dp2069
g93
g94
ssg82
g2063
sg75
(lp2070
S'extension'
p2071
asbag68
(g89
g70
NtRp2072
(dp2073
g73
(dp2074
g100
g101
ssg82
g2063
sg75
(lp2075
S':'
asbag68
(g89
g70
NtRp2076
(dp2077
g73
(dp2078
sg82
g2063
sg75
(lp2079
g68
(g69
g70
NtRp2080
(dp2081
g73
(dp2082
g81
I5
ssg82
g2076
sg75
(lp2083
S'html'
p2084
asbasbasbag68
(g84
g70
NtRp2085
(dp2086
g73
(dp2087
sg82
g78
sg75
(lp2088
g68
(g89
g70
NtRp2089
(dp2090
g73
(dp2091
g93
g94
ssg82
g2085
sg75
(lp2092
S'folder'
p2093
asbag68
(g89
g70
NtRp2094
(dp2095
g73
(dp2096
g100
g101
ssg82
g2085
sg75
(lp2097
S':'
asbag68
(g89
g70
NtRp2098
(dp2099
g73
(dp2100
sg82
g2085
sg75
(lp2101
g68
(g69
g70
NtRp2102
(dp2103
g73
(dp2104
g81
I5
ssg82
g2098
sg75
(lp2105
S'/home/shipra/Desktop/Semester 1.2/ITWS-2/web2py/applications/shipra/'
p2106
asbasbasbag68
(g84
g70
NtRp2107
(dp2108
g73
(dp2109
sg82
g78
sg75
(lp2110
g68
(g89
g70
NtRp2111
(dp2112
g73
(dp2113
g93
g94
ssg82
g2107
sg75
(lp2114
S'function'
p2115
asbag68
(g89
g70
NtRp2116
(dp2117
g73
(dp2118
g100
g101
ssg82
g2107
sg75
(lp2119
S':'
asbag68
(g89
g70
NtRp2120
(dp2121
g73
(dp2122
sg82
g2107
sg75
(lp2123
g68
(g69
g70
NtRp2124
(dp2125
g73
(dp2126
g81
I5
ssg82
g2120
sg75
(lp2127
S'resume_search'
p2128
asbasbasbag68
(g84
g70
NtRp2129
(dp2130
g73
(dp2131
sg82
g78
sg75
(lp2132
g68
(g89
g70
NtRp2133
(dp2134
g73
(dp2135
g93
g94
ssg82
g2129
sg75
(lp2136
S'get_vars'
p2137
asbag68
(g89
g70
NtRp2138
(dp2139
g73
(dp2140
g100
g101
ssg82
g2129
sg75
(lp2141
S':'
asbag68
(g89
g70
NtRp2142
(dp2143
g73
(dp2144
sg82
g2129
sg75
(lp2145
g68
(g69
g70
NtRp2146
(dp2147
g73
(dp2148
g81
I5
ssg82
g2142
sg75
(lp2149
g68
(g77
g70
NtRp2150
(dp2151
g73
(dp2152
g81
I4
ssg82
Nsg75
(lp2153
sbasbasbasbag68
(g84
g70
NtRp2154
(dp2155
g73
(dp2156
sg82
g78
sg75
(lp2157
g68
(g89
g70
NtRp2158
(dp2159
g73
(dp2160
g93
g94
ssg82
g2154
sg75
(lp2161
S'global_settings'
p2162
asbag68
(g89
g70
NtRp2163
(dp2164
g73
(dp2165
g100
g101
ssg82
g2154
sg75
(lp2166
S':'
asbag68
(g89
g70
NtRp2167
(dp2168
g73
(dp2169
sg82
g2154
sg75
(lp2170
g68
(g69
g70
NtRp2171
(dp2172
g73
(dp2173
g81
I5
ssg82
g2167
sg75
(lp2174
g68
(g77
g70
NtRp2175
(dp2176
g73
(dp2177
g81
I4
ssg82
Nsg75
(lp2178
g68
(g84
g70
NtRp2179
(dp2180
g73
(dp2181
sg82
g2175
sg75
(lp2182
g68
(g89
g70
NtRp2183
(dp2184
g73
(dp2185
g93
g94
ssg82
g2179
sg75
(lp2186
g1056
asbag68
(g89
g70
NtRp2187
(dp2188
g73
(dp2189
g100
g101
ssg82
g2179
sg75
(lp2190
S':'
asbag68
(g89
g70
NtRp2191
(dp2192
g73
(dp2193
sg82
g2179
sg75
(lp2194
g68
(g69
g70
NtRp2195
(dp2196
g73
(dp2197
g81
I4
ssg82
g2191
sg75
(lp2198
S"set(['/home/shipra/Desktop/Semester 1.2/ITWS-2/web2py/applications/shipra/', '/home/shipra/Desktop/Semester 1.2/ITWS-2/web2py/applications/welcome/', '/home/shipra/Desktop/Semester 1.2/ITWS-2/web2py/applications/admin/'])"
p2199
asbasbasbag68
(g84
g70
NtRp2200
(dp2201
g73
(dp2202
sg82
g2175
sg75
(lp2203
g68
(g89
g70
NtRp2204
(dp2205
g73
(dp2206
g93
g94
ssg82
g2200
sg75
(lp2207
g1078
asbag68
(g89
g70
NtRp2208
(dp2209
g73
(dp2210
g100
g101
ssg82
g2200
sg75
(lp2211
S':'
asbag68
(g89
g70
NtRp2212
(dp2213
g73
(dp2214
sg82
g2200
sg75
(lp2215
g68
(g69
g70
NtRp2216
(dp2217
g73
(dp2218
g81
I4
ssg82
g2212
sg75
(lp2219
g1091
asbasbasbag68
(g84
g70
NtRp2220
(dp2221
g73
(dp2222
sg82
g2175
sg75
(lp2223
g68
(g89
g70
NtRp2224
(dp2225
g73
(dp2226
g93
g94
ssg82
g2220
sg75
(lp2227
g1100
asbag68
(g89
g70
NtRp2228
(dp2229
g73
(dp2230
g100
g101
ssg82
g2220
sg75
(lp2231
S':'
asbag68
(g89
g70
NtRp2232
(dp2233
g73
(dp2234
sg82
g2220
sg75
(lp2235
g68
(g69
g70
NtRp2236
(dp2237
g73
(dp2238
g81
I4
ssg82
g2232
sg75
(lp2239
g68
(g77
g70
NtRp2240
(dp2241
g73
(dp2242
g81
I3
ssg82
Nsg75
(lp2243
sbasbasbasbag68
(g84
g70
NtRp2244
(dp2245
g73
(dp2246
sg82
g2175
sg75
(lp2247
g68
(g89
g70
NtRp2248
(dp2249
g73
(dp2250
g93
g94
ssg82
g2244
sg75
(lp2251
g1125
asbag68
(g89
g70
NtRp2252
(dp2253
g73
(dp2254
g100
g101
ssg82
g2244
sg75
(lp2255
S':'
asbag68
(g89
g70
NtRp2256
(dp2257
g73
(dp2258
sg82
g2244
sg75
(lp2259
g68
(g69
g70
NtRp2260
(dp2261
g73
(dp2262
g81
I4
ssg82
g2256
sg75
(lp2263
S"<Values at 0x27ad248: {'verbose': False, 'ip': '127.0.0.1', 'with_scheduler': False, 'ips': ['192.168.122.1', 'fe80::8a53:2eff:fe7d:9d6c%wlan0', '10.42.0.99'], 'shutdown_timeout': 5, 'taskbar': False, 'port': 8000, 'maxthreads': None, 'softcron': False, 'server_name': 'shipra', 'bpython': False, 'nogui': False, 'pid_filename': 'httpserver.pid', 'extcron': False, 'runcron': False, 'run_system_tests': False, 'test': None, 'folder': '/home/shipra/Desktop/Semester 1.2/ITWS-2/web2py', 'config': '', 'minthreads': None, 'winservice': '', 'shell': None, 'run': '', 'log_filename': 'httpserver.log', 'debuglevel': 30, 'args': [''], 'socket_timeout': 5, 'ssl_ca_certificate': None, 'scheduler': None, 'profiler_filename': None, 'ssl_private_key': '', 'scheduler_groups': None, 'password': '<ask>', 'request_queue_size': 5, 'ssl_certificate': '', 'cronjob': False, 'numthreads': None, 'quiet': False, 'interfaces': None, 'import_models': False, 'timeout': 10, 'plain': False, 'nobanner': False}>"
p2264
asbasbasbag68
(g84
g70
NtRp2265
(dp2266
g73
(dp2267
sg82
g2175
sg75
(lp2268
g68
(g89
g70
NtRp2269
(dp2270
g73
(dp2271
g93
g94
ssg82
g2265
sg75
(lp2272
g1147
asbag68
(g89
g70
NtRp2273
(dp2274
g73
(dp2275
g100
g101
ssg82
g2265
sg75
(lp2276
S':'
asbag68
(g89
g70
NtRp2277
(dp2278
g73
(dp2279
sg82
g2265
sg75
(lp2280
g68
(g69
g70
NtRp2281
(dp2282
g73
(dp2283
g81
I4
ssg82
g2277
sg75
(lp2284
S'set([])'
p2285
asbasbasbag68
(g84
g70
NtRp2286
(dp2287
g73
(dp2288
sg82
g2175
sg75
(lp2289
g68
(g89
g70
NtRp2290
(dp2291
g73
(dp2292
g93
g94
ssg82
g2286
sg75
(lp2293
g1169
asbag68
(g89
g70
NtRp2294
(dp2295
g73
(dp2296
g100
g101
ssg82
g2286
sg75
(lp2297
S':'
asbag68
(g89
g70
NtRp2298
(dp2299
g73
(dp2300
sg82
g2286
sg75
(lp2301
g68
(g69
g70
NtRp2302
(dp2303
g73
(dp2304
g81
I4
ssg82
g2298
sg75
(lp2305
g111
asbasbasbag68
(g84
g70
NtRp2306
(dp2307
g73
(dp2308
sg82
g2175
sg75
(lp2309
g68
(g89
g70
NtRp2310
(dp2311
g73
(dp2312
g93
g94
ssg82
g2306
sg75
(lp2313
g1190
asbag68
(g89
g70
NtRp2314
(dp2315
g73
(dp2316
g100
g101
ssg82
g2306
sg75
(lp2317
S':'
asbag68
(g89
g70
NtRp2318
(dp2319
g73
(dp2320
sg82
g2306
sg75
(lp2321
g68
(g69
g70
NtRp2322
(dp2323
g73
(dp2324
g81
I4
ssg82
g2318
sg75
(lp2325
g1203
asbasbasbag68
(g84
g70
NtRp2326
(dp2327
g73
(dp2328
sg82
g2175
sg75
(lp2329
g68
(g89
g70
NtRp2330
(dp2331
g73
(dp2332
g93
g94
ssg82
g2326
sg75
(lp2333
g1366
asbag68
(g89
g70
NtRp2334
(dp2335
g73
(dp2336
g100
g101
ssg82
g2326
sg75
(lp2337
S':'
asbag68
(g89
g70
NtRp2338
(dp2339
g73
(dp2340
sg82
g2326
sg75
(lp2341
g68
(g69
g70
NtRp2342
(dp2343
g73
(dp2344
g81
I4
ssg82
g2338
sg75
(lp2345
g111
asbasbasbag68
(g84
g70
NtRp2346
(dp2347
g73
(dp2348
sg82
g2175
sg75
(lp2349
g68
(g89
g70
NtRp2350
(dp2351
g73
(dp2352
g93
g94
ssg82
g2346
sg75
(lp2353
g1387
asbag68
(g89
g70
NtRp2354
(dp2355
g73
(dp2356
g100
g101
ssg82
g2346
sg75
(lp2357
S':'
asbag68
(g89
g70
NtRp2358
(dp2359
g73
(dp2360
sg82
g2346
sg75
(lp2361
g68
(g69
g70
NtRp2362
(dp2363
g73
(dp2364
g81
I4
ssg82
g2358
sg75
(lp2365
g111
asbasbasbag68
(g84
g70
NtRp2366
(dp2367
g73
(dp2368
sg82
g2175
sg75
(lp2369
g68
(g89
g70
NtRp2370
(dp2371
g73
(dp2372
g93
g94
ssg82
g2366
sg75
(lp2373
g1408
asbag68
(g89
g70
NtRp2374
(dp2375
g73
(dp2376
g100
g101
ssg82
g2366
sg75
(lp2377
S':'
asbag68
(g89
g70
NtRp2378
(dp2379
g73
(dp2380
sg82
g2366
sg75
(lp2381
g68
(g69
g70
NtRp2382
(dp2383
g73
(dp2384
g81
I4
ssg82
g2378
sg75
(lp2385
g68
(g77
g70
NtRp2386
(dp2387
g73
(dp2388
g81
I3
ssg82
Nsg75
(lp2389
g68
(g84
g70
NtRp2390
(dp2391
g73
(dp2392
sg82
g2386
sg75
(lp2393
g68
(g89
g70
NtRp2394
(dp2395
g73
(dp2396
sg82
g2390
sg75
(lp2397
g68
(g69
g70
NtRp2398
(dp2399
g73
(dp2400
g81
I3
ssg82
g2394
sg75
(lp2401
g1437
asbasbasbag68
(g84
g70
NtRp2402
(dp2403
g73
(dp2404
sg82
g2386
sg75
(lp2405
g68
(g89
g70
NtRp2406
(dp2407
g73
(dp2408
sg82
g2402
sg75
(lp2409
g68
(g69
g70
NtRp2410
(dp2411
g73
(dp2412
g81
I3
ssg82
g2406
sg75
(lp2413
g1450
asbasbasbag68
(g84
g70
NtRp2414
(dp2415
g73
(dp2416
sg82
g2386
sg75
(lp2417
g68
(g89
g70
NtRp2418
(dp2419
g73
(dp2420
sg82
g2414
sg75
(lp2421
g68
(g69
g70
NtRp2422
(dp2423
g73
(dp2424
g81
I3
ssg82
g2418
sg75
(lp2425
g1463
asbasbasbag68
(g84
g70
NtRp2426
(dp2427
g73
(dp2428
sg82
g2386
sg75
(lp2429
g68
(g89
g70
NtRp2430
(dp2431
g73
(dp2432
sg82
g2426
sg75
(lp2433
g68
(g69
g70
NtRp2434
(dp2435
g73
(dp2436
g81
I3
ssg82
g2430
sg75
(lp2437
g1476
asbasbasbag68
(g84
g70
NtRp2438
(dp2439
g73
(dp2440
sg82
g2386
sg75
(lp2441
g68
(g89
g70
NtRp2442
(dp2443
g73
(dp2444
sg82
g2438
sg75
(lp2445
g68
(g69
g70
NtRp2446
(dp2447
g73
(dp2448
g81
I3
ssg82
g2442
sg75
(lp2449
g1489
asbasbasbag68
(g84
g70
NtRp2450
(dp2451
g73
(dp2452
sg82
g2386
sg75
(lp2453
g68
(g89
g70
NtRp2454
(dp2455
g73
(dp2456
sg82
g2450
sg75
(lp2457
g68
(g69
g70
NtRp2458
(dp2459
g73
(dp2460
g81
I3
ssg82
g2454
sg75
(lp2461
g1502
asbasbasbag68
(g84
g70
NtRp2462
(dp2463
g73
(dp2464
sg82
g2386
sg75
(lp2465
g68
(g89
g70
NtRp2466
(dp2467
g73
(dp2468
sg82
g2462
sg75
(lp2469
g68
(g69
g70
NtRp2470
(dp2471
g73
(dp2472
g81
I3
ssg82
g2466
sg75
(lp2473
g1515
asbasbasbasbasbasbasbag68
(g84
g70
NtRp2474
(dp2475
g73
(dp2476
sg82
g2175
sg75
(lp2477
g68
(g89
g70
NtRp2478
(dp2479
g73
(dp2480
g93
g94
ssg82
g2474
sg75
(lp2481
g1783
asbag68
(g89
g70
NtRp2482
(dp2483
g73
(dp2484
g100
g101
ssg82
g2474
sg75
(lp2485
S':'
asbag68
(g89
g70
NtRp2486
(dp2487
g73
(dp2488
sg82
g2474
sg75
(lp2489
g68
(g69
g70
NtRp2490
(dp2491
g73
(dp2492
g81
I4
ssg82
g2486
sg75
(lp2493
g68
(g77
g70
NtRp2494
(dp2495
g73
(dp2496
g81
I3
ssg82
Nsg75
(lp2497
g68
(g84
g70
NtRp2498
(dp2499
g73
(dp2500
sg82
g2494
sg75
(lp2501
g68
(g89
g70
NtRp2502
(dp2503
g73
(dp2504
sg82
g2498
sg75
(lp2505
g68
(g69
g70
NtRp2506
(dp2507
g73
(dp2508
g81
I3
ssg82
g2502
sg75
(lp2509
S'2'
asbasbasbag68
(g84
g70
NtRp2510
(dp2511
g73
(dp2512
sg82
g2494
sg75
(lp2513
g68
(g89
g70
NtRp2514
(dp2515
g73
(dp2516
sg82
g2510
sg75
(lp2517
g68
(g69
g70
NtRp2518
(dp2519
g73
(dp2520
g81
I3
ssg82
g2514
sg75
(lp2521
S'3'
asbasbasbag68
(g84
g70
NtRp2522
(dp2523
g73
(dp2524
sg82
g2494
sg75
(lp2525
g68
(g89
g70
NtRp2526
(dp2527
g73
(dp2528
sg82
g2522
sg75
(lp2529
g68
(g69
g70
NtRp2530
(dp2531
g73
(dp2532
g81
I3
ssg82
g2526
sg75
(lp2533
S'2'
asbasbasbag68
(g84
g70
NtRp2534
(dp2535
g73
(dp2536
sg82
g2494
sg75
(lp2537
g68
(g89
g70
NtRp2538
(dp2539
g73
(dp2540
sg82
g2534
sg75
(lp2541
g68
(g69
g70
NtRp2542
(dp2543
g73
(dp2544
g81
I3
ssg82
g2538
sg75
(lp2545
S'datetime.datetime(2012, 12, 17, 15, 3, 30)'
p2546
asbasbasbag68
(g84
g70
NtRp2547
(dp2548
g73
(dp2549
sg82
g2494
sg75
(lp2550
g68
(g89
g70
NtRp2551
(dp2552
g73
(dp2553
sg82
g2547
sg75
(lp2554
g68
(g69
g70
NtRp2555
(dp2556
g73
(dp2557
g81
I3
ssg82
g2551
sg75
(lp2558
g1861
asbasbasbasbasbasbasbasbasbasbasbag68
(g84
g70
NtRp2559
(dp2560
g73
(dp2561
sg82
g78
sg75
(lp2562
g68
(g89
g70
NtRp2563
(dp2564
g73
(dp2565
g93
g94
ssg82
g2559
sg75
(lp2566
S'is_https'
p2567
asbag68
(g89
g70
NtRp2568
(dp2569
g73
(dp2570
g100
g101
ssg82
g2559
sg75
(lp2571
S':'
asbag68
(g89
g70
NtRp2572
(dp2573
g73
(dp2574
sg82
g2559
sg75
(lp2575
g68
(g69
g70
NtRp2576
(dp2577
g73
(dp2578
g81
I5
ssg82
g2572
sg75
(lp2579
g111
asbasbasbag68
(g84
g70
NtRp2580
(dp2581
g73
(dp2582
sg82
g78
sg75
(lp2583
g68
(g89
g70
NtRp2584
(dp2585
g73
(dp2586
g93
g94
ssg82
g2580
sg75
(lp2587
S'is_local'
p2588
asbag68
(g89
g70
NtRp2589
(dp2590
g73
(dp2591
g100
g101
ssg82
g2580
sg75
(lp2592
S':'
asbag68
(g89
g70
NtRp2593
(dp2594
g73
(dp2595
sg82
g2580
sg75
(lp2596
g68
(g69
g70
NtRp2597
(dp2598
g73
(dp2599
g81
I5
ssg82
g2593
sg75
(lp2600
g1970
asbasbasbag68
(g84
g70
NtRp2601
(dp2602
g73
(dp2603
sg82
g78
sg75
(lp2604
g68
(g89
g70
NtRp2605
(dp2606
g73
(dp2607
g93
g94
ssg82
g2601
sg75
(lp2608
S'is_restful'
p2609
asbag68
(g89
g70
NtRp2610
(dp2611
g73
(dp2612
g100
g101
ssg82
g2601
sg75
(lp2613
S':'
asbag68
(g89
g70
NtRp2614
(dp2615
g73
(dp2616
sg82
g2601
sg75
(lp2617
g68
(g69
g70
NtRp2618
(dp2619
g73
(dp2620
g81
I5
ssg82
g2614
sg75
(lp2621
g111
asbasbasbag68
(g84
g70
NtRp2622
(dp2623
g73
(dp2624
sg82
g78
sg75
(lp2625
g68
(g89
g70
NtRp2626
(dp2627
g73
(dp2628
g93
g94
ssg82
g2622
sg75
(lp2629
S'now'
p2630
asbag68
(g89
g70
NtRp2631
(dp2632
g73
(dp2633
g100
g101
ssg82
g2622
sg75
(lp2634
S':'
asbag68
(g89
g70
NtRp2635
(dp2636
g73
(dp2637
sg82
g2622
sg75
(lp2638
g68
(g69
g70
NtRp2639
(dp2640
g73
(dp2641
g81
I5
ssg82
g2635
sg75
(lp2642
S'datetime.datetime(2013, 4, 14, 15, 17, 18, 333596)'
p2643
asbasbasbag68
(g84
g70
NtRp2644
(dp2645
g73
(dp2646
sg82
g78
sg75
(lp2647
g68
(g89
g70
NtRp2648
(dp2649
g73
(dp2650
g93
g94
ssg82
g2644
sg75
(lp2651
S'post_vars'
p2652
asbag68
(g89
g70
NtRp2653
(dp2654
g73
(dp2655
g100
g101
ssg82
g2644
sg75
(lp2656
S':'
asbag68
(g89
g70
NtRp2657
(dp2658
g73
(dp2659
sg82
g2644
sg75
(lp2660
g68
(g69
g70
NtRp2661
(dp2662
g73
(dp2663
g81
I5
ssg82
g2657
sg75
(lp2664
g68
(g77
g70
NtRp2665
(dp2666
g73
(dp2667
g81
I4
ssg82
Nsg75
(lp2668
sbasbasbasbag68
(g84
g70
NtRp2669
(dp2670
g73
(dp2671
sg82
g78
sg75
(lp2672
g68
(g89
g70
NtRp2673
(dp2674
g73
(dp2675
g93
g94
ssg82
g2669
sg75
(lp2676
S'raw_args'
p2677
asbag68
(g89
g70
NtRp2678
(dp2679
g73
(dp2680
g100
g101
ssg82
g2669
sg75
(lp2681
S':'
asbag68
(g89
g70
NtRp2682
(dp2683
g73
(dp2684
sg82
g2669
sg75
(lp2685
g68
(g69
g70
NtRp2686
(dp2687
g73
(dp2688
g81
I5
ssg82
g2682
sg75
(lp2689
S''
asbasbasbag68
(g84
g70
NtRp2690
(dp2691
g73
(dp2692
sg82
g78
sg75
(lp2693
g68
(g89
g70
NtRp2694
(dp2695
g73
(dp2696
g93
g94
ssg82
g2690
sg75
(lp2697
S'raw_extension'
p2698
asbag68
(g89
g70
NtRp2699
(dp2700
g73
(dp2701
g100
g101
ssg82
g2690
sg75
(lp2702
S':'
asbag68
(g89
g70
NtRp2703
(dp2704
g73
(dp2705
sg82
g2690
sg75
(lp2706
g68
(g69
g70
NtRp2707
(dp2708
g73
(dp2709
g81
I5
ssg82
g2703
sg75
(lp2710
S'None'
p2711
asbasbasbag68
(g84
g70
NtRp2712
(dp2713
g73
(dp2714
sg82
g78
sg75
(lp2715
g68
(g89
g70
NtRp2716
(dp2717
g73
(dp2718
g93
g94
ssg82
g2712
sg75
(lp2719
S'url'
p2720
asbag68
(g89
g70
NtRp2721
(dp2722
g73
(dp2723
g100
g101
ssg82
g2712
sg75
(lp2724
S':'
asbag68
(g89
g70
NtRp2725
(dp2726
g73
(dp2727
sg82
g2712
sg75
(lp2728
g68
(g69
g70
NtRp2729
(dp2730
g73
(dp2731
g81
I5
ssg82
g2725
sg75
(lp2732
g1537
asbasbasbag68
(g84
g70
NtRp2733
(dp2734
g73
(dp2735
sg82
g78
sg75
(lp2736
g68
(g89
g70
NtRp2737
(dp2738
g73
(dp2739
g93
g94
ssg82
g2733
sg75
(lp2740
S'utcnow'
p2741
asbag68
(g89
g70
NtRp2742
(dp2743
g73
(dp2744
g100
g101
ssg82
g2733
sg75
(lp2745
S':'
asbag68
(g89
g70
NtRp2746
(dp2747
g73
(dp2748
sg82
g2733
sg75
(lp2749
g68
(g69
g70
NtRp2750
(dp2751
g73
(dp2752
g81
I5
ssg82
g2746
sg75
(lp2753
S'datetime.datetime(2013, 4, 14, 9, 47, 18, 333624)'
p2754
asbasbasbag68
(g84
g70
NtRp2755
(dp2756
g73
(dp2757
sg82
g78
sg75
(lp2758
g68
(g89
g70
NtRp2759
(dp2760
g73
(dp2761
g93
g94
ssg82
g2755
sg75
(lp2762
S'uuid'
p2763
asbag68
(g89
g70
NtRp2764
(dp2765
g73
(dp2766
g100
g101
ssg82
g2755
sg75
(lp2767
S':'
asbag68
(g89
g70
NtRp2768
(dp2769
g73
(dp2770
sg82
g2755
sg75
(lp2771
g68
(g69
g70
NtRp2772
(dp2773
g73
(dp2774
g81
I5
ssg82
g2768
sg75
(lp2775
S'shipra/127.0.0.1.2013-04-14.15-17-18.4fde1410-7f3b-4acc-beb3-f6c63c337cc4'
p2776
asbasbasbag68
(g84
g70
NtRp2777
(dp2778
g73
(dp2779
sg82
g78
sg75
(lp2780
g68
(g89
g70
NtRp2781
(dp2782
g73
(dp2783
g93
g94
ssg82
g2777
sg75
(lp2784
S'vars'
p2785
asbag68
(g89
g70
NtRp2786
(dp2787
g73
(dp2788
g100
g101
ssg82
g2777
sg75
(lp2789
S':'
asbag68
(g89
g70
NtRp2790
(dp2791
g73
(dp2792
sg82
g2777
sg75
(lp2793
g68
(g69
g70
NtRp2794
(dp2795
g73
(dp2796
g81
I5
ssg82
g2790
sg75
(lp2797
g68
(g77
g70
NtRp2798
(dp2799
g73
(dp2800
g81
I4
ssg82
Nsg75
(lp2801
sbasbasbasbag68
(g84
g70
NtRp2802
(dp2803
g73
(dp2804
sg82
g78
sg75
(lp2805
g68
(g89
g70
NtRp2806
(dp2807
g73
(dp2808
g93
g94
ssg82
g2802
sg75
(lp2809
S'wsgi'
p2810
asbag68
(g89
g70
NtRp2811
(dp2812
g73
(dp2813
g100
g101
ssg82
g2802
sg75
(lp2814
S':'
asbag68
(g89
g70
NtRp2815
(dp2816
g73
(dp2817
sg82
g2802
sg75
(lp2818
g68
(g69
g70
NtRp2819
(dp2820
g73
(dp2821
g81
I5
ssg82
g2815
sg75
(lp2822
g68
(g77
g70
NtRp2823
(dp2824
g73
(dp2825
g81
I4
ssg82
Nsg75
(lp2826
g68
(g84
g70
NtRp2827
(dp2828
g73
(dp2829
sg82
g2823
sg75
(lp2830
g68
(g89
g70
NtRp2831
(dp2832
g73
(dp2833
g93
g94
ssg82
g2827
sg75
(lp2834
S'environ'
p2835
asbag68
(g89
g70
NtRp2836
(dp2837
g73
(dp2838
g100
g101
ssg82
g2827
sg75
(lp2839
S':'
asbag68
(g89
g70
NtRp2840
(dp2841
g73
(dp2842
sg82
g2827
sg75
(lp2843
g68
(g69
g70
NtRp2844
(dp2845
g73
(dp2846
g81
I4
ssg82
g2840
sg75
(lp2847
g68
(g77
g70
NtRp2848
(dp2849
g73
(dp2850
g81
I3
ssg82
Nsg75
(lp2851
g68
(g84
g70
NtRp2852
(dp2853
g73
(dp2854
sg82
g2848
sg75
(lp2855
g68
(g89
g70
NtRp2856
(dp2857
g73
(dp2858
g93
g94
ssg82
g2852
sg75
(lp2859
S'HTTP_ACCEPT'
p2860
asbag68
(g89
g70
NtRp2861
(dp2862
g73
(dp2863
g100
g101
ssg82
g2852
sg75
(lp2864
S':'
asbag68
(g89
g70
NtRp2865
(dp2866
g73
(dp2867
sg82
g2852
sg75
(lp2868
g68
(g69
g70
NtRp2869
(dp2870
g73
(dp2871
g81
I3
ssg82
g2865
sg75
(lp2872
g1225
asbasbasbag68
(g84
g70
NtRp2873
(dp2874
g73
(dp2875
sg82
g2848
sg75
(lp2876
g68
(g89
g70
NtRp2877
(dp2878
g73
(dp2879
g93
g94
ssg82
g2873
sg75
(lp2880
S'HTTP_ACCEPT_ENCODING'
p2881
asbag68
(g89
g70
NtRp2882
(dp2883
g73
(dp2884
g100
g101
ssg82
g2873
sg75
(lp2885
S':'
asbag68
(g89
g70
NtRp2886
(dp2887
g73
(dp2888
sg82
g2873
sg75
(lp2889
g68
(g69
g70
NtRp2890
(dp2891
g73
(dp2892
g81
I3
ssg82
g2886
sg75
(lp2893
g1247
asbasbasbag68
(g84
g70
NtRp2894
(dp2895
g73
(dp2896
sg82
g2848
sg75
(lp2897
g68
(g89
g70
NtRp2898
(dp2899
g73
(dp2900
g93
g94
ssg82
g2894
sg75
(lp2901
S'HTTP_ACCEPT_LANGUAGE'
p2902
asbag68
(g89
g70
NtRp2903
(dp2904
g73
(dp2905
g100
g101
ssg82
g2894
sg75
(lp2906
S':'
asbag68
(g89
g70
NtRp2907
(dp2908
g73
(dp2909
sg82
g2894
sg75
(lp2910
g68
(g69
g70
NtRp2911
(dp2912
g73
(dp2913
g81
I3
ssg82
g2907
sg75
(lp2914
g1269
asbasbasbag68
(g84
g70
NtRp2915
(dp2916
g73
(dp2917
sg82
g2848
sg75
(lp2918
g68
(g89
g70
NtRp2919
(dp2920
g73
(dp2921
g93
g94
ssg82
g2915
sg75
(lp2922
S'HTTP_CONNECTION'
p2923
asbag68
(g89
g70
NtRp2924
(dp2925
g73
(dp2926
g100
g101
ssg82
g2915
sg75
(lp2927
S':'
asbag68
(g89
g70
NtRp2928
(dp2929
g73
(dp2930
sg82
g2915
sg75
(lp2931
g68
(g69
g70
NtRp2932
(dp2933
g73
(dp2934
g81
I3
ssg82
g2928
sg75
(lp2935
g1291
asbasbasbag68
(g84
g70
NtRp2936
(dp2937
g73
(dp2938
sg82
g2848
sg75
(lp2939
g68
(g89
g70
NtRp2940
(dp2941
g73
(dp2942
g93
g94
ssg82
g2936
sg75
(lp2943
S'HTTP_COOKIE'
p2944
asbag68
(g89
g70
NtRp2945
(dp2946
g73
(dp2947
g100
g101
ssg82
g2936
sg75
(lp2948
S':'
asbag68
(g89
g70
NtRp2949
(dp2950
g73
(dp2951
sg82
g2936
sg75
(lp2952
g68
(g69
g70
NtRp2953
(dp2954
g73
(dp2955
g81
I3
ssg82
g2949
sg75
(lp2956
g1313
asbasbasbag68
(g84
g70
NtRp2957
(dp2958
g73
(dp2959
sg82
g2848
sg75
(lp2960
g68
(g89
g70
NtRp2961
(dp2962
g73
(dp2963
g93
g94
ssg82
g2957
sg75
(lp2964
S'HTTP_HOST'
p2965
asbag68
(g89
g70
NtRp2966
(dp2967
g73
(dp2968
g100
g101
ssg82
g2957
sg75
(lp2969
S':'
asbag68
(g89
g70
NtRp2970
(dp2971
g73
(dp2972
sg82
g2957
sg75
(lp2973
g68
(g69
g70
NtRp2974
(dp2975
g73
(dp2976
g81
I3
ssg82
g2970
sg75
(lp2977
g1335
asbasbasbag68
(g84
g70
NtRp2978
(dp2979
g73
(dp2980
sg82
g2848
sg75
(lp2981
g68
(g89
g70
NtRp2982
(dp2983
g73
(dp2984
g93
g94
ssg82
g2978
sg75
(lp2985
S'HTTP_USER_AGENT'
p2986
asbag68
(g89
g70
NtRp2987
(dp2988
g73
(dp2989
g100
g101
ssg82
g2978
sg75
(lp2990
S':'
asbag68
(g89
g70
NtRp2991
(dp2992
g73
(dp2993
sg82
g2978
sg75
(lp2994
g68
(g69
g70
NtRp2995
(dp2996
g73
(dp2997
g81
I3
ssg82
g2991
sg75
(lp2998
g1357
asbasbasbag68
(g84
g70
NtRp2999
(dp3000
g73
(dp3001
sg82
g2848
sg75
(lp3002
g68
(g89
g70
NtRp3003
(dp3004
g73
(dp3005
g93
g94
ssg82
g2999
sg75
(lp3006
S'PATH_INFO'
p3007
asbag68
(g89
g70
NtRp3008
(dp3009
g73
(dp3010
g100
g101
ssg82
g2999
sg75
(lp3011
S':'
asbag68
(g89
g70
NtRp3012
(dp3013
g73
(dp3014
sg82
g2999
sg75
(lp3015
g68
(g69
g70
NtRp3016
(dp3017
g73
(dp3018
g81
I3
ssg82
g3012
sg75
(lp3019
g1537
asbasbasbag68
(g84
g70
NtRp3020
(dp3021
g73
(dp3022
sg82
g2848
sg75
(lp3023
g68
(g89
g70
NtRp3024
(dp3025
g73
(dp3026
g93
g94
ssg82
g3020
sg75
(lp3027
S'QUERY_STRING'
p3028
asbag68
(g89
g70
NtRp3029
(dp3030
g73
(dp3031
g100
g101
ssg82
g3020
sg75
(lp3032
S':'
asbag68
(g89
g70
NtRp3033
(dp3034
g73
(dp3035
sg82
g3020
sg75
(lp3036
g68
(g69
g70
NtRp3037
(dp3038
g73
(dp3039
g81
I3
ssg82
g3033
sg75
(lp3040
S''
asbasbasbag68
(g84
g70
NtRp3041
(dp3042
g73
(dp3043
sg82
g2848
sg75
(lp3044
g68
(g89
g70
NtRp3045
(dp3046
g73
(dp3047
g93
g94
ssg82
g3041
sg75
(lp3048
S'REMOTE_ADDR'
p3049
asbag68
(g89
g70
NtRp3050
(dp3051
g73
(dp3052
g100
g101
ssg82
g3041
sg75
(lp3053
S':'
asbag68
(g89
g70
NtRp3054
(dp3055
g73
(dp3056
sg82
g3041
sg75
(lp3057
g68
(g69
g70
NtRp3058
(dp3059
g73
(dp3060
g81
I3
ssg82
g3054
sg75
(lp3061
g223
asbasbasbag68
(g84
g70
NtRp3062
(dp3063
g73
(dp3064
sg82
g2848
sg75
(lp3065
g68
(g89
g70
NtRp3066
(dp3067
g73
(dp3068
g93
g94
ssg82
g3062
sg75
(lp3069
S'REMOTE_PORT'
p3070
asbag68
(g89
g70
NtRp3071
(dp3072
g73
(dp3073
g100
g101
ssg82
g3062
sg75
(lp3074
S':'
asbag68
(g89
g70
NtRp3075
(dp3076
g73
(dp3077
sg82
g3062
sg75
(lp3078
g68
(g69
g70
NtRp3079
(dp3080
g73
(dp3081
g81
I3
ssg82
g3075
sg75
(lp3082
g1601
asbasbasbag68
(g84
g70
NtRp3083
(dp3084
g73
(dp3085
sg82
g2848
sg75
(lp3086
g68
(g89
g70
NtRp3087
(dp3088
g73
(dp3089
g93
g94
ssg82
g3083
sg75
(lp3090
S'REQUEST_METHOD'
p3091
asbag68
(g89
g70
NtRp3092
(dp3093
g73
(dp3094
g100
g101
ssg82
g3083
sg75
(lp3095
S':'
asbag68
(g89
g70
NtRp3096
(dp3097
g73
(dp3098
sg82
g3083
sg75
(lp3099
g68
(g69
g70
NtRp3100
(dp3101
g73
(dp3102
g81
I3
ssg82
g3096
sg75
(lp3103
g1623
asbasbasbag68
(g84
g70
NtRp3104
(dp3105
g73
(dp3106
sg82
g2848
sg75
(lp3107
g68
(g89
g70
NtRp3108
(dp3109
g73
(dp3110
g93
g94
ssg82
g3104
sg75
(lp3111
S'REQUEST_URI'
p3112
asbag68
(g89
g70
NtRp3113
(dp3114
g73
(dp3115
g100
g101
ssg82
g3104
sg75
(lp3116
S':'
asbag68
(g89
g70
NtRp3117
(dp3118
g73
(dp3119
sg82
g3104
sg75
(lp3120
g68
(g69
g70
NtRp3121
(dp3122
g73
(dp3123
g81
I3
ssg82
g3117
sg75
(lp3124
g1537
asbasbasbag68
(g84
g70
NtRp3125
(dp3126
g73
(dp3127
sg82
g2848
sg75
(lp3128
g68
(g89
g70
NtRp3129
(dp3130
g73
(dp3131
g93
g94
ssg82
g3125
sg75
(lp3132
S'SCRIPT_NAME'
p3133
asbag68
(g89
g70
NtRp3134
(dp3135
g73
(dp3136
g100
g101
ssg82
g3125
sg75
(lp3137
S':'
asbag68
(g89
g70
NtRp3138
(dp3139
g73
(dp3140
sg82
g3125
sg75
(lp3141
g68
(g69
g70
NtRp3142
(dp3143
g73
(dp3144
g81
I3
ssg82
g3138
sg75
(lp3145
S''
asbasbasbag68
(g84
g70
NtRp3146
(dp3147
g73
(dp3148
sg82
g2848
sg75
(lp3149
g68
(g89
g70
NtRp3150
(dp3151
g73
(dp3152
g93
g94
ssg82
g3146
sg75
(lp3153
S'SERVER_NAME'
p3154
asbag68
(g89
g70
NtRp3155
(dp3156
g73
(dp3157
g100
g101
ssg82
g3146
sg75
(lp3158
S':'
asbag68
(g89
g70
NtRp3159
(dp3160
g73
(dp3161
sg82
g3146
sg75
(lp3162
g68
(g69
g70
NtRp3163
(dp3164
g73
(dp3165
g81
I3
ssg82
g3159
sg75
(lp3166
g1687
asbasbasbag68
(g84
g70
NtRp3167
(dp3168
g73
(dp3169
sg82
g2848
sg75
(lp3170
g68
(g89
g70
NtRp3171
(dp3172
g73
(dp3173
g93
g94
ssg82
g3167
sg75
(lp3174
S'SERVER_PORT'
p3175
asbag68
(g89
g70
NtRp3176
(dp3177
g73
(dp3178
g100
g101
ssg82
g3167
sg75
(lp3179
S':'
asbag68
(g89
g70
NtRp3180
(dp3181
g73
(dp3182
sg82
g3167
sg75
(lp3183
g68
(g69
g70
NtRp3184
(dp3185
g73
(dp3186
g81
I3
ssg82
g3180
sg75
(lp3187
g1709
asbasbasbag68
(g84
g70
NtRp3188
(dp3189
g73
(dp3190
sg82
g2848
sg75
(lp3191
g68
(g89
g70
NtRp3192
(dp3193
g73
(dp3194
g93
g94
ssg82
g3188
sg75
(lp3195
S'SERVER_PROTOCOL'
p3196
asbag68
(g89
g70
NtRp3197
(dp3198
g73
(dp3199
g100
g101
ssg82
g3188
sg75
(lp3200
S':'
asbag68
(g89
g70
NtRp3201
(dp3202
g73
(dp3203
sg82
g3188
sg75
(lp3204
g68
(g69
g70
NtRp3205
(dp3206
g73
(dp3207
g81
I3
ssg82
g3201
sg75
(lp3208
g1731
asbasbasbag68
(g84
g70
NtRp3209
(dp3210
g73
(dp3211
sg82
g2848
sg75
(lp3212
g68
(g89
g70
NtRp3213
(dp3214
g73
(dp3215
g93
g94
ssg82
g3209
sg75
(lp3216
S'SERVER_SOFTWARE'
p3217
asbag68
(g89
g70
NtRp3218
(dp3219
g73
(dp3220
g100
g101
ssg82
g3209
sg75
(lp3221
S':'
asbag68
(g89
g70
NtRp3222
(dp3223
g73
(dp3224
sg82
g3209
sg75
(lp3225
g68
(g69
g70
NtRp3226
(dp3227
g73
(dp3228
g81
I3
ssg82
g3222
sg75
(lp3229
g1753
asbasbasbag68
(g84
g70
NtRp3230
(dp3231
g73
(dp3232
sg82
g2848
sg75
(lp3233
g68
(g89
g70
NtRp3234
(dp3235
g73
(dp3236
g93
g94
ssg82
g3230
sg75
(lp3237
S'wsgi.errors'
p3238
asbag68
(g89
g70
NtRp3239
(dp3240
g73
(dp3241
g100
g101
ssg82
g3230
sg75
(lp3242
S':'
asbag68
(g89
g70
NtRp3243
(dp3244
g73
(dp3245
sg82
g3230
sg75
(lp3246
g68
(g69
g70
NtRp3247
(dp3248
g73
(dp3249
g81
I3
ssg82
g3243
sg75
(lp3250
S"<open file '<stderr>', mode 'w' at 0x7ffcdb781270>"
p3251
asbasbasbag68
(g84
g70
NtRp3252
(dp3253
g73
(dp3254
sg82
g2848
sg75
(lp3255
g68
(g89
g70
NtRp3256
(dp3257
g73
(dp3258
g93
g94
ssg82
g3252
sg75
(lp3259
S'wsgi.file_wrapper'
p3260
asbag68
(g89
g70
NtRp3261
(dp3262
g73
(dp3263
g100
g101
ssg82
g3252
sg75
(lp3264
S':'
asbag68
(g89
g70
NtRp3265
(dp3266
g73
(dp3267
sg82
g3252
sg75
(lp3268
g68
(g69
g70
NtRp3269
(dp3270
g73
(dp3271
g81
I3
ssg82
g3265
sg75
(lp3272
S'<class wsgiref.util.FileWrapper at 0x2736db8>'
p3273
asbasbasbag68
(g84
g70
NtRp3274
(dp3275
g73
(dp3276
sg82
g2848
sg75
(lp3277
g68
(g89
g70
NtRp3278
(dp3279
g73
(dp3280
g93
g94
ssg82
g3274
sg75
(lp3281
S'wsgi.input'
p3282
asbag68
(g89
g70
NtRp3283
(dp3284
g73
(dp3285
g100
g101
ssg82
g3274
sg75
(lp3286
S':'
asbag68
(g89
g70
NtRp3287
(dp3288
g73
(dp3289
sg82
g3274
sg75
(lp3290
g68
(g69
g70
NtRp3291
(dp3292
g73
(dp3293
g81
I3
ssg82
g3287
sg75
(lp3294
S'<cStringIO.StringO object at 0x7ffcac7d92d0>'
p3295
asbasbasbag68
(g84
g70
NtRp3296
(dp3297
g73
(dp3298
sg82
g2848
sg75
(lp3299
g68
(g89
g70
NtRp3300
(dp3301
g73
(dp3302
g93
g94
ssg82
g3296
sg75
(lp3303
S'wsgi.multiprocess'
p3304
asbag68
(g89
g70
NtRp3305
(dp3306
g73
(dp3307
g100
g101
ssg82
g3296
sg75
(lp3308
S':'
asbag68
(g89
g70
NtRp3309
(dp3310
g73
(dp3311
sg82
g3296
sg75
(lp3312
g68
(g69
g70
NtRp3313
(dp3314
g73
(dp3315
g81
I3
ssg82
g3309
sg75
(lp3316
g111
asbasbasbag68
(g84
g70
NtRp3317
(dp3318
g73
(dp3319
sg82
g2848
sg75
(lp3320
g68
(g89
g70
NtRp3321
(dp3322
g73
(dp3323
g93
g94
ssg82
g3317
sg75
(lp3324
S'wsgi.multithread'
p3325
asbag68
(g89
g70
NtRp3326
(dp3327
g73
(dp3328
g100
g101
ssg82
g3317
sg75
(lp3329
S':'
asbag68
(g89
g70
NtRp3330
(dp3331
g73
(dp3332
sg82
g3317
sg75
(lp3333
g68
(g69
g70
NtRp3334
(dp3335
g73
(dp3336
g81
I3
ssg82
g3330
sg75
(lp3337
g1970
asbasbasbag68
(g84
g70
NtRp3338
(dp3339
g73
(dp3340
sg82
g2848
sg75
(lp3341
g68
(g89
g70
NtRp3342
(dp3343
g73
(dp3344
g93
g94
ssg82
g3338
sg75
(lp3345
S'wsgi.run_once'
p3346
asbag68
(g89
g70
NtRp3347
(dp3348
g73
(dp3349
g100
g101
ssg82
g3338
sg75
(lp3350
S':'
asbag68
(g89
g70
NtRp3351
(dp3352
g73
(dp3353
sg82
g3338
sg75
(lp3354
g68
(g69
g70
NtRp3355
(dp3356
g73
(dp3357
g81
I3
ssg82
g3351
sg75
(lp3358
g111
asbasbasbag68
(g84
g70
NtRp3359
(dp3360
g73
(dp3361
sg82
g2848
sg75
(lp3362
g68
(g89
g70
NtRp3363
(dp3364
g73
(dp3365
g93
g94
ssg82
g3359
sg75
(lp3366
S'wsgi.url_scheme'
p3367
asbag68
(g89
g70
NtRp3368
(dp3369
g73
(dp3370
g100
g101
ssg82
g3359
sg75
(lp3371
S':'
asbag68
(g89
g70
NtRp3372
(dp3373
g73
(dp3374
sg82
g3359
sg75
(lp3375
g68
(g69
g70
NtRp3376
(dp3377
g73
(dp3378
g81
I3
ssg82
g3372
sg75
(lp3379
g2013
asbasbasbag68
(g84
g70
NtRp3380
(dp3381
g73
(dp3382
sg82
g2848
sg75
(lp3383
g68
(g89
g70
NtRp3384
(dp3385
g73
(dp3386
g93
g94
ssg82
g3380
sg75
(lp3387
S'wsgi.version'
p3388
asbag68
(g89
g70
NtRp3389
(dp3390
g73
(dp3391
g100
g101
ssg82
g3380
sg75
(lp3392
S':'
asbag68
(g89
g70
NtRp3393
(dp3394
g73
(dp3395
sg82
g3380
sg75
(lp3396
g68
(g69
g70
NtRp3397
(dp3398
g73
(dp3399
g81
I3
ssg82
g3393
sg75
(lp3400
S'1'
asbasbasbasbasbasbasbasbasbasbasbasbasbsS'frames'
p3401
(lp3402
(dp3403
S'file'
p3404
S'/home/shipra/Desktop/Semester 1.2/ITWS-2/web2py/gluon/restricted.py'
p3405
sS'dump'
p3406
(dp3407
S'code'
p3408
S"'# -*- coding: utf-8 -*-\\n# this file is released ...\\n\\nresponse._vars=response._caller(resume_search)\\n'"
p3409
sS'layer'
p3410
S"'/home/shipra/Desktop/Semester 1.2/ITWS-2/web2py/applications/shipra/controllers/default.py'"
p3411
sS'global compile2'
p3412
S'<function compile2>'
p3413
sS'ccode'
p3414
S'undefined'
p3415
ssS'lnum'
p3416
I211
sS'lines'
p3417
(dp3418
I206
S"    environment['__name__'] = '__restricted__'"
p3419
sI207
S'    try:'
p3420
sI208
S'        if isinstance(code, types.CodeType):'
p3421
sI209
S'            ccode = code'
p3422
sI210
S'        else:'
p3423
sI211
S'            ccode = compile2(code, layer)'
p3424
sI212
S'        exec ccode in environment'
p3425
sI213
S'    except HTTP:'
p3426
sI214
S'        raise'
p3427
sI215
S'    except RestrictedError:'
p3428
ssS'call'
p3429
S"(code='# -*- coding: utf-8 -*-\\n# this file is released ...\\n\\nresponse._vars=response._caller(resume_search)\\n', environment={'A': <class 'gluon.html.A'>, 'Auth': <class 'gluon.tools.Auth'>, 'B': <class 'gluon.html.B'>, 'BEAUTIFY': <class 'gluon.html.BEAUTIFY'>, 'BODY': <class 'gluon.html.BODY'>, 'BR': <class 'gluon.html.BR'>, 'BUTTON': <class 'gluon.html.BUTTON'>, 'CAT': <class 'gluon.html.CAT'>, 'CENTER': <class 'gluon.html.CENTER'>, 'CLEANUP': <class 'gluon.validators.CLEANUP'>, ...}, layer='/home/shipra/Desktop/Semester 1.2/ITWS-2/web2py/applications/shipra/controllers/default.py')"
p3430
sS'func'
p3431
S'restricted'
p3432
sa(dp3433
g3404
S'/home/shipra/Desktop/Semester 1.2/ITWS-2/web2py/gluon/restricted.py'
p3434
sg3406
(dp3435
S'builtincompile'
p3436
S'<built-in function compile>'
p3437
sS'code'
p3438
S"'# -*- coding: utf-8 -*-\\n# this file is released ...\\n\\nresponse._vars=response._caller(resume_search)\\n'"
p3439
sS'code.rstrip'
p3440
S'<built-in method rstrip of str object>'
p3441
sS').replace'
p3442
g3415
sS'layer'
p3443
S"'/home/shipra/Desktop/Semester 1.2/ITWS-2/web2py/applications/shipra/controllers/default.py'"
p3444
ssg3416
I194
sg3417
(dp3445
I192
S"    The +'\\n' is necessary else compile fails when code ends in a comment."
p3446
sI193
S'    """'
p3447
sI194
S"    return compile(code.rstrip().replace('\\r\\n', '\\n') + '\\n', layer, 'exec')"
p3448
sI195
S''
sI196
S''
sI197
S"def restricted(code, environment=None, layer='Unknown'):"
p3449
sI198
S'    """'
p3450
sI189
S''
sI190
S'def compile2(code, layer):'
p3451
sI191
S'    """'
p3452
ssg3429
S"(code='# -*- coding: utf-8 -*-\\n# this file is released ...\\n\\nresponse._vars=response._caller(resume_search)\\n', layer='/home/shipra/Desktop/Semester 1.2/ITWS-2/web2py/applications/shipra/controllers/default.py')"
p3453
sg3431
S'compile2'
p3454
sasS'pyver'
p3455
S'Python 2.7.3: /usr/bin/python'
p3456
sS'session'
p3457
g68
(g69
g70
NtRp3458
(dp3459
g73
(dp3460
sg75
(lp3461
g68
(g77
g70
NtRp3462
(dp3463
g73
(dp3464
g81
I5
ssg82
Nsg75
(lp3465
g68
(g84
g70
NtRp3466
(dp3467
g73
(dp3468
sg82
g3462
sg75
(lp3469
g68
(g89
g70
NtRp3470
(dp3471
g73
(dp3472
g93
g94
ssg82
g3466
sg75
(lp3473
S'last_orderby'
p3474
asbag68
(g89
g70
NtRp3475
(dp3476
g73
(dp3477
g100
g101
ssg82
g3466
sg75
(lp3478
S':'
asbag68
(g89
g70
NtRp3479
(dp3480
g73
(dp3481
sg82
g3466
sg75
(lp3482
g68
(g69
g70
NtRp3483
(dp3484
g73
(dp3485
g81
I5
ssg82
g3479
sg75
(lp3486
S'None'
p3487
asbasbasbag68
(g84
g70
NtRp3488
(dp3489
g73
(dp3490
sg82
g3462
sg75
(lp3491
g68
(g89
g70
NtRp3492
(dp3493
g73
(dp3494
g93
g94
ssg82
g3488
sg75
(lp3495
S'last_query'
p3496
asbag68
(g89
g70
NtRp3497
(dp3498
g73
(dp3499
g100
g101
ssg82
g3488
sg75
(lp3500
S':'
asbag68
(g89
g70
NtRp3501
(dp3502
g73
(dp3503
sg82
g3488
sg75
(lp3504
g68
(g69
g70
NtRp3505
(dp3506
g73
(dp3507
g81
I5
ssg82
g3501
sg75
(lp3508
S'db.auth_user.id>0'
p3509
asbasbasbasbasbsS'etype'
p3510
S"<type 'exceptions.SyntaxError'>"
p3511
sS'date'
p3512
S'Sun Apr 14 15:17:18 2013'
p3513
sS'response'
p3514
g68
(g69
g70
NtRp3515
(dp3516
g73
(dp3517
sg75
(lp3518
g68
(g77
g70
NtRp3519
(dp3520
g73
(dp3521
g81
I5
ssg82
Nsg75
(lp3522
g68
(g84
g70
NtRp3523
(dp3524
g73
(dp3525
sg82
g3519
sg75
(lp3526
g68
(g89
g70
NtRp3527
(dp3528
g73
(dp3529
g93
g94
ssg82
g3523
sg75
(lp3530
g166
asbag68
(g89
g70
NtRp3531
(dp3532
g73
(dp3533
g100
g101
ssg82
g3523
sg75
(lp3534
S':'
asbag68
(g89
g70
NtRp3535
(dp3536
g73
(dp3537
sg82
g3523
sg75
(lp3538
g68
(g69
g70
NtRp3539
(dp3540
g73
(dp3541
g81
I5
ssg82
g3535
sg75
(lp3542
S'<cStringIO.StringO object at 0x7ffca005e730>'
p3543
asbasbasbag68
(g84
g70
NtRp3544
(dp3545
g73
(dp3546
sg82
g3519
sg75
(lp3547
g68
(g89
g70
NtRp3548
(dp3549
g73
(dp3550
g93
g94
ssg82
g3544
sg75
(lp3551
g254
asbag68
(g89
g70
NtRp3552
(dp3553
g73
(dp3554
g100
g101
ssg82
g3544
sg75
(lp3555
S':'
asbag68
(g89
g70
NtRp3556
(dp3557
g73
(dp3558
sg82
g3544
sg75
(lp3559
g68
(g69
g70
NtRp3560
(dp3561
g73
(dp3562
g81
I5
ssg82
g3556
sg75
(lp3563
g68
(g77
g70
NtRp3564
(dp3565
g73
(dp3566
g81
I4
ssg82
Nsg75
(lp3567
g68
(g84
g70
NtRp3568
(dp3569
g73
(dp3570
sg82
g3564
sg75
(lp3571
g68
(g89
g70
NtRp3572
(dp3573
g73
(dp3574
g93
g94
ssg82
g3568
sg75
(lp3575
S'session_id_shipra'
p3576
asbag68
(g89
g70
NtRp3577
(dp3578
g73
(dp3579
g100
g101
ssg82
g3568
sg75
(lp3580
S':'
asbag68
(g89
g70
NtRp3581
(dp3582
g73
(dp3583
sg82
g3568
sg75
(lp3584
g68
(g69
g70
NtRp3585
(dp3586
g73
(dp3587
g81
I4
ssg82
g3581
sg75
(lp3588
g672
ag68
(g77
g70
NtRp3589
(dp3590
g73
(dp3591
g81
I3
ssg82
Nsg75
(lp3592
g68
(g84
g70
NtRp3593
(dp3594
g73
(dp3595
sg82
g3589
sg75
(lp3596
g68
(g89
g70
NtRp3597
(dp3598
g73
(dp3599
g93
g94
ssg82
g3593
sg75
(lp3600
g305
asbag68
(g89
g70
NtRp3601
(dp3602
g73
(dp3603
g100
g101
ssg82
g3593
sg75
(lp3604
S':'
asbag68
(g89
g70
NtRp3605
(dp3606
g73
(dp3607
sg82
g3593
sg75
(lp3608
g68
(g69
g70
NtRp3609
(dp3610
g73
(dp3611
g81
I3
ssg82
g3605
sg75
(lp3612
S''
asbasbasbag68
(g84
g70
NtRp3613
(dp3614
g73
(dp3615
sg82
g3589
sg75
(lp3616
g68
(g89
g70
NtRp3617
(dp3618
g73
(dp3619
g93
g94
ssg82
g3613
sg75
(lp3620
g326
asbag68
(g89
g70
NtRp3621
(dp3622
g73
(dp3623
g100
g101
ssg82
g3613
sg75
(lp3624
S':'
asbag68
(g89
g70
NtRp3625
(dp3626
g73
(dp3627
sg82
g3613
sg75
(lp3628
g68
(g69
g70
NtRp3629
(dp3630
g73
(dp3631
g81
I3
ssg82
g3625
sg75
(lp3632
S''
asbasbasbag68
(g84
g70
NtRp3633
(dp3634
g73
(dp3635
sg82
g3589
sg75
(lp3636
g68
(g89
g70
NtRp3637
(dp3638
g73
(dp3639
g93
g94
ssg82
g3633
sg75
(lp3640
g347
asbag68
(g89
g70
NtRp3641
(dp3642
g73
(dp3643
g100
g101
ssg82
g3633
sg75
(lp3644
S':'
asbag68
(g89
g70
NtRp3645
(dp3646
g73
(dp3647
sg82
g3633
sg75
(lp3648
g68
(g69
g70
NtRp3649
(dp3650
g73
(dp3651
g81
I3
ssg82
g3645
sg75
(lp3652
S''
asbasbasbag68
(g84
g70
NtRp3653
(dp3654
g73
(dp3655
sg82
g3589
sg75
(lp3656
g68
(g89
g70
NtRp3657
(dp3658
g73
(dp3659
g93
g94
ssg82
g3653
sg75
(lp3660
g368
asbag68
(g89
g70
NtRp3661
(dp3662
g73
(dp3663
g100
g101
ssg82
g3653
sg75
(lp3664
S':'
asbag68
(g89
g70
NtRp3665
(dp3666
g73
(dp3667
sg82
g3653
sg75
(lp3668
g68
(g69
g70
NtRp3669
(dp3670
g73
(dp3671
g81
I3
ssg82
g3665
sg75
(lp3672
S''
asbasbasbag68
(g84
g70
NtRp3673
(dp3674
g73
(dp3675
sg82
g3589
sg75
(lp3676
g68
(g89
g70
NtRp3677
(dp3678
g73
(dp3679
g93
g94
ssg82
g3673
sg75
(lp3680
g389
asbag68
(g89
g70
NtRp3681
(dp3682
g73
(dp3683
g100
g101
ssg82
g3673
sg75
(lp3684
S':'
asbag68
(g89
g70
NtRp3685
(dp3686
g73
(dp3687
sg82
g3673
sg75
(lp3688
g68
(g69
g70
NtRp3689
(dp3690
g73
(dp3691
g81
I3
ssg82
g3685
sg75
(lp3692
S''
asbasbasbag68
(g84
g70
NtRp3693
(dp3694
g73
(dp3695
sg82
g3589
sg75
(lp3696
g68
(g89
g70
NtRp3697
(dp3698
g73
(dp3699
g93
g94
ssg82
g3693
sg75
(lp3700
g410
asbag68
(g89
g70
NtRp3701
(dp3702
g73
(dp3703
g100
g101
ssg82
g3693
sg75
(lp3704
S':'
asbag68
(g89
g70
NtRp3705
(dp3706
g73
(dp3707
sg82
g3693
sg75
(lp3708
g68
(g69
g70
NtRp3709
(dp3710
g73
(dp3711
g81
I3
ssg82
g3705
sg75
(lp3712
S'/'
asbasbasbag68
(g84
g70
NtRp3713
(dp3714
g73
(dp3715
sg82
g3589
sg75
(lp3716
g68
(g89
g70
NtRp3717
(dp3718
g73
(dp3719
g93
g94
ssg82
g3713
sg75
(lp3720
g431
asbag68
(g89
g70
NtRp3721
(dp3722
g73
(dp3723
g100
g101
ssg82
g3713
sg75
(lp3724
S':'
asbag68
(g89
g70
NtRp3725
(dp3726
g73
(dp3727
sg82
g3713
sg75
(lp3728
g68
(g69
g70
NtRp3729
(dp3730
g73
(dp3731
g81
I3
ssg82
g3725
sg75
(lp3732
S''
asbasbasbag68
(g84
g70
NtRp3733
(dp3734
g73
(dp3735
sg82
g3589
sg75
(lp3736
g68
(g89
g70
NtRp3737
(dp3738
g73
(dp3739
g93
g94
ssg82
g3733
sg75
(lp3740
g452
asbag68
(g89
g70
NtRp3741
(dp3742
g73
(dp3743
g100
g101
ssg82
g3733
sg75
(lp3744
S':'
asbag68
(g89
g70
NtRp3745
(dp3746
g73
(dp3747
sg82
g3733
sg75
(lp3748
g68
(g69
g70
NtRp3749
(dp3750
g73
(dp3751
g81
I3
ssg82
g3745
sg75
(lp3752
S''
asbasbasbasbasbasbasbasbasbasbasbag68
(g84
g70
NtRp3753
(dp3754
g73
(dp3755
sg82
g3519
sg75
(lp3756
g68
(g89
g70
NtRp3757
(dp3758
g73
(dp3759
g93
g94
ssg82
g3753
sg75
(lp3760
S'delimiters'
p3761
asbag68
(g89
g70
NtRp3762
(dp3763
g73
(dp3764
g100
g101
ssg82
g3753
sg75
(lp3765
S':'
asbag68
(g89
g70
NtRp3766
(dp3767
g73
(dp3768
sg82
g3753
sg75
(lp3769
g68
(g69
g70
NtRp3770
(dp3771
g73
(dp3772
g81
I5
ssg82
g3766
sg75
(lp3773
g68
(g77
g70
NtRp3774
(dp3775
g73
(dp3776
g81
I4
ssg82
Nsg75
(lp3777
g68
(g84
g70
NtRp3778
(dp3779
g73
(dp3780
sg82
g3774
sg75
(lp3781
g68
(g89
g70
NtRp3782
(dp3783
g73
(dp3784
sg82
g3778
sg75
(lp3785
g68
(g69
g70
NtRp3786
(dp3787
g73
(dp3788
g81
I4
ssg82
g3782
sg75
(lp3789
S'{{'
p3790
asbasbasbag68
(g84
g70
NtRp3791
(dp3792
g73
(dp3793
sg82
g3774
sg75
(lp3794
g68
(g89
g70
NtRp3795
(dp3796
g73
(dp3797
sg82
g3791
sg75
(lp3798
g68
(g69
g70
NtRp3799
(dp3800
g73
(dp3801
g81
I4
ssg82
g3795
sg75
(lp3802
S'}}'
p3803
asbasbasbasbasbasbasbag68
(g84
g70
NtRp3804
(dp3805
g73
(dp3806
sg82
g3519
sg75
(lp3807
g68
(g89
g70
NtRp3808
(dp3809
g73
(dp3810
g93
g94
ssg82
g3804
sg75
(lp3811
S'files'
p3812
asbag68
(g89
g70
NtRp3813
(dp3814
g73
(dp3815
g100
g101
ssg82
g3804
sg75
(lp3816
S':'
asbag68
(g89
g70
NtRp3817
(dp3818
g73
(dp3819
sg82
g3804
sg75
(lp3820
g68
(g69
g70
NtRp3821
(dp3822
g73
(dp3823
g81
I5
ssg82
g3817
sg75
(lp3824
g68
(g77
g70
NtRp3825
(dp3826
g73
(dp3827
g81
I4
ssg82
Nsg75
(lp3828
sbasbasbasbag68
(g84
g70
NtRp3829
(dp3830
g73
(dp3831
sg82
g3519
sg75
(lp3832
g68
(g89
g70
NtRp3833
(dp3834
g73
(dp3835
g93
g94
ssg82
g3829
sg75
(lp3836
S'flash'
p3837
asbag68
(g89
g70
NtRp3838
(dp3839
g73
(dp3840
g100
g101
ssg82
g3829
sg75
(lp3841
S':'
asbag68
(g89
g70
NtRp3842
(dp3843
g73
(dp3844
sg82
g3829
sg75
(lp3845
g68
(g69
g70
NtRp3846
(dp3847
g73
(dp3848
g81
I5
ssg82
g3842
sg75
(lp3849
S''
asbasbasbag68
(g84
g70
NtRp3850
(dp3851
g73
(dp3852
sg82
g3519
sg75
(lp3853
g68
(g89
g70
NtRp3854
(dp3855
g73
(dp3856
g93
g94
ssg82
g3850
sg75
(lp3857
S'generic_patterns'
p3858
asbag68
(g89
g70
NtRp3859
(dp3860
g73
(dp3861
g100
g101
ssg82
g3850
sg75
(lp3862
S':'
asbag68
(g89
g70
NtRp3863
(dp3864
g73
(dp3865
sg82
g3850
sg75
(lp3866
g68
(g69
g70
NtRp3867
(dp3868
g73
(dp3869
g81
I5
ssg82
g3863
sg75
(lp3870
g68
(g77
g70
NtRp3871
(dp3872
g73
(dp3873
g81
I4
ssg82
Nsg75
(lp3874
g68
(g84
g70
NtRp3875
(dp3876
g73
(dp3877
sg82
g3871
sg75
(lp3878
g68
(g89
g70
NtRp3879
(dp3880
g73
(dp3881
sg82
g3875
sg75
(lp3882
g68
(g69
g70
NtRp3883
(dp3884
g73
(dp3885
g81
I4
ssg82
g3879
sg75
(lp3886
S'*'
asbasbasbasbasbasbasbag68
(g84
g70
NtRp3887
(dp3888
g73
(dp3889
sg82
g3519
sg75
(lp3890
g68
(g89
g70
NtRp3891
(dp3892
g73
(dp3893
g93
g94
ssg82
g3887
sg75
(lp3894
S'google_analytics_id'
p3895
asbag68
(g89
g70
NtRp3896
(dp3897
g73
(dp3898
g100
g101
ssg82
g3887
sg75
(lp3899
S':'
asbag68
(g89
g70
NtRp3900
(dp3901
g73
(dp3902
sg82
g3887
sg75
(lp3903
g68
(g69
g70
NtRp3904
(dp3905
g73
(dp3906
g81
I5
ssg82
g3900
sg75
(lp3907
S'None'
p3908
asbasbasbag68
(g84
g70
NtRp3909
(dp3910
g73
(dp3911
sg82
g3519
sg75
(lp3912
g68
(g89
g70
NtRp3913
(dp3914
g73
(dp3915
g93
g94
ssg82
g3909
sg75
(lp3916
S'headers'
p3917
asbag68
(g89
g70
NtRp3918
(dp3919
g73
(dp3920
g100
g101
ssg82
g3909
sg75
(lp3921
S':'
asbag68
(g89
g70
NtRp3922
(dp3923
g73
(dp3924
sg82
g3909
sg75
(lp3925
g68
(g69
g70
NtRp3926
(dp3927
g73
(dp3928
g81
I5
ssg82
g3922
sg75
(lp3929
g68
(g77
g70
NtRp3930
(dp3931
g73
(dp3932
g81
I4
ssg82
Nsg75
(lp3933
g68
(g84
g70
NtRp3934
(dp3935
g73
(dp3936
sg82
g3930
sg75
(lp3937
g68
(g89
g70
NtRp3938
(dp3939
g73
(dp3940
g93
g94
ssg82
g3934
sg75
(lp3941
S'X-Powered-By'
p3942
asbag68
(g89
g70
NtRp3943
(dp3944
g73
(dp3945
g100
g101
ssg82
g3934
sg75
(lp3946
S':'
asbag68
(g89
g70
NtRp3947
(dp3948
g73
(dp3949
sg82
g3934
sg75
(lp3950
g68
(g69
g70
NtRp3951
(dp3952
g73
(dp3953
g81
I4
ssg82
g3947
sg75
(lp3954
S'web2py'
p3955
asbasbasbasbasbasbasbag68
(g84
g70
NtRp3956
(dp3957
g73
(dp3958
sg82
g3519
sg75
(lp3959
g68
(g89
g70
NtRp3960
(dp3961
g73
(dp3962
g93
g94
ssg82
g3956
sg75
(lp3963
S'logo'
p3964
asbag68
(g89
g70
NtRp3965
(dp3966
g73
(dp3967
g100
g101
ssg82
g3956
sg75
(lp3968
S':'
asbag68
(g89
g70
NtRp3969
(dp3970
g73
(dp3971
sg82
g3956
sg75
(lp3972
g68
(g69
g70
NtRp3973
(dp3974
g73
(dp3975
g81
I5
ssg82
g3969
sg75
(lp3976
g68
(cgluon.html
A
p3977
g70
NtRp3978
(dp3979
g73
(dp3980
S'_class'
p3981
S'brand'
p3982
sS'_href'
p3983
S'http://www.web2py.com/'
p3984
ssg82
Nsg75
(lp3985
g68
(cgluon.html
B
p3986
g70
NtRp3987
(dp3988
g73
(dp3989
sg82
g3978
sg75
(lp3990
S'web'
p3991
ag68
(cgluon.html
SPAN
p3992
g70
NtRp3993
(dp3994
g73
(dp3995
sg82
g3987
sg75
(lp3996
I2
asbaS'py'
p3997
asbacgluon.html
XML_unpickle
p3998
(S's\r\x00\x00\x00&trade;&nbsp;'
tRp3999
asbasbasbasbag68
(g84
g70
NtRp4000
(dp4001
g73
(dp4002
sg82
g3519
sg75
(lp4003
g68
(g89
g70
NtRp4004
(dp4005
g73
(dp4006
g93
g94
ssg82
g4000
sg75
(lp4007
S'menu'
p4008
asbag68
(g89
g70
NtRp4009
(dp4010
g73
(dp4011
g100
g101
ssg82
g4000
sg75
(lp4012
S':'
asbag68
(g89
g70
NtRp4013
(dp4014
g73
(dp4015
sg82
g4000
sg75
(lp4016
g68
(g69
g70
NtRp4017
(dp4018
g73
(dp4019
g81
I5
ssg82
g4013
sg75
(lp4020
g68
(g77
g70
NtRp4021
(dp4022
g73
(dp4023
g81
I4
ssg82
Nsg75
(lp4024
g68
(g84
g70
NtRp4025
(dp4026
g73
(dp4027
sg82
g4021
sg75
(lp4028
g68
(g89
g70
NtRp4029
(dp4030
g73
(dp4031
sg82
g4025
sg75
(lp4032
g68
(g69
g70
NtRp4033
(dp4034
g73
(dp4035
g81
I4
ssg82
g4029
sg75
(lp4036
g68
(g77
g70
NtRp4037
(dp4038
g73
(dp4039
g81
I3
ssg82
Nsg75
(lp4040
g68
(g84
g70
NtRp4041
(dp4042
g73
(dp4043
sg82
g4037
sg75
(lp4044
g68
(g89
g70
NtRp4045
(dp4046
g73
(dp4047
sg82
g4041
sg75
(lp4048
g68
(g69
g70
NtRp4049
(dp4050
g73
(dp4051
g81
I3
ssg82
g4045
sg75
(lp4052
cgluon.languages
lazyT_unpickle
p4053
(S's\x04\x00\x00\x00Home'
tRp4054
asbasbasbag68
(g84
g70
NtRp4055
(dp4056
g73
(dp4057
sg82
g4037
sg75
(lp4058
g68
(g89
g70
NtRp4059
(dp4060
g73
(dp4061
sg82
g4055
sg75
(lp4062
g68
(g69
g70
NtRp4063
(dp4064
g73
(dp4065
g81
I3
ssg82
g4059
sg75
(lp4066
g111
asbasbasbag68
(g84
g70
NtRp4067
(dp4068
g73
(dp4069
sg82
g4037
sg75
(lp4070
g68
(g89
g70
NtRp4071
(dp4072
g73
(dp4073
sg82
g4067
sg75
(lp4074
g68
(g69
g70
NtRp4075
(dp4076
g73
(dp4077
g81
I3
ssg82
g4071
sg75
(lp4078
S'/shipra/default/index'
p4079
asbasbasbag68
(g84
g70
NtRp4080
(dp4081
g73
(dp4082
sg82
g4037
sg75
(lp4083
g68
(g89
g70
NtRp4084
(dp4085
g73
(dp4086
sg82
g4080
sg75
(lp4087
g68
(g69
g70
NtRp4088
(dp4089
g73
(dp4090
g81
I3
ssg82
g4084
sg75
(lp4091
g68
(g77
g70
NtRp4092
(dp4093
g73
(dp4094
g81
I2
ssg82
Nsg75
(lp4095
sbasbasbasbasbasbasbasbag68
(g84
g70
NtRp4096
(dp4097
g73
(dp4098
sg82
g4021
sg75
(lp4099
g68
(g89
g70
NtRp4100
(dp4101
g73
(dp4102
sg82
g4096
sg75
(lp4103
g68
(g69
g70
NtRp4104
(dp4105
g73
(dp4106
g81
I4
ssg82
g4100
sg75
(lp4107
g68
(g77
g70
NtRp4108
(dp4109
g73
(dp4110
g81
I3
ssg82
Nsg75
(lp4111
g68
(g84
g70
NtRp4112
(dp4113
g73
(dp4114
sg82
g4108
sg75
(lp4115
g68
(g89
g70
NtRp4116
(dp4117
g73
(dp4118
sg82
g4112
sg75
(lp4119
g68
(g69
g70
NtRp4120
(dp4121
g73
(dp4122
g81
I3
ssg82
g4116
sg75
(lp4123
g68
(g3992
g70
NtRp4124
(dp4125
g73
(dp4126
g3981
S'highlighted'
p4127
ssg82
Nsg75
(lp4128
g3955
asbasbasbasbag68
(g84
g70
NtRp4129
(dp4130
g73
(dp4131
sg82
g4108
sg75
(lp4132
g68
(g89
g70
NtRp4133
(dp4134
g73
(dp4135
sg82
g4129
sg75
(lp4136
g68
(g69
g70
NtRp4137
(dp4138
g73
(dp4139
g81
I3
ssg82
g4133
sg75
(lp4140
g111
asbasbasbag68
(g84
g70
NtRp4141
(dp4142
g73
(dp4143
sg82
g4108
sg75
(lp4144
g68
(g89
g70
NtRp4145
(dp4146
g73
(dp4147
sg82
g4141
sg75
(lp4148
g68
(g69
g70
NtRp4149
(dp4150
g73
(dp4151
g81
I3
ssg82
g4145
sg75
(lp4152
S'http://web2py.com'
p4153
asbasbasbag68
(g84
g70
NtRp4154
(dp4155
g73
(dp4156
sg82
g4108
sg75
(lp4157
g68
(g89
g70
NtRp4158
(dp4159
g73
(dp4160
sg82
g4154
sg75
(lp4161
g68
(g69
g70
NtRp4162
(dp4163
g73
(dp4164
g81
I3
ssg82
g4158
sg75
(lp4165
g68
(g77
g70
NtRp4166
(dp4167
g73
(dp4168
g81
I2
ssg82
Nsg75
(lp4169
g68
(g84
g70
NtRp4170
(dp4171
g73
(dp4172
sg82
g4166
sg75
(lp4173
g68
(g89
g70
NtRp4174
(dp4175
g73
(dp4176
sg82
g4170
sg75
(lp4177
g68
(g69
g70
NtRp4178
(dp4179
g73
(dp4180
g81
I2
ssg82
g4174
sg75
(lp4181
g68
(g77
g70
NtRp4182
(dp4183
g73
(dp4184
g81
I1
ssg82
Nsg75
(lp4185
g68
(g84
g70
NtRp4186
(dp4187
g73
(dp4188
sg82
g4182
sg75
(lp4189
g68
(g89
g70
NtRp4190
(dp4191
g73
(dp4192
sg82
g4186
sg75
(lp4193
g68
(g69
g70
NtRp4194
(dp4195
g73
(dp4196
g81
I1
ssg82
g4190
sg75
(lp4197
g4053
(S's\x08\x00\x00\x00My Sites'
tRp4198
asbasbasbag68
(g84
g70
NtRp4199
(dp4200
g73
(dp4201
sg82
g4182
sg75
(lp4202
g68
(g89
g70
NtRp4203
(dp4204
g73
(dp4205
sg82
g4199
sg75
(lp4206
g68
(g69
g70
NtRp4207
(dp4208
g73
(dp4209
g81
I1
ssg82
g4203
sg75
(lp4210
I00
asbasbasbag68
(g84
g70
NtRp4211
(dp4212
g73
(dp4213
sg82
g4182
sg75
(lp4214
g68
(g89
g70
NtRp4215
(dp4216
g73
(dp4217
sg82
g4211
sg75
(lp4218
g68
(g69
g70
NtRp4219
(dp4220
g73
(dp4221
g81
I1
ssg82
g4215
sg75
(lp4222
S'/admin/default/site'
p4223
asbasbasbasbasbasbasbag68
(g84
g70
NtRp4224
(dp4225
g73
(dp4226
sg82
g4166
sg75
(lp4227
g68
(g89
g70
NtRp4228
(dp4229
g73
(dp4230
sg82
g4224
sg75
(lp4231
g68
(g69
g70
NtRp4232
(dp4233
g73
(dp4234
g81
I2
ssg82
g4228
sg75
(lp4235
g68
(g77
g70
NtRp4236
(dp4237
g73
(dp4238
g81
I1
ssg82
Nsg75
(lp4239
g68
(g84
g70
NtRp4240
(dp4241
g73
(dp4242
sg82
g4236
sg75
(lp4243
g68
(g89
g70
NtRp4244
(dp4245
g73
(dp4246
sg82
g4240
sg75
(lp4247
g68
(g69
g70
NtRp4248
(dp4249
g73
(dp4250
g81
I1
ssg82
g4244
sg75
(lp4251
g4053
(S's\x08\x00\x00\x00This App'
tRp4252
asbasbasbag68
(g84
g70
NtRp4253
(dp4254
g73
(dp4255
sg82
g4236
sg75
(lp4256
g68
(g89
g70
NtRp4257
(dp4258
g73
(dp4259
sg82
g4253
sg75
(lp4260
g68
(g69
g70
NtRp4261
(dp4262
g73
(dp4263
g81
I1
ssg82
g4257
sg75
(lp4264
I00
asbasbasbag68
(g84
g70
NtRp4265
(dp4266
g73
(dp4267
sg82
g4236
sg75
(lp4268
g68
(g89
g70
NtRp4269
(dp4270
g73
(dp4271
sg82
g4265
sg75
(lp4272
g68
(g69
g70
NtRp4273
(dp4274
g73
(dp4275
g81
I1
ssg82
g4269
sg75
(lp4276
S'/admin/default/design/shipra'
p4277
asbasbasbag68
(g84
g70
NtRp4278
(dp4279
g73
(dp4280
sg82
g4236
sg75
(lp4281
g68
(g89
g70
NtRp4282
(dp4283
g73
(dp4284
sg82
g4278
sg75
(lp4285
g68
(g69
g70
NtRp4286
(dp4287
g73
(dp4288
g81
I1
ssg82
g4282
sg75
(lp4289
(lp4290
(g4053
(S's\n\x00\x00\x00Controller'
tRp4291
I00
S'/admin/default/edit/shipra/controllers/default.py'
tp4292
a(g4053
(S's\x04\x00\x00\x00View'
tRp4293
I00
S'/admin/default/edit/shipra/views/default/resume_search.html'
tp4294
a(g4053
(S's\x06\x00\x00\x00Layout'
tRp4295
I00
S'/admin/default/edit/shipra/views/layout.html'
tp4296
a(g4053
(S's\n\x00\x00\x00Stylesheet'
tRp4297
I00
S'/admin/default/edit/shipra/static/css/web2py.css'
tp4298
a(g4053
(S's\x08\x00\x00\x00DB Model'
tRp4299
I00
S'/admin/default/edit/shipra/models/db.py'
tp4300
a(g4053
(S's\n\x00\x00\x00Menu Model'
tRp4301
I00
S'/admin/default/edit/shipra/models/menu.py'
tp4302
a(g4053
(S's\x08\x00\x00\x00Database'
tRp4303
I00
S'/shipra/appadmin/index'
tp4304
a(g4053
(S's\x06\x00\x00\x00Errors'
tRp4305
I00
S'/admin/default/errors/shipra'
tp4306
a(g4053
(S's\x05\x00\x00\x00About'
tRp4307
I00
S'/admin/default/about/shipra'
tp4308
aasbasbasbasbasbasbasbag68
(g84
g70
NtRp4309
(dp4310
g73
(dp4311
sg82
g4166
sg75
(lp4312
g68
(g89
g70
NtRp4313
(dp4314
g73
(dp4315
sg82
g4309
sg75
(lp4316
g68
(g69
g70
NtRp4317
(dp4318
g73
(dp4319
g81
I2
ssg82
g4313
sg75
(lp4320
g68
(g77
g70
NtRp4321
(dp4322
g73
(dp4323
g81
I1
ssg82
Nsg75
(lp4324
g68
(g84
g70
NtRp4325
(dp4326
g73
(dp4327
sg82
g4321
sg75
(lp4328
g68
(g89
g70
NtRp4329
(dp4330
g73
(dp4331
sg82
g4325
sg75
(lp4332
g68
(g69
g70
NtRp4333
(dp4334
g73
(dp4335
g81
I1
ssg82
g4329
sg75
(lp4336
S'web2py.com'
p4337
asbasbasbag68
(g84
g70
NtRp4338
(dp4339
g73
(dp4340
sg82
g4321
sg75
(lp4341
g68
(g89
g70
NtRp4342
(dp4343
g73
(dp4344
sg82
g4338
sg75
(lp4345
g68
(g69
g70
NtRp4346
(dp4347
g73
(dp4348
g81
I1
ssg82
g4342
sg75
(lp4349
I00
asbasbasbag68
(g84
g70
NtRp4350
(dp4351
g73
(dp4352
sg82
g4321
sg75
(lp4353
g68
(g89
g70
NtRp4354
(dp4355
g73
(dp4356
sg82
g4350
sg75
(lp4357
g68
(g69
g70
NtRp4358
(dp4359
g73
(dp4360
g81
I1
ssg82
g4354
sg75
(lp4361
S'http://www.web2py.com'
p4362
asbasbasbag68
(g84
g70
NtRp4363
(dp4364
g73
(dp4365
sg82
g4321
sg75
(lp4366
g68
(g89
g70
NtRp4367
(dp4368
g73
(dp4369
sg82
g4363
sg75
(lp4370
g68
(g69
g70
NtRp4371
(dp4372
g73
(dp4373
g81
I1
ssg82
g4367
sg75
(lp4374
(lp4375
(g4053
(S's\x08\x00\x00\x00Download'
tRp4376
I00
S'http://www.web2py.com/examples/default/download'
p4377
tp4378
a(g4053
(S's\x07\x00\x00\x00Support'
tRp4379
I00
S'http://www.web2py.com/examples/default/support'
p4380
tp4381
a(g4053
(S's\x04\x00\x00\x00Demo'
tRp4382
I00
S'http://web2py.com/demo_admin'
p4383
tp4384
a(g4053
(S's\x0e\x00\x00\x00Quick Examples'
tRp4385
I00
S'http://web2py.com/examples/default/examples'
p4386
tp4387
a(g4053
(S's\x03\x00\x00\x00FAQ'
tRp4388
I00
S'http://web2py.com/AlterEgo'
p4389
tp4390
a(g4053
(S's\x06\x00\x00\x00Videos'
tRp4391
I00
S'http://www.web2py.com/examples/default/videos/'
p4392
tp4393
a(g4053
(S's\x11\x00\x00\x00Free Applications'
tRp4394
I00
S'http://web2py.com/appliances'
p4395
tp4396
a(g4053
(S's\x07\x00\x00\x00Plugins'
tRp4397
I00
S'http://web2py.com/plugins'
p4398
tp4399
a(g4053
(S's\x07\x00\x00\x00Layouts'
tRp4400
I00
S'http://web2py.com/layouts'
p4401
tp4402
a(g4053
(S's\x07\x00\x00\x00Recipes'
tRp4403
I00
S'http://web2pyslices.com/'
p4404
tp4405
a(g4053
(S's\x08\x00\x00\x00Semantic'
tRp4406
I00
S'http://web2py.com/semantic'
p4407
tp4408
aasbasbasbasbasbasbasbag68
(g84
g70
NtRp4409
(dp4410
g73
(dp4411
sg82
g4166
sg75
(lp4412
g68
(g89
g70
NtRp4413
(dp4414
g73
(dp4415
sg82
g4409
sg75
(lp4416
g68
(g69
g70
NtRp4417
(dp4418
g73
(dp4419
g81
I2
ssg82
g4413
sg75
(lp4420
g68
(g77
g70
NtRp4421
(dp4422
g73
(dp4423
g81
I1
ssg82
Nsg75
(lp4424
g68
(g84
g70
NtRp4425
(dp4426
g73
(dp4427
sg82
g4421
sg75
(lp4428
g68
(g89
g70
NtRp4429
(dp4430
g73
(dp4431
sg82
g4425
sg75
(lp4432
g68
(g69
g70
NtRp4433
(dp4434
g73
(dp4435
g81
I1
ssg82
g4429
sg75
(lp4436
g4053
(S's\r\x00\x00\x00Documentation'
tRp4437
asbasbasbag68
(g84
g70
NtRp4438
(dp4439
g73
(dp4440
sg82
g4421
sg75
(lp4441
g68
(g89
g70
NtRp4442
(dp4443
g73
(dp4444
sg82
g4438
sg75
(lp4445
g68
(g69
g70
NtRp4446
(dp4447
g73
(dp4448
g81
I1
ssg82
g4442
sg75
(lp4449
I00
asbasbasbag68
(g84
g70
NtRp4450
(dp4451
g73
(dp4452
sg82
g4421
sg75
(lp4453
g68
(g89
g70
NtRp4454
(dp4455
g73
(dp4456
sg82
g4450
sg75
(lp4457
g68
(g69
g70
NtRp4458
(dp4459
g73
(dp4460
g81
I1
ssg82
g4454
sg75
(lp4461
S'http://www.web2py.com/book'
p4462
asbasbasbag68
(g84
g70
NtRp4463
(dp4464
g73
(dp4465
sg82
g4421
sg75
(lp4466
g68
(g89
g70
NtRp4467
(dp4468
g73
(dp4469
sg82
g4463
sg75
(lp4470
g68
(g69
g70
NtRp4471
(dp4472
g73
(dp4473
g81
I1
ssg82
g4467
sg75
(lp4474
(lp4475
(g4053
(S's\x07\x00\x00\x00Preface'
tRp4476
I00
S'http://www.web2py.com/book/default/chapter/00'
p4477
tp4478
a(g4053
(S's\x0c\x00\x00\x00Introduction'
tRp4479
I00
S'http://www.web2py.com/book/default/chapter/01'
p4480
tp4481
a(g4053
(S's\x06\x00\x00\x00Python'
tRp4482
I00
S'http://www.web2py.com/book/default/chapter/02'
p4483
tp4484
a(g4053
(S's\x08\x00\x00\x00Overview'
tRp4485
I00
S'http://www.web2py.com/book/default/chapter/03'
p4486
tp4487
a(g4053
(S's\x08\x00\x00\x00The Core'
tRp4488
I00
S'http://www.web2py.com/book/default/chapter/04'
p4489
tp4490
a(g4053
(S's\t\x00\x00\x00The Views'
tRp4491
I00
S'http://www.web2py.com/book/default/chapter/05'
p4492
tp4493
a(g4053
(S's\x08\x00\x00\x00Database'
tRp4494
I00
S'http://www.web2py.com/book/default/chapter/06'
p4495
tp4496
a(g4053
(S's\x14\x00\x00\x00Forms and Validators'
tRp4497
I00
S'http://www.web2py.com/book/default/chapter/07'
p4498
tp4499
a(g4053
(S's\r\x00\x00\x00Email and SMS'
tRp4500
I00
S'http://www.web2py.com/book/default/chapter/08'
p4501
tp4502
a(g4053
(S's\x0e\x00\x00\x00Access Control'
tRp4503
I00
S'http://www.web2py.com/book/default/chapter/09'
p4504
tp4505
a(g4053
(S's\x08\x00\x00\x00Services'
tRp4506
I00
S'http://www.web2py.com/book/default/chapter/10'
p4507
tp4508
a(g4053
(S's\x0c\x00\x00\x00Ajax Recipes'
tRp4509
I00
S'http://www.web2py.com/book/default/chapter/11'
p4510
tp4511
a(g4053
(S's\x16\x00\x00\x00Components and Plugins'
tRp4512
I00
S'http://www.web2py.com/book/default/chapter/12'
p4513
tp4514
a(g4053
(S's\x12\x00\x00\x00Deployment Recipes'
tRp4515
I00
S'http://www.web2py.com/book/default/chapter/13'
p4516
tp4517
a(g4053
(S's\r\x00\x00\x00Other Recipes'
tRp4518
I00
S'http://www.web2py.com/book/default/chapter/14'
p4519
tp4520
a(g4053
(S's\r\x00\x00\x00Buy this book'
tRp4521
I00
S'http://stores.lulu.com/web2py'
p4522
tp4523
aasbasbasbasbasbasbasbag68
(g84
g70
NtRp4524
(dp4525
g73
(dp4526
sg82
g4166
sg75
(lp4527
g68
(g89
g70
NtRp4528
(dp4529
g73
(dp4530
sg82
g4524
sg75
(lp4531
g68
(g69
g70
NtRp4532
(dp4533
g73
(dp4534
g81
I2
ssg82
g4528
sg75
(lp4535
g68
(g77
g70
NtRp4536
(dp4537
g73
(dp4538
g81
I1
ssg82
Nsg75
(lp4539
g68
(g84
g70
NtRp4540
(dp4541
g73
(dp4542
sg82
g4536
sg75
(lp4543
g68
(g89
g70
NtRp4544
(dp4545
g73
(dp4546
sg82
g4540
sg75
(lp4547
g68
(g69
g70
NtRp4548
(dp4549
g73
(dp4550
g81
I1
ssg82
g4544
sg75
(lp4551
g4053
(S's\t\x00\x00\x00Community'
tRp4552
asbasbasbag68
(g84
g70
NtRp4553
(dp4554
g73
(dp4555
sg82
g4536
sg75
(lp4556
g68
(g89
g70
NtRp4557
(dp4558
g73
(dp4559
sg82
g4553
sg75
(lp4560
g68
(g69
g70
NtRp4561
(dp4562
g73
(dp4563
g81
I1
ssg82
g4557
sg75
(lp4564
I00
asbasbasbag68
(g84
g70
NtRp4565
(dp4566
g73
(dp4567
sg82
g4536
sg75
(lp4568
g68
(g89
g70
NtRp4569
(dp4570
g73
(dp4571
sg82
g4565
sg75
(lp4572
g68
(g69
g70
NtRp4573
(dp4574
g73
(dp4575
g81
I1
ssg82
g4569
sg75
(lp4576
Nasbasbasbag68
(g84
g70
NtRp4577
(dp4578
g73
(dp4579
sg82
g4536
sg75
(lp4580
g68
(g89
g70
NtRp4581
(dp4582
g73
(dp4583
sg82
g4577
sg75
(lp4584
g68
(g69
g70
NtRp4585
(dp4586
g73
(dp4587
g81
I1
ssg82
g4581
sg75
(lp4588
(lp4589
(g4053
(S's\x06\x00\x00\x00Groups'
tRp4590
I00
S'http://www.web2py.com/examples/default/usergroups'
p4591
tp4592
a(g4053
(S's\x07\x00\x00\x00Twitter'
tRp4593
I00
S'http://twitter.com/web2py'
p4594
tp4595
a(g4053
(S's\t\x00\x00\x00Live Chat'
tRp4596
I00
S'http://webchat.freenode.net/?channels=web2py'
p4597
tp4598
aasbasbasbasbasbasbasbag68
(g84
g70
NtRp4599
(dp4600
g73
(dp4601
sg82
g4166
sg75
(lp4602
g68
(g89
g70
NtRp4603
(dp4604
g73
(dp4605
sg82
g4599
sg75
(lp4606
g68
(g69
g70
NtRp4607
(dp4608
g73
(dp4609
g81
I2
ssg82
g4603
sg75
(lp4610
g68
(g77
g70
NtRp4611
(dp4612
g73
(dp4613
g81
I1
ssg82
Nsg75
(lp4614
g68
(g84
g70
NtRp4615
(dp4616
g73
(dp4617
sg82
g4611
sg75
(lp4618
g68
(g89
g70
NtRp4619
(dp4620
g73
(dp4621
sg82
g4615
sg75
(lp4622
g68
(g69
g70
NtRp4623
(dp4624
g73
(dp4625
g81
I1
ssg82
g4619
sg75
(lp4626
g4053
(S's\x07\x00\x00\x00Plugins'
tRp4627
asbasbasbag68
(g84
g70
NtRp4628
(dp4629
g73
(dp4630
sg82
g4611
sg75
(lp4631
g68
(g89
g70
NtRp4632
(dp4633
g73
(dp4634
sg82
g4628
sg75
(lp4635
g68
(g69
g70
NtRp4636
(dp4637
g73
(dp4638
g81
I1
ssg82
g4632
sg75
(lp4639
I00
asbasbasbag68
(g84
g70
NtRp4640
(dp4641
g73
(dp4642
sg82
g4611
sg75
(lp4643
g68
(g89
g70
NtRp4644
(dp4645
g73
(dp4646
sg82
g4640
sg75
(lp4647
g68
(g69
g70
NtRp4648
(dp4649
g73
(dp4650
g81
I1
ssg82
g4644
sg75
(lp4651
Nasbasbasbag68
(g84
g70
NtRp4652
(dp4653
g73
(dp4654
sg82
g4611
sg75
(lp4655
g68
(g89
g70
NtRp4656
(dp4657
g73
(dp4658
sg82
g4652
sg75
(lp4659
g68
(g69
g70
NtRp4660
(dp4661
g73
(dp4662
g81
I1
ssg82
g4656
sg75
(lp4663
(lp4664
(S'plugin_wiki'
p4665
I00
S'http://web2py.com/examples/default/download'
p4666
tp4667
a(g4053
(S's\r\x00\x00\x00Other Plugins'
tRp4668
I00
g4398
tp4669
a(g4053
(S's\x0e\x00\x00\x00Layout Plugins'
tRp4670
I00
g4401
tp4671
aasbasbasbasbasbasbasbasbasbasbasbasbasbasbasbasbasbasbasbag68
(g84
g70
NtRp4672
(dp4673
g73
(dp4674
sg82
g3519
sg75
(lp4675
g68
(g89
g70
NtRp4676
(dp4677
g73
(dp4678
g93
g94
ssg82
g4672
sg75
(lp4679
S'meta'
p4680
asbag68
(g89
g70
NtRp4681
(dp4682
g73
(dp4683
g100
g101
ssg82
g4672
sg75
(lp4684
S':'
asbag68
(g89
g70
NtRp4685
(dp4686
g73
(dp4687
sg82
g4672
sg75
(lp4688
g68
(g69
g70
NtRp4689
(dp4690
g73
(dp4691
g81
I5
ssg82
g4685
sg75
(lp4692
g68
(g77
g70
NtRp4693
(dp4694
g73
(dp4695
g81
I4
ssg82
Nsg75
(lp4696
g68
(g84
g70
NtRp4697
(dp4698
g73
(dp4699
sg82
g4693
sg75
(lp4700
g68
(g89
g70
NtRp4701
(dp4702
g73
(dp4703
g93
g94
ssg82
g4697
sg75
(lp4704
S'author'
p4705
asbag68
(g89
g70
NtRp4706
(dp4707
g73
(dp4708
g100
g101
ssg82
g4697
sg75
(lp4709
S':'
asbag68
(g89
g70
NtRp4710
(dp4711
g73
(dp4712
sg82
g4697
sg75
(lp4713
g68
(g69
g70
NtRp4714
(dp4715
g73
(dp4716
g81
I4
ssg82
g4710
sg75
(lp4717
S'Your Name <you@example.com>'
p4718
asbasbasbag68
(g84
g70
NtRp4719
(dp4720
g73
(dp4721
sg82
g4693
sg75
(lp4722
g68
(g89
g70
NtRp4723
(dp4724
g73
(dp4725
g93
g94
ssg82
g4719
sg75
(lp4726
S'description'
p4727
asbag68
(g89
g70
NtRp4728
(dp4729
g73
(dp4730
g100
g101
ssg82
g4719
sg75
(lp4731
S':'
asbag68
(g89
g70
NtRp4732
(dp4733
g73
(dp4734
sg82
g4719
sg75
(lp4735
g68
(g69
g70
NtRp4736
(dp4737
g73
(dp4738
g81
I4
ssg82
g4732
sg75
(lp4739
S'a cool new app'
p4740
asbasbasbag68
(g84
g70
NtRp4741
(dp4742
g73
(dp4743
sg82
g4693
sg75
(lp4744
g68
(g89
g70
NtRp4745
(dp4746
g73
(dp4747
g93
g94
ssg82
g4741
sg75
(lp4748
S'generator'
p4749
asbag68
(g89
g70
NtRp4750
(dp4751
g73
(dp4752
g100
g101
ssg82
g4741
sg75
(lp4753
S':'
asbag68
(g89
g70
NtRp4754
(dp4755
g73
(dp4756
sg82
g4741
sg75
(lp4757
g68
(g69
g70
NtRp4758
(dp4759
g73
(dp4760
g81
I4
ssg82
g4754
sg75
(lp4761
S'Web2py Web Framework'
p4762
asbasbasbag68
(g84
g70
NtRp4763
(dp4764
g73
(dp4765
sg82
g4693
sg75
(lp4766
g68
(g89
g70
NtRp4767
(dp4768
g73
(dp4769
g93
g94
ssg82
g4763
sg75
(lp4770
S'keywords'
p4771
asbag68
(g89
g70
NtRp4772
(dp4773
g73
(dp4774
g100
g101
ssg82
g4763
sg75
(lp4775
S':'
asbag68
(g89
g70
NtRp4776
(dp4777
g73
(dp4778
sg82
g4763
sg75
(lp4779
g68
(g69
g70
NtRp4780
(dp4781
g73
(dp4782
g81
I4
ssg82
g4776
sg75
(lp4783
S'web2py, python, framework'
p4784
asbasbasbasbasbasbasbag68
(g84
g70
NtRp4785
(dp4786
g73
(dp4787
sg82
g3519
sg75
(lp4788
g68
(g89
g70
NtRp4789
(dp4790
g73
(dp4791
g93
g94
ssg82
g4785
sg75
(lp4792
S'models_to_run'
p4793
asbag68
(g89
g70
NtRp4794
(dp4795
g73
(dp4796
g100
g101
ssg82
g4785
sg75
(lp4797
S':'
asbag68
(g89
g70
NtRp4798
(dp4799
g73
(dp4800
sg82
g4785
sg75
(lp4801
g68
(g69
g70
NtRp4802
(dp4803
g73
(dp4804
g81
I5
ssg82
g4798
sg75
(lp4805
g68
(g77
g70
NtRp4806
(dp4807
g73
(dp4808
g81
I4
ssg82
Nsg75
(lp4809
g68
(g84
g70
NtRp4810
(dp4811
g73
(dp4812
sg82
g4806
sg75
(lp4813
g68
(g89
g70
NtRp4814
(dp4815
g73
(dp4816
sg82
g4810
sg75
(lp4817
g68
(g69
g70
NtRp4818
(dp4819
g73
(dp4820
g81
I4
ssg82
g4814
sg75
(lp4821
S'^\\w+\\.py$'
p4822
asbasbasbag68
(g84
g70
NtRp4823
(dp4824
g73
(dp4825
sg82
g4806
sg75
(lp4826
g68
(g89
g70
NtRp4827
(dp4828
g73
(dp4829
sg82
g4823
sg75
(lp4830
g68
(g69
g70
NtRp4831
(dp4832
g73
(dp4833
g81
I4
ssg82
g4827
sg75
(lp4834
S'^default/\\w+\\.py$'
p4835
asbasbasbag68
(g84
g70
NtRp4836
(dp4837
g73
(dp4838
sg82
g4806
sg75
(lp4839
g68
(g89
g70
NtRp4840
(dp4841
g73
(dp4842
sg82
g4836
sg75
(lp4843
g68
(g69
g70
NtRp4844
(dp4845
g73
(dp4846
g81
I4
ssg82
g4840
sg75
(lp4847
S'^default/resume_search/\\w+\\.py$'
p4848
asbasbasbasbasbasbasbag68
(g84
g70
NtRp4849
(dp4850
g73
(dp4851
sg82
g3519
sg75
(lp4852
g68
(g89
g70
NtRp4853
(dp4854
g73
(dp4855
g93
g94
ssg82
g4849
sg75
(lp4856
S'postprocessing'
p4857
asbag68
(g89
g70
NtRp4858
(dp4859
g73
(dp4860
g100
g101
ssg82
g4849
sg75
(lp4861
S':'
asbag68
(g89
g70
NtRp4862
(dp4863
g73
(dp4864
sg82
g4849
sg75
(lp4865
g68
(g69
g70
NtRp4866
(dp4867
g73
(dp4868
g81
I5
ssg82
g4862
sg75
(lp4869
g68
(g77
g70
NtRp4870
(dp4871
g73
(dp4872
g81
I4
ssg82
Nsg75
(lp4873
sbasbasbasbag68
(g84
g70
NtRp4874
(dp4875
g73
(dp4876
sg82
g3519
sg75
(lp4877
g68
(g89
g70
NtRp4878
(dp4879
g73
(dp4880
g93
g94
ssg82
g4874
sg75
(lp4881
S'session_cookie_expires'
p4882
asbag68
(g89
g70
NtRp4883
(dp4884
g73
(dp4885
g100
g101
ssg82
g4874
sg75
(lp4886
S':'
asbag68
(g89
g70
NtRp4887
(dp4888
g73
(dp4889
sg82
g4874
sg75
(lp4890
g68
(g69
g70
NtRp4891
(dp4892
g73
(dp4893
g81
I5
ssg82
g4887
sg75
(lp4894
S'None'
p4895
asbasbasbag68
(g84
g70
NtRp4896
(dp4897
g73
(dp4898
sg82
g3519
sg75
(lp4899
g68
(g89
g70
NtRp4900
(dp4901
g73
(dp4902
g93
g94
ssg82
g4896
sg75
(lp4903
S'session_data_name'
p4904
asbag68
(g89
g70
NtRp4905
(dp4906
g73
(dp4907
g100
g101
ssg82
g4896
sg75
(lp4908
S':'
asbag68
(g89
g70
NtRp4909
(dp4910
g73
(dp4911
sg82
g4896
sg75
(lp4912
g68
(g69
g70
NtRp4913
(dp4914
g73
(dp4915
g81
I5
ssg82
g4909
sg75
(lp4916
S'session_data_shipra'
p4917
asbasbasbag68
(g84
g70
NtRp4918
(dp4919
g73
(dp4920
sg82
g3519
sg75
(lp4921
g68
(g89
g70
NtRp4922
(dp4923
g73
(dp4924
g93
g94
ssg82
g4918
sg75
(lp4925
S'session_file'
p4926
asbag68
(g89
g70
NtRp4927
(dp4928
g73
(dp4929
g100
g101
ssg82
g4918
sg75
(lp4930
S':'
asbag68
(g89
g70
NtRp4931
(dp4932
g73
(dp4933
sg82
g4918
sg75
(lp4934
g68
(g69
g70
NtRp4935
(dp4936
g73
(dp4937
g81
I5
ssg82
g4931
sg75
(lp4938
S"<open file '/home/shipra/Desktop/Semester 1.2/ITWS-2/web2py/applications/shipra/sessions/127.0.0.1-7fa5acfe-848f-4c14-b600-f6d33f5c9539', mode 'rb+' at 0x7ffca0112270>"
p4939
asbasbasbag68
(g84
g70
NtRp4940
(dp4941
g73
(dp4942
sg82
g3519
sg75
(lp4943
g68
(g89
g70
NtRp4944
(dp4945
g73
(dp4946
g93
g94
ssg82
g4940
sg75
(lp4947
S'session_filename'
p4948
asbag68
(g89
g70
NtRp4949
(dp4950
g73
(dp4951
g100
g101
ssg82
g4940
sg75
(lp4952
S':'
asbag68
(g89
g70
NtRp4953
(dp4954
g73
(dp4955
sg82
g4940
sg75
(lp4956
g68
(g69
g70
NtRp4957
(dp4958
g73
(dp4959
g81
I5
ssg82
g4953
sg75
(lp4960
S'/home/shipra/Desktop/Semester 1.2/ITWS-2/web2py/applications/shipra/sessions/127.0.0.1-7fa5acfe-848f-4c14-b600-f6d33f5c9539'
p4961
asbasbasbag68
(g84
g70
NtRp4962
(dp4963
g73
(dp4964
sg82
g3519
sg75
(lp4965
g68
(g89
g70
NtRp4966
(dp4967
g73
(dp4968
g93
g94
ssg82
g4962
sg75
(lp4969
S'session_id'
p4970
asbag68
(g89
g70
NtRp4971
(dp4972
g73
(dp4973
g100
g101
ssg82
g4962
sg75
(lp4974
S':'
asbag68
(g89
g70
NtRp4975
(dp4976
g73
(dp4977
sg82
g4962
sg75
(lp4978
g68
(g69
g70
NtRp4979
(dp4980
g73
(dp4981
g81
I5
ssg82
g4975
sg75
(lp4982
g672
asbasbasbag68
(g84
g70
NtRp4983
(dp4984
g73
(dp4985
sg82
g3519
sg75
(lp4986
g68
(g89
g70
NtRp4987
(dp4988
g73
(dp4989
g93
g94
ssg82
g4983
sg75
(lp4990
S'session_id_name'
p4991
asbag68
(g89
g70
NtRp4992
(dp4993
g73
(dp4994
g100
g101
ssg82
g4983
sg75
(lp4995
S':'
asbag68
(g89
g70
NtRp4996
(dp4997
g73
(dp4998
sg82
g4983
sg75
(lp4999
g68
(g69
g70
NtRp5000
(dp5001
g73
(dp5002
g81
I5
ssg82
g4996
sg75
(lp5003
g3576
asbasbasbag68
(g84
g70
NtRp5004
(dp5005
g73
(dp5006
sg82
g3519
sg75
(lp5007
g68
(g89
g70
NtRp5008
(dp5009
g73
(dp5010
g93
g94
ssg82
g5004
sg75
(lp5011
S'session_locked'
p5012
asbag68
(g89
g70
NtRp5013
(dp5014
g73
(dp5015
g100
g101
ssg82
g5004
sg75
(lp5016
S':'
asbag68
(g89
g70
NtRp5017
(dp5018
g73
(dp5019
sg82
g5004
sg75
(lp5020
g68
(g69
g70
NtRp5021
(dp5022
g73
(dp5023
g81
I5
ssg82
g5017
sg75
(lp5024
g1970
asbasbasbag68
(g84
g70
NtRp5025
(dp5026
g73
(dp5027
sg82
g3519
sg75
(lp5028
g68
(g89
g70
NtRp5029
(dp5030
g73
(dp5031
g93
g94
ssg82
g5025
sg75
(lp5032
S'session_new'
p5033
asbag68
(g89
g70
NtRp5034
(dp5035
g73
(dp5036
g100
g101
ssg82
g5025
sg75
(lp5037
S':'
asbag68
(g89
g70
NtRp5038
(dp5039
g73
(dp5040
sg82
g5025
sg75
(lp5041
g68
(g69
g70
NtRp5042
(dp5043
g73
(dp5044
g81
I5
ssg82
g5038
sg75
(lp5045
g111
asbasbasbag68
(g84
g70
NtRp5046
(dp5047
g73
(dp5048
sg82
g3519
sg75
(lp5049
g68
(g89
g70
NtRp5050
(dp5051
g73
(dp5052
g93
g94
ssg82
g5046
sg75
(lp5053
S'session_storage_type'
p5054
asbag68
(g89
g70
NtRp5055
(dp5056
g73
(dp5057
g100
g101
ssg82
g5046
sg75
(lp5058
S':'
asbag68
(g89
g70
NtRp5059
(dp5060
g73
(dp5061
sg82
g5046
sg75
(lp5062
g68
(g69
g70
NtRp5063
(dp5064
g73
(dp5065
g81
I5
ssg82
g5059
sg75
(lp5066
g3404
asbasbasbag68
(g84
g70
NtRp5067
(dp5068
g73
(dp5069
sg82
g3519
sg75
(lp5070
g68
(g89
g70
NtRp5071
(dp5072
g73
(dp5073
g93
g94
ssg82
g5067
sg75
(lp5074
S'status'
p5075
asbag68
(g89
g70
NtRp5076
(dp5077
g73
(dp5078
g100
g101
ssg82
g5067
sg75
(lp5079
S':'
asbag68
(g89
g70
NtRp5080
(dp5081
g73
(dp5082
sg82
g5067
sg75
(lp5083
g68
(g69
g70
NtRp5084
(dp5085
g73
(dp5086
g81
I5
ssg82
g5080
sg75
(lp5087
S'200'
p5088
asbasbasbag68
(g84
g70
NtRp5089
(dp5090
g73
(dp5091
sg82
g3519
sg75
(lp5092
g68
(g89
g70
NtRp5093
(dp5094
g73
(dp5095
g93
g94
ssg82
g5089
sg75
(lp5096
S'subtitle'
p5097
asbag68
(g89
g70
NtRp5098
(dp5099
g73
(dp5100
g100
g101
ssg82
g5089
sg75
(lp5101
S':'
asbag68
(g89
g70
NtRp5102
(dp5103
g73
(dp5104
sg82
g5089
sg75
(lp5105
g68
(g69
g70
NtRp5106
(dp5107
g73
(dp5108
g81
I5
ssg82
g5102
sg75
(lp5109
g4053
(S's\r\x00\x00\x00customize me!'
tRp5110
asbasbasbag68
(g84
g70
NtRp5111
(dp5112
g73
(dp5113
sg82
g3519
sg75
(lp5114
g68
(g89
g70
NtRp5115
(dp5116
g73
(dp5117
g93
g94
ssg82
g5111
sg75
(lp5118
S'title'
p5119
asbag68
(g89
g70
NtRp5120
(dp5121
g73
(dp5122
g100
g101
ssg82
g5111
sg75
(lp5123
S':'
asbag68
(g89
g70
NtRp5124
(dp5125
g73
(dp5126
sg82
g5111
sg75
(lp5127
g68
(g69
g70
NtRp5128
(dp5129
g73
(dp5130
g81
I5
ssg82
g5124
sg75
(lp5131
S'Shipra'
p5132
asbasbasbag68
(g84
g70
NtRp5133
(dp5134
g73
(dp5135
sg82
g3519
sg75
(lp5136
g68
(g89
g70
NtRp5137
(dp5138
g73
(dp5139
g93
g94
ssg82
g5133
sg75
(lp5140
S'view'
p5141
asbag68
(g89
g70
NtRp5142
(dp5143
g73
(dp5144
g100
g101
ssg82
g5133
sg75
(lp5145
S':'
asbag68
(g89
g70
NtRp5146
(dp5147
g73
(dp5148
sg82
g5133
sg75
(lp5149
g68
(g69
g70
NtRp5150
(dp5151
g73
(dp5152
g81
I5
ssg82
g5146
sg75
(lp5153
S'default/resume_search.html'
p5154
asbasbasbasbasbsS'locals'
p5155
(dp5156
g4
S"'/home/shipra/Desktop/Semester 1.2/ITWS-2/web2py/applications/shipra/controllers/default.py'"
p5157
sg6
S"'# -*- coding: utf-8 -*-\\n# this file is released ...\\n\\nresponse._vars=response._caller(resume_search)\\n'"
p5158
sssS'traceback'
p5159
S'Traceback (most recent call last):\n  File "/home/shipra/Desktop/Semester 1.2/ITWS-2/web2py/gluon/restricted.py", line 211, in restricted\n    ccode = compile2(code, layer)\n  File "/home/shipra/Desktop/Semester 1.2/ITWS-2/web2py/gluon/restricted.py", line 194, in compile2\n    return compile(code.rstrip().replace(\'\\r\\n\', \'\\n\') + \'\\n\', layer, \'exec\')\n  File "/home/shipra/Desktop/Semester 1.2/ITWS-2/web2py/applications/shipra/controllers/default.py", line 44\n    Field(\'search_item\'))\n        ^\nSyntaxError: invalid syntax\n'
p5160
s.