(dp1
S'output'
p2
S"<type 'exceptions.SyntaxError'> 'return' outside function (default.py, line 60)"
p3
sS'layer'
p4
S'/home/shipra/Desktop/Semester 1.2/ITWS-2/web2py/applications/shipra/controllers/default.py'
p5
sS'code'
p6
S'# -*- coding: utf-8 -*-\n# this file is released under public domain and you can use without limitations\n\n#########################################################################\n## This is a samples controller\n## - index is the default action of any application\n## - user is required for authentication and authorization\n## - download is for downloading files uploaded in the db (does streaming)\n## - call exposes all registered services (none by default)\n#########################################################################\n\n@auth.requires_login()\ndef index():\n    """\n    example action using the internationalization operator T and flash\n    rendered by views/default/index.html or views/generic.html\n\n    if you need a simple wiki simple replace the two lines below with:\n    return auth.wiki()\n    """\n    c=auth.user_id\n    response.flash = T("Welcome to web2py!")\n    return locals()\n    #return dict(message=T(\'Hello World\'))\ndef input():\n\tform=SQLFORM(db.serch)\n\tif form.process().accepted:\n\t\tresponse.flash=\'form accepted\'\n\telif form.errors:\n\t\tresponse.flash=\'form has errors\'\n\treturn dict(form=form)\n\ndef find():\n\ti_n=[]\n\tc=[]\n\tflag=0\n\tc=request.post._vars\n\tcode=db(c[0][\'id\']==db.serch.id).select(db.serch.ALL)\n\treturn locals()\nimport re\ndef resume_search():\n\tform=SQLFORM.factory(\n\t\tField(\'search_by\',requires = IS_IN_SET([\'Firstname\',\'Lastname\',\'Email\'])),\n\t\tField(\'search_item\'))\n\tacc=db(db.id>0).select(db.auth_user.ALL)\n\n\tif form.process().accepted:\n\t\tsearch_by = form.vars.search_by\n\t\tsearch_item= form.vars.search_item\n\n\tif search_by == "Firstname":\n\t\tfor j in acc:\n\t\t\tif re.search(search_item,j[\'first_name\'],re.IGNORECASE)!=None:\n\t\t\t\tflag=1\n\t\t\t\tc.append(j[\'first_name\'])\n\t\t\t\ti_n.append(j[\'id\'])\n\t\t\tif flag!=1:\n\t\t\t\tc.append("Not Found")\n\t\t\t\ti_n.append("")\nreturn locals()\n\n@auth.requires_login()\ndef Personal():\n\tc=auth.user_id\n\tdb.Personal.pid.default=c\n\tdb.Personal.pid.readable=True\n\tdb.Personal.pid.writable=False\n\tform=SQLFORM(db.Personal)\n\tif form.process().accepted:\n\t\tresponse.flash=\'form accepted\'\n\telif form.errors:\n\t\tresponse.flash = \'form has errors\'\n\treturn dict(form=form)\ndef Education():\n\tc=auth.user_id\n\tdb.Education.eid.default=c\n\tdb.Education.eid.readable=True\n\tdb.Education.eid.writable=False\n\tform=SQLFORM(db.Education)\n\tif form.process().accepted:\n\t\tresponse.flash=\'form accepted\'\n\telif form.errors:\n\t\tresponse.flash=\'form has errors\'\n\treturn dict(form=form)\ndef Merit():\t\n\tc=auth.user_id\n\tdb.Merit.mid.default=c\n\tdb.Merit.mid.readable=True\n\tdb.Merit.mid.writable=False\n\tform=SQLFORM(db.Merit)\n\tif form.process().accepted:\n\t\tresponse.flash=\'form accepted\'\n\telif form.errors:\n\t\tresponse.flash=\'form has errors\'\n\treturn dict(form=form)\n\ndef Experience():\n\tc=auth.user_id\n\tdb.Experience.exid.default=c\n\tdb.Experience.exid.readable=True\n\tdb.Experience.exid.writable=False\n\tform=SQLFORM(db.Experience)\n\tif form.process().accepted:\n\t\tresponse.flash=\'form accepted\'\n\telif form.errors:\n\t\tresponse.flash=\'form has errors\'\n\treturn dict(form=form)\ndef create():\n\treturn locals()\n\ndef prin():\n\tc=auth.user_id\n\tcont=db(db.auth_user.id==c).select(db.auth_user.ALL)\n\tpers=db(db.Personal.pid==c).select(db.Personal.ALL)\n\tedu=db(db.Education.eid==c).select(db.Education.ALL)\n\tmer=db(db.Merit.mid==c).select(db.Merit.ALL)\n\texp=db(db.Experience.exid==c).select(db.Experience.ALL)\n\treturn locals()\n\ndef user():\n    """\n    exposes:\n    http://..../[app]/default/user/login\n    http://..../[app]/default/user/logout\n    http://..../[app]/default/user/register\n    http://..../[app]/default/user/profile\n    http://..../[app]/default/user/retrieve_password\n    http://..../[app]/default/user/change_password\n    use @auth.requires_login()\n        @auth.requires_membership(\'group name\')\n        @auth.requires_permission(\'read\',\'table name\',record_id)\n    to decorate functions that need access control\n    """\n    return dict(form=auth())\n\n\ndef download():\n    """\n    allows downloading of uploaded files\n    http://..../[app]/default/download/[filename]\n    """\n    return response.download(request, db)\n\n\ndef call():\n    """\n    exposes services. for example:\n    http://..../[app]/default/call/jsonrpc\n    decorate with @services.jsonrpc the functions to expose\n    supports xml, json, xmlrpc, jsonrpc, amfrpc, rss, csv\n    """\n    return service()\n\n\n@auth.requires_signature()\ndef data():\n    """\n    http://..../[app]/default/data/tables\n    http://..../[app]/default/data/create/[table]\n    http://..../[app]/default/data/read/[table]/[id]\n    http://..../[app]/default/data/update/[table]/[id]\n    http://..../[app]/default/data/delete/[table]/[id]\n    http://..../[app]/default/data/select/[table]\n    http://..../[app]/default/data/search/[table]\n    but URLs must be signed, i.e. linked with\n      A(\'table\',_href=URL(\'data/tables\',user_signature=True))\n    or with the signed load operator\n      LOAD(\'default\',\'data.load\',args=\'tables\',ajax=True,user_signature=True)\n    """\n    return dict(form=crud())\n\nresponse._vars=response._caller(resume_search)\n'
p7
sS'snapshot'
p8
(dp9
S'exception'
p10
(dp11
S'__getslice__'
p12
S"<method-wrapper '__getslice__' of exceptions.SyntaxError object>"
p13
sS'text'
p14
S"'return locals()\\n'"
p15
sS'__str__'
p16
S"<method-wrapper '__str__' of exceptions.SyntaxError object>"
p17
sS'__reduce__'
p18
S'<built-in method __reduce__ of exceptions.SyntaxError object>'
p19
sS'__dict__'
p20
S'{}'
p21
sS'__sizeof__'
p22
S'<built-in method __sizeof__ of exceptions.SyntaxError object>'
p23
sS'__init__'
p24
S"<method-wrapper '__init__' of exceptions.SyntaxError object>"
p25
sS'__setattr__'
p26
S"<method-wrapper '__setattr__' of exceptions.SyntaxError object>"
p27
sS'__reduce_ex__'
p28
S'<built-in method __reduce_ex__ of exceptions.SyntaxError object>'
p29
sS'__new__'
p30
S'<built-in method __new__ of type object>'
p31
sS'__format__'
p32
S'<built-in method __format__ of exceptions.SyntaxError object>'
p33
sS'__class__'
p34
S"<type 'exceptions.SyntaxError'>"
p35
sS'filename'
p36
S"'/home/shipra/Desktop/Semester 1.2/ITWS-2/web2py/applications/shipra/controllers/default.py'"
p37
sS'lineno'
p38
S'60'
p39
sS'msg'
p40
S'"\'return\' outside function"'
p41
sS'__doc__'
p42
S"'Invalid syntax.'"
p43
sS'__getitem__'
p44
S"<method-wrapper '__getitem__' of exceptions.SyntaxError object>"
p45
sS'__setstate__'
p46
S'<built-in method __setstate__ of exceptions.SyntaxError object>'
p47
sS'__getattribute__'
p48
S"<method-wrapper '__getattribute__' of exceptions.SyntaxError object>"
p49
sS'print_file_and_line'
p50
S'None'
p51
sS'args'
p52
S'("\'return\' outside function", (\'/home/shipra/Desktop/Semester 1.2/ITWS-2/web2py/applications/shipra/controllers/default.py\', 60, None, \'return locals()\\n\'))'
p53
sS'__subclasshook__'
p54
S'<built-in method __subclasshook__ of type object>'
p55
sS'offset'
p56
S'None'
p57
sS'__unicode__'
p58
S'<built-in method __unicode__ of exceptions.SyntaxError object>'
p59
sS'__delattr__'
p60
S"<method-wrapper '__delattr__' of exceptions.SyntaxError object>"
p61
sS'__repr__'
p62
S"<method-wrapper '__repr__' of exceptions.SyntaxError object>"
p63
sS'__hash__'
p64
S"<method-wrapper '__hash__' of exceptions.SyntaxError object>"
p65
ssS'evalue'
p66
S"'return' outside function (default.py, line 60)"
p67
sS'request'
p68
ccopy_reg
_reconstructor
p69
(cgluon.html
BEAUTIFY
p70
c__builtin__
object
p71
NtRp72
(dp73
S'attributes'
p74
(dp75
sS'components'
p76
(lp77
g69
(cgluon.html
TABLE
p78
g71
NtRp79
(dp80
g74
(dp81
S'level'
p82
I5
ssS'parent'
p83
Nsg76
(lp84
g69
(cgluon.html
TR
p85
g71
NtRp86
(dp87
g74
(dp88
sg83
g79
sg76
(lp89
g69
(cgluon.html
TD
p90
g71
NtRp91
(dp92
g74
(dp93
S'_style'
p94
S'font-weight:bold;vertical-align:top'
p95
ssg83
g86
sg76
(lp96
S'ajax'
p97
asbag69
(g90
g71
NtRp98
(dp99
g74
(dp100
S'_valign'
p101
S'top'
p102
ssg83
g86
sg76
(lp103
S':'
asbag69
(g90
g71
NtRp104
(dp105
g74
(dp106
sg83
g86
sg76
(lp107
g69
(g70
g71
NtRp108
(dp109
g74
(dp110
g82
I5
ssg83
g104
sg76
(lp111
S'False'
p112
asbasbasbag69
(g85
g71
NtRp113
(dp114
g74
(dp115
sg83
g79
sg76
(lp116
g69
(g90
g71
NtRp117
(dp118
g74
(dp119
g94
g95
ssg83
g113
sg76
(lp120
S'application'
p121
asbag69
(g90
g71
NtRp122
(dp123
g74
(dp124
g101
g102
ssg83
g113
sg76
(lp125
S':'
asbag69
(g90
g71
NtRp126
(dp127
g74
(dp128
sg83
g113
sg76
(lp129
g69
(g70
g71
NtRp130
(dp131
g74
(dp132
g82
I5
ssg83
g126
sg76
(lp133
S'shipra'
p134
asbasbasbag69
(g85
g71
NtRp135
(dp136
g74
(dp137
sg83
g79
sg76
(lp138
g69
(g90
g71
NtRp139
(dp140
g74
(dp141
g94
g95
ssg83
g135
sg76
(lp142
g52
asbag69
(g90
g71
NtRp143
(dp144
g74
(dp145
g101
g102
ssg83
g135
sg76
(lp146
S':'
asbag69
(g90
g71
NtRp147
(dp148
g74
(dp149
sg83
g135
sg76
(lp150
g69
(g70
g71
NtRp151
(dp152
g74
(dp153
g82
I5
ssg83
g147
sg76
(lp154
g69
(g78
g71
NtRp155
(dp156
g74
(dp157
g82
I4
ssg83
Nsg76
(lp158
sbasbasbasbag69
(g85
g71
NtRp159
(dp160
g74
(dp161
sg83
g79
sg76
(lp162
g69
(g90
g71
NtRp163
(dp164
g74
(dp165
g94
g95
ssg83
g159
sg76
(lp166
S'body'
p167
asbag69
(g90
g71
NtRp168
(dp169
g74
(dp170
g101
g102
ssg83
g159
sg76
(lp171
S':'
asbag69
(g90
g71
NtRp172
(dp173
g74
(dp174
sg83
g159
sg76
(lp175
g69
(g70
g71
NtRp176
(dp177
g74
(dp178
g82
I5
ssg83
g172
sg76
(lp179
S'<cStringIO.StringO object at 0x7ffc9c0d8308>'
p180
asbasbasbag69
(g85
g71
NtRp181
(dp182
g74
(dp183
sg83
g79
sg76
(lp184
g69
(g90
g71
NtRp185
(dp186
g74
(dp187
g94
g95
ssg83
g181
sg76
(lp188
S'cid'
p189
asbag69
(g90
g71
NtRp190
(dp191
g74
(dp192
g101
g102
ssg83
g181
sg76
(lp193
S':'
asbag69
(g90
g71
NtRp194
(dp195
g74
(dp196
sg83
g181
sg76
(lp197
g69
(g70
g71
NtRp198
(dp199
g74
(dp200
g82
I5
ssg83
g194
sg76
(lp201
S'None'
p202
asbasbasbag69
(g85
g71
NtRp203
(dp204
g74
(dp205
sg83
g79
sg76
(lp206
g69
(g90
g71
NtRp207
(dp208
g74
(dp209
g94
g95
ssg83
g203
sg76
(lp210
S'client'
p211
asbag69
(g90
g71
NtRp212
(dp213
g74
(dp214
g101
g102
ssg83
g203
sg76
(lp215
S':'
asbag69
(g90
g71
NtRp216
(dp217
g74
(dp218
sg83
g203
sg76
(lp219
g69
(g70
g71
NtRp220
(dp221
g74
(dp222
g82
I5
ssg83
g216
sg76
(lp223
S'127.0.0.1'
p224
asbasbasbag69
(g85
g71
NtRp225
(dp226
g74
(dp227
sg83
g79
sg76
(lp228
g69
(g90
g71
NtRp229
(dp230
g74
(dp231
g94
g95
ssg83
g225
sg76
(lp232
S'controller'
p233
asbag69
(g90
g71
NtRp234
(dp235
g74
(dp236
g101
g102
ssg83
g225
sg76
(lp237
S':'
asbag69
(g90
g71
NtRp238
(dp239
g74
(dp240
sg83
g225
sg76
(lp241
g69
(g70
g71
NtRp242
(dp243
g74
(dp244
g82
I5
ssg83
g238
sg76
(lp245
S'default'
p246
asbasbasbag69
(g85
g71
NtRp247
(dp248
g74
(dp249
sg83
g79
sg76
(lp250
g69
(g90
g71
NtRp251
(dp252
g74
(dp253
g94
g95
ssg83
g247
sg76
(lp254
S'cookies'
p255
asbag69
(g90
g71
NtRp256
(dp257
g74
(dp258
g101
g102
ssg83
g247
sg76
(lp259
S':'
asbag69
(g90
g71
NtRp260
(dp261
g74
(dp262
sg83
g247
sg76
(lp263
g69
(g70
g71
NtRp264
(dp265
g74
(dp266
g82
I5
ssg83
g260
sg76
(lp267
g69
(g78
g71
NtRp268
(dp269
g74
(dp270
g82
I4
ssg83
Nsg76
(lp271
g69
(g85
g71
NtRp272
(dp273
g74
(dp274
sg83
g268
sg76
(lp275
g69
(g90
g71
NtRp276
(dp277
g74
(dp278
g94
g95
ssg83
g272
sg76
(lp279
S'mp_2093ad9ff9c5428a2228386de2f2b0e4_mixpanel'
p280
asbag69
(g90
g71
NtRp281
(dp282
g74
(dp283
g101
g102
ssg83
g272
sg76
(lp284
S':'
asbag69
(g90
g71
NtRp285
(dp286
g74
(dp287
sg83
g272
sg76
(lp288
g69
(g70
g71
NtRp289
(dp290
g74
(dp291
g82
I4
ssg83
g285
sg76
(lp292
S'%7B%22distinct_id%22%3A%20%2262ffc2d0-7b9f-0130-efb0-22000a1cbb2a%22%2C%22is_registered_user%22%3A%20false%2C%22%24initial_referrer%22%3A%20%22%24direct%22%2C%22%24initial_referring_domain%22%3A%20%22%24direct%22%7D'
p293
ag69
(g78
g71
NtRp294
(dp295
g74
(dp296
g82
I3
ssg83
Nsg76
(lp297
g69
(g85
g71
NtRp298
(dp299
g74
(dp300
sg83
g294
sg76
(lp301
g69
(g90
g71
NtRp302
(dp303
g74
(dp304
g94
g95
ssg83
g298
sg76
(lp305
S'comment'
p306
asbag69
(g90
g71
NtRp307
(dp308
g74
(dp309
g101
g102
ssg83
g298
sg76
(lp310
S':'
asbag69
(g90
g71
NtRp311
(dp312
g74
(dp313
sg83
g298
sg76
(lp314
g69
(g70
g71
NtRp315
(dp316
g74
(dp317
g82
I3
ssg83
g311
sg76
(lp318
S''
asbasbasbag69
(g85
g71
NtRp319
(dp320
g74
(dp321
sg83
g294
sg76
(lp322
g69
(g90
g71
NtRp323
(dp324
g74
(dp325
g94
g95
ssg83
g319
sg76
(lp326
S'domain'
p327
asbag69
(g90
g71
NtRp328
(dp329
g74
(dp330
g101
g102
ssg83
g319
sg76
(lp331
S':'
asbag69
(g90
g71
NtRp332
(dp333
g74
(dp334
sg83
g319
sg76
(lp335
g69
(g70
g71
NtRp336
(dp337
g74
(dp338
g82
I3
ssg83
g332
sg76
(lp339
S''
asbasbasbag69
(g85
g71
NtRp340
(dp341
g74
(dp342
sg83
g294
sg76
(lp343
g69
(g90
g71
NtRp344
(dp345
g74
(dp346
g94
g95
ssg83
g340
sg76
(lp347
S'expires'
p348
asbag69
(g90
g71
NtRp349
(dp350
g74
(dp351
g101
g102
ssg83
g340
sg76
(lp352
S':'
asbag69
(g90
g71
NtRp353
(dp354
g74
(dp355
sg83
g340
sg76
(lp356
g69
(g70
g71
NtRp357
(dp358
g74
(dp359
g82
I3
ssg83
g353
sg76
(lp360
S''
asbasbasbag69
(g85
g71
NtRp361
(dp362
g74
(dp363
sg83
g294
sg76
(lp364
g69
(g90
g71
NtRp365
(dp366
g74
(dp367
g94
g95
ssg83
g361
sg76
(lp368
S'httponly'
p369
asbag69
(g90
g71
NtRp370
(dp371
g74
(dp372
g101
g102
ssg83
g361
sg76
(lp373
S':'
asbag69
(g90
g71
NtRp374
(dp375
g74
(dp376
sg83
g361
sg76
(lp377
g69
(g70
g71
NtRp378
(dp379
g74
(dp380
g82
I3
ssg83
g374
sg76
(lp381
S''
asbasbasbag69
(g85
g71
NtRp382
(dp383
g74
(dp384
sg83
g294
sg76
(lp385
g69
(g90
g71
NtRp386
(dp387
g74
(dp388
g94
g95
ssg83
g382
sg76
(lp389
S'max-age'
p390
asbag69
(g90
g71
NtRp391
(dp392
g74
(dp393
g101
g102
ssg83
g382
sg76
(lp394
S':'
asbag69
(g90
g71
NtRp395
(dp396
g74
(dp397
sg83
g382
sg76
(lp398
g69
(g70
g71
NtRp399
(dp400
g74
(dp401
g82
I3
ssg83
g395
sg76
(lp402
S''
asbasbasbag69
(g85
g71
NtRp403
(dp404
g74
(dp405
sg83
g294
sg76
(lp406
g69
(g90
g71
NtRp407
(dp408
g74
(dp409
g94
g95
ssg83
g403
sg76
(lp410
S'path'
p411
asbag69
(g90
g71
NtRp412
(dp413
g74
(dp414
g101
g102
ssg83
g403
sg76
(lp415
S':'
asbag69
(g90
g71
NtRp416
(dp417
g74
(dp418
sg83
g403
sg76
(lp419
g69
(g70
g71
NtRp420
(dp421
g74
(dp422
g82
I3
ssg83
g416
sg76
(lp423
S''
asbasbasbag69
(g85
g71
NtRp424
(dp425
g74
(dp426
sg83
g294
sg76
(lp427
g69
(g90
g71
NtRp428
(dp429
g74
(dp430
g94
g95
ssg83
g424
sg76
(lp431
S'secure'
p432
asbag69
(g90
g71
NtRp433
(dp434
g74
(dp435
g101
g102
ssg83
g424
sg76
(lp436
S':'
asbag69
(g90
g71
NtRp437
(dp438
g74
(dp439
sg83
g424
sg76
(lp440
g69
(g70
g71
NtRp441
(dp442
g74
(dp443
g82
I3
ssg83
g437
sg76
(lp444
S''
asbasbasbag69
(g85
g71
NtRp445
(dp446
g74
(dp447
sg83
g294
sg76
(lp448
g69
(g90
g71
NtRp449
(dp450
g74
(dp451
g94
g95
ssg83
g445
sg76
(lp452
S'version'
p453
asbag69
(g90
g71
NtRp454
(dp455
g74
(dp456
g101
g102
ssg83
g445
sg76
(lp457
S':'
asbag69
(g90
g71
NtRp458
(dp459
g74
(dp460
sg83
g445
sg76
(lp461
g69
(g70
g71
NtRp462
(dp463
g74
(dp464
g82
I3
ssg83
g458
sg76
(lp465
S''
asbasbasbasbasbasbasbag69
(g85
g71
NtRp466
(dp467
g74
(dp468
sg83
g268
sg76
(lp469
g69
(g90
g71
NtRp470
(dp471
g74
(dp472
g94
g95
ssg83
g466
sg76
(lp473
S'session_id_admin'
p474
asbag69
(g90
g71
NtRp475
(dp476
g74
(dp477
g101
g102
ssg83
g466
sg76
(lp478
S':'
asbag69
(g90
g71
NtRp479
(dp480
g74
(dp481
sg83
g466
sg76
(lp482
g69
(g70
g71
NtRp483
(dp484
g74
(dp485
g82
I4
ssg83
g479
sg76
(lp486
S'127.0.0.1-d05a66de-144d-4476-baca-ef5d2872972e'
p487
ag69
(g78
g71
NtRp488
(dp489
g74
(dp490
g82
I3
ssg83
Nsg76
(lp491
g69
(g85
g71
NtRp492
(dp493
g74
(dp494
sg83
g488
sg76
(lp495
g69
(g90
g71
NtRp496
(dp497
g74
(dp498
g94
g95
ssg83
g492
sg76
(lp499
g306
asbag69
(g90
g71
NtRp500
(dp501
g74
(dp502
g101
g102
ssg83
g492
sg76
(lp503
S':'
asbag69
(g90
g71
NtRp504
(dp505
g74
(dp506
sg83
g492
sg76
(lp507
g69
(g70
g71
NtRp508
(dp509
g74
(dp510
g82
I3
ssg83
g504
sg76
(lp511
S''
asbasbasbag69
(g85
g71
NtRp512
(dp513
g74
(dp514
sg83
g488
sg76
(lp515
g69
(g90
g71
NtRp516
(dp517
g74
(dp518
g94
g95
ssg83
g512
sg76
(lp519
g327
asbag69
(g90
g71
NtRp520
(dp521
g74
(dp522
g101
g102
ssg83
g512
sg76
(lp523
S':'
asbag69
(g90
g71
NtRp524
(dp525
g74
(dp526
sg83
g512
sg76
(lp527
g69
(g70
g71
NtRp528
(dp529
g74
(dp530
g82
I3
ssg83
g524
sg76
(lp531
S''
asbasbasbag69
(g85
g71
NtRp532
(dp533
g74
(dp534
sg83
g488
sg76
(lp535
g69
(g90
g71
NtRp536
(dp537
g74
(dp538
g94
g95
ssg83
g532
sg76
(lp539
g348
asbag69
(g90
g71
NtRp540
(dp541
g74
(dp542
g101
g102
ssg83
g532
sg76
(lp543
S':'
asbag69
(g90
g71
NtRp544
(dp545
g74
(dp546
sg83
g532
sg76
(lp547
g69
(g70
g71
NtRp548
(dp549
g74
(dp550
g82
I3
ssg83
g544
sg76
(lp551
S''
asbasbasbag69
(g85
g71
NtRp552
(dp553
g74
(dp554
sg83
g488
sg76
(lp555
g69
(g90
g71
NtRp556
(dp557
g74
(dp558
g94
g95
ssg83
g552
sg76
(lp559
g369
asbag69
(g90
g71
NtRp560
(dp561
g74
(dp562
g101
g102
ssg83
g552
sg76
(lp563
S':'
asbag69
(g90
g71
NtRp564
(dp565
g74
(dp566
sg83
g552
sg76
(lp567
g69
(g70
g71
NtRp568
(dp569
g74
(dp570
g82
I3
ssg83
g564
sg76
(lp571
S''
asbasbasbag69
(g85
g71
NtRp572
(dp573
g74
(dp574
sg83
g488
sg76
(lp575
g69
(g90
g71
NtRp576
(dp577
g74
(dp578
g94
g95
ssg83
g572
sg76
(lp579
g390
asbag69
(g90
g71
NtRp580
(dp581
g74
(dp582
g101
g102
ssg83
g572
sg76
(lp583
S':'
asbag69
(g90
g71
NtRp584
(dp585
g74
(dp586
sg83
g572
sg76
(lp587
g69
(g70
g71
NtRp588
(dp589
g74
(dp590
g82
I3
ssg83
g584
sg76
(lp591
S''
asbasbasbag69
(g85
g71
NtRp592
(dp593
g74
(dp594
sg83
g488
sg76
(lp595
g69
(g90
g71
NtRp596
(dp597
g74
(dp598
g94
g95
ssg83
g592
sg76
(lp599
g411
asbag69
(g90
g71
NtRp600
(dp601
g74
(dp602
g101
g102
ssg83
g592
sg76
(lp603
S':'
asbag69
(g90
g71
NtRp604
(dp605
g74
(dp606
sg83
g592
sg76
(lp607
g69
(g70
g71
NtRp608
(dp609
g74
(dp610
g82
I3
ssg83
g604
sg76
(lp611
S''
asbasbasbag69
(g85
g71
NtRp612
(dp613
g74
(dp614
sg83
g488
sg76
(lp615
g69
(g90
g71
NtRp616
(dp617
g74
(dp618
g94
g95
ssg83
g612
sg76
(lp619
g432
asbag69
(g90
g71
NtRp620
(dp621
g74
(dp622
g101
g102
ssg83
g612
sg76
(lp623
S':'
asbag69
(g90
g71
NtRp624
(dp625
g74
(dp626
sg83
g612
sg76
(lp627
g69
(g70
g71
NtRp628
(dp629
g74
(dp630
g82
I3
ssg83
g624
sg76
(lp631
S''
asbasbasbag69
(g85
g71
NtRp632
(dp633
g74
(dp634
sg83
g488
sg76
(lp635
g69
(g90
g71
NtRp636
(dp637
g74
(dp638
g94
g95
ssg83
g632
sg76
(lp639
g453
asbag69
(g90
g71
NtRp640
(dp641
g74
(dp642
g101
g102
ssg83
g632
sg76
(lp643
S':'
asbag69
(g90
g71
NtRp644
(dp645
g74
(dp646
sg83
g632
sg76
(lp647
g69
(g70
g71
NtRp648
(dp649
g74
(dp650
g82
I3
ssg83
g644
sg76
(lp651
S''
asbasbasbasbasbasbasbag69
(g85
g71
NtRp652
(dp653
g74
(dp654
sg83
g268
sg76
(lp655
g69
(g90
g71
NtRp656
(dp657
g74
(dp658
g94
g95
ssg83
g652
sg76
(lp659
S'session_id_shipra'
p660
asbag69
(g90
g71
NtRp661
(dp662
g74
(dp663
g101
g102
ssg83
g652
sg76
(lp664
S':'
asbag69
(g90
g71
NtRp665
(dp666
g74
(dp667
sg83
g652
sg76
(lp668
g69
(g70
g71
NtRp669
(dp670
g74
(dp671
g82
I4
ssg83
g665
sg76
(lp672
S'127.0.0.1-7fa5acfe-848f-4c14-b600-f6d33f5c9539'
p673
ag69
(g78
g71
NtRp674
(dp675
g74
(dp676
g82
I3
ssg83
Nsg76
(lp677
g69
(g85
g71
NtRp678
(dp679
g74
(dp680
sg83
g674
sg76
(lp681
g69
(g90
g71
NtRp682
(dp683
g74
(dp684
g94
g95
ssg83
g678
sg76
(lp685
g306
asbag69
(g90
g71
NtRp686
(dp687
g74
(dp688
g101
g102
ssg83
g678
sg76
(lp689
S':'
asbag69
(g90
g71
NtRp690
(dp691
g74
(dp692
sg83
g678
sg76
(lp693
g69
(g70
g71
NtRp694
(dp695
g74
(dp696
g82
I3
ssg83
g690
sg76
(lp697
S''
asbasbasbag69
(g85
g71
NtRp698
(dp699
g74
(dp700
sg83
g674
sg76
(lp701
g69
(g90
g71
NtRp702
(dp703
g74
(dp704
g94
g95
ssg83
g698
sg76
(lp705
g327
asbag69
(g90
g71
NtRp706
(dp707
g74
(dp708
g101
g102
ssg83
g698
sg76
(lp709
S':'
asbag69
(g90
g71
NtRp710
(dp711
g74
(dp712
sg83
g698
sg76
(lp713
g69
(g70
g71
NtRp714
(dp715
g74
(dp716
g82
I3
ssg83
g710
sg76
(lp717
S''
asbasbasbag69
(g85
g71
NtRp718
(dp719
g74
(dp720
sg83
g674
sg76
(lp721
g69
(g90
g71
NtRp722
(dp723
g74
(dp724
g94
g95
ssg83
g718
sg76
(lp725
g348
asbag69
(g90
g71
NtRp726
(dp727
g74
(dp728
g101
g102
ssg83
g718
sg76
(lp729
S':'
asbag69
(g90
g71
NtRp730
(dp731
g74
(dp732
sg83
g718
sg76
(lp733
g69
(g70
g71
NtRp734
(dp735
g74
(dp736
g82
I3
ssg83
g730
sg76
(lp737
S''
asbasbasbag69
(g85
g71
NtRp738
(dp739
g74
(dp740
sg83
g674
sg76
(lp741
g69
(g90
g71
NtRp742
(dp743
g74
(dp744
g94
g95
ssg83
g738
sg76
(lp745
g369
asbag69
(g90
g71
NtRp746
(dp747
g74
(dp748
g101
g102
ssg83
g738
sg76
(lp749
S':'
asbag69
(g90
g71
NtRp750
(dp751
g74
(dp752
sg83
g738
sg76
(lp753
g69
(g70
g71
NtRp754
(dp755
g74
(dp756
g82
I3
ssg83
g750
sg76
(lp757
S''
asbasbasbag69
(g85
g71
NtRp758
(dp759
g74
(dp760
sg83
g674
sg76
(lp761
g69
(g90
g71
NtRp762
(dp763
g74
(dp764
g94
g95
ssg83
g758
sg76
(lp765
g390
asbag69
(g90
g71
NtRp766
(dp767
g74
(dp768
g101
g102
ssg83
g758
sg76
(lp769
S':'
asbag69
(g90
g71
NtRp770
(dp771
g74
(dp772
sg83
g758
sg76
(lp773
g69
(g70
g71
NtRp774
(dp775
g74
(dp776
g82
I3
ssg83
g770
sg76
(lp777
S''
asbasbasbag69
(g85
g71
NtRp778
(dp779
g74
(dp780
sg83
g674
sg76
(lp781
g69
(g90
g71
NtRp782
(dp783
g74
(dp784
g94
g95
ssg83
g778
sg76
(lp785
g411
asbag69
(g90
g71
NtRp786
(dp787
g74
(dp788
g101
g102
ssg83
g778
sg76
(lp789
S':'
asbag69
(g90
g71
NtRp790
(dp791
g74
(dp792
sg83
g778
sg76
(lp793
g69
(g70
g71
NtRp794
(dp795
g74
(dp796
g82
I3
ssg83
g790
sg76
(lp797
S''
asbasbasbag69
(g85
g71
NtRp798
(dp799
g74
(dp800
sg83
g674
sg76
(lp801
g69
(g90
g71
NtRp802
(dp803
g74
(dp804
g94
g95
ssg83
g798
sg76
(lp805
g432
asbag69
(g90
g71
NtRp806
(dp807
g74
(dp808
g101
g102
ssg83
g798
sg76
(lp809
S':'
asbag69
(g90
g71
NtRp810
(dp811
g74
(dp812
sg83
g798
sg76
(lp813
g69
(g70
g71
NtRp814
(dp815
g74
(dp816
g82
I3
ssg83
g810
sg76
(lp817
S''
asbasbasbag69
(g85
g71
NtRp818
(dp819
g74
(dp820
sg83
g674
sg76
(lp821
g69
(g90
g71
NtRp822
(dp823
g74
(dp824
g94
g95
ssg83
g818
sg76
(lp825
g453
asbag69
(g90
g71
NtRp826
(dp827
g74
(dp828
g101
g102
ssg83
g818
sg76
(lp829
S':'
asbag69
(g90
g71
NtRp830
(dp831
g74
(dp832
sg83
g818
sg76
(lp833
g69
(g70
g71
NtRp834
(dp835
g74
(dp836
g82
I3
ssg83
g830
sg76
(lp837
S''
asbasbasbasbasbasbasbag69
(g85
g71
NtRp838
(dp839
g74
(dp840
sg83
g268
sg76
(lp841
g69
(g90
g71
NtRp842
(dp843
g74
(dp844
g94
g95
ssg83
g838
sg76
(lp845
S'session_id_welcome'
p846
asbag69
(g90
g71
NtRp847
(dp848
g74
(dp849
g101
g102
ssg83
g838
sg76
(lp850
S':'
asbag69
(g90
g71
NtRp851
(dp852
g74
(dp853
sg83
g838
sg76
(lp854
g69
(g70
g71
NtRp855
(dp856
g74
(dp857
g82
I4
ssg83
g851
sg76
(lp858
S'127.0.0.1-71cc98c4-8380-49bc-bd8a-dc48450dcb05'
p859
ag69
(g78
g71
NtRp860
(dp861
g74
(dp862
g82
I3
ssg83
Nsg76
(lp863
g69
(g85
g71
NtRp864
(dp865
g74
(dp866
sg83
g860
sg76
(lp867
g69
(g90
g71
NtRp868
(dp869
g74
(dp870
g94
g95
ssg83
g864
sg76
(lp871
g306
asbag69
(g90
g71
NtRp872
(dp873
g74
(dp874
g101
g102
ssg83
g864
sg76
(lp875
S':'
asbag69
(g90
g71
NtRp876
(dp877
g74
(dp878
sg83
g864
sg76
(lp879
g69
(g70
g71
NtRp880
(dp881
g74
(dp882
g82
I3
ssg83
g876
sg76
(lp883
S''
asbasbasbag69
(g85
g71
NtRp884
(dp885
g74
(dp886
sg83
g860
sg76
(lp887
g69
(g90
g71
NtRp888
(dp889
g74
(dp890
g94
g95
ssg83
g884
sg76
(lp891
g327
asbag69
(g90
g71
NtRp892
(dp893
g74
(dp894
g101
g102
ssg83
g884
sg76
(lp895
S':'
asbag69
(g90
g71
NtRp896
(dp897
g74
(dp898
sg83
g884
sg76
(lp899
g69
(g70
g71
NtRp900
(dp901
g74
(dp902
g82
I3
ssg83
g896
sg76
(lp903
S''
asbasbasbag69
(g85
g71
NtRp904
(dp905
g74
(dp906
sg83
g860
sg76
(lp907
g69
(g90
g71
NtRp908
(dp909
g74
(dp910
g94
g95
ssg83
g904
sg76
(lp911
g348
asbag69
(g90
g71
NtRp912
(dp913
g74
(dp914
g101
g102
ssg83
g904
sg76
(lp915
S':'
asbag69
(g90
g71
NtRp916
(dp917
g74
(dp918
sg83
g904
sg76
(lp919
g69
(g70
g71
NtRp920
(dp921
g74
(dp922
g82
I3
ssg83
g916
sg76
(lp923
S''
asbasbasbag69
(g85
g71
NtRp924
(dp925
g74
(dp926
sg83
g860
sg76
(lp927
g69
(g90
g71
NtRp928
(dp929
g74
(dp930
g94
g95
ssg83
g924
sg76
(lp931
g369
asbag69
(g90
g71
NtRp932
(dp933
g74
(dp934
g101
g102
ssg83
g924
sg76
(lp935
S':'
asbag69
(g90
g71
NtRp936
(dp937
g74
(dp938
sg83
g924
sg76
(lp939
g69
(g70
g71
NtRp940
(dp941
g74
(dp942
g82
I3
ssg83
g936
sg76
(lp943
S''
asbasbasbag69
(g85
g71
NtRp944
(dp945
g74
(dp946
sg83
g860
sg76
(lp947
g69
(g90
g71
NtRp948
(dp949
g74
(dp950
g94
g95
ssg83
g944
sg76
(lp951
g390
asbag69
(g90
g71
NtRp952
(dp953
g74
(dp954
g101
g102
ssg83
g944
sg76
(lp955
S':'
asbag69
(g90
g71
NtRp956
(dp957
g74
(dp958
sg83
g944
sg76
(lp959
g69
(g70
g71
NtRp960
(dp961
g74
(dp962
g82
I3
ssg83
g956
sg76
(lp963
S''
asbasbasbag69
(g85
g71
NtRp964
(dp965
g74
(dp966
sg83
g860
sg76
(lp967
g69
(g90
g71
NtRp968
(dp969
g74
(dp970
g94
g95
ssg83
g964
sg76
(lp971
g411
asbag69
(g90
g71
NtRp972
(dp973
g74
(dp974
g101
g102
ssg83
g964
sg76
(lp975
S':'
asbag69
(g90
g71
NtRp976
(dp977
g74
(dp978
sg83
g964
sg76
(lp979
g69
(g70
g71
NtRp980
(dp981
g74
(dp982
g82
I3
ssg83
g976
sg76
(lp983
S''
asbasbasbag69
(g85
g71
NtRp984
(dp985
g74
(dp986
sg83
g860
sg76
(lp987
g69
(g90
g71
NtRp988
(dp989
g74
(dp990
g94
g95
ssg83
g984
sg76
(lp991
g432
asbag69
(g90
g71
NtRp992
(dp993
g74
(dp994
g101
g102
ssg83
g984
sg76
(lp995
S':'
asbag69
(g90
g71
NtRp996
(dp997
g74
(dp998
sg83
g984
sg76
(lp999
g69
(g70
g71
NtRp1000
(dp1001
g74
(dp1002
g82
I3
ssg83
g996
sg76
(lp1003
S''
asbasbasbag69
(g85
g71
NtRp1004
(dp1005
g74
(dp1006
sg83
g860
sg76
(lp1007
g69
(g90
g71
NtRp1008
(dp1009
g74
(dp1010
g94
g95
ssg83
g1004
sg76
(lp1011
g453
asbag69
(g90
g71
NtRp1012
(dp1013
g74
(dp1014
g101
g102
ssg83
g1004
sg76
(lp1015
S':'
asbag69
(g90
g71
NtRp1016
(dp1017
g74
(dp1018
sg83
g1004
sg76
(lp1019
g69
(g70
g71
NtRp1020
(dp1021
g74
(dp1022
g82
I3
ssg83
g1016
sg76
(lp1023
S''
asbasbasbasbasbasbasbasbasbasbasbag69
(g85
g71
NtRp1024
(dp1025
g74
(dp1026
sg83
g79
sg76
(lp1027
g69
(g90
g71
NtRp1028
(dp1029
g74
(dp1030
g94
g95
ssg83
g1024
sg76
(lp1031
S'env'
p1032
asbag69
(g90
g71
NtRp1033
(dp1034
g74
(dp1035
g101
g102
ssg83
g1024
sg76
(lp1036
S':'
asbag69
(g90
g71
NtRp1037
(dp1038
g74
(dp1039
sg83
g1024
sg76
(lp1040
g69
(g70
g71
NtRp1041
(dp1042
g74
(dp1043
g82
I5
ssg83
g1037
sg76
(lp1044
g69
(g78
g71
NtRp1045
(dp1046
g74
(dp1047
g82
I4
ssg83
Nsg76
(lp1048
g69
(g85
g71
NtRp1049
(dp1050
g74
(dp1051
sg83
g1045
sg76
(lp1052
g69
(g90
g71
NtRp1053
(dp1054
g74
(dp1055
g94
g95
ssg83
g1049
sg76
(lp1056
S'app_folders'
p1057
asbag69
(g90
g71
NtRp1058
(dp1059
g74
(dp1060
g101
g102
ssg83
g1049
sg76
(lp1061
S':'
asbag69
(g90
g71
NtRp1062
(dp1063
g74
(dp1064
sg83
g1049
sg76
(lp1065
g69
(g70
g71
NtRp1066
(dp1067
g74
(dp1068
g82
I4
ssg83
g1062
sg76
(lp1069
S"set(['/home/shipra/Desktop/Semester 1.2/ITWS-2/web2py/applications/shipra/', '/home/shipra/Desktop/Semester 1.2/ITWS-2/web2py/applications/welcome/', '/home/shipra/Desktop/Semester 1.2/ITWS-2/web2py/applications/admin/'])"
p1070
asbasbasbag69
(g85
g71
NtRp1071
(dp1072
g74
(dp1073
sg83
g1045
sg76
(lp1074
g69
(g90
g71
NtRp1075
(dp1076
g74
(dp1077
g94
g95
ssg83
g1071
sg76
(lp1078
S'applications_parent'
p1079
asbag69
(g90
g71
NtRp1080
(dp1081
g74
(dp1082
g101
g102
ssg83
g1071
sg76
(lp1083
S':'
asbag69
(g90
g71
NtRp1084
(dp1085
g74
(dp1086
sg83
g1071
sg76
(lp1087
g69
(g70
g71
NtRp1088
(dp1089
g74
(dp1090
g82
I4
ssg83
g1084
sg76
(lp1091
S'/home/shipra/Desktop/Semester 1.2/ITWS-2/web2py'
p1092
asbasbasbag69
(g85
g71
NtRp1093
(dp1094
g74
(dp1095
sg83
g1045
sg76
(lp1096
g69
(g90
g71
NtRp1097
(dp1098
g74
(dp1099
g94
g95
ssg83
g1093
sg76
(lp1100
S'cmd_args'
p1101
asbag69
(g90
g71
NtRp1102
(dp1103
g74
(dp1104
g101
g102
ssg83
g1093
sg76
(lp1105
S':'
asbag69
(g90
g71
NtRp1106
(dp1107
g74
(dp1108
sg83
g1093
sg76
(lp1109
g69
(g70
g71
NtRp1110
(dp1111
g74
(dp1112
g82
I4
ssg83
g1106
sg76
(lp1113
g69
(g78
g71
NtRp1114
(dp1115
g74
(dp1116
g82
I3
ssg83
Nsg76
(lp1117
sbasbasbasbag69
(g85
g71
NtRp1118
(dp1119
g74
(dp1120
sg83
g1045
sg76
(lp1121
g69
(g90
g71
NtRp1122
(dp1123
g74
(dp1124
g94
g95
ssg83
g1118
sg76
(lp1125
S'cmd_options'
p1126
asbag69
(g90
g71
NtRp1127
(dp1128
g74
(dp1129
g101
g102
ssg83
g1118
sg76
(lp1130
S':'
asbag69
(g90
g71
NtRp1131
(dp1132
g74
(dp1133
sg83
g1118
sg76
(lp1134
g69
(g70
g71
NtRp1135
(dp1136
g74
(dp1137
g82
I4
ssg83
g1131
sg76
(lp1138
S"<Values at 0x27ad248: {'verbose': False, 'ip': '127.0.0.1', 'with_scheduler': False, 'ips': ['192.168.122.1', 'fe80::8a53:2eff:fe7d:9d6c%wlan0', '10.42.0.99'], 'shutdown_timeout': 5, 'taskbar': False, 'port': 8000, 'maxthreads': None, 'softcron': False, 'server_name': 'shipra', 'bpython': False, 'nogui': False, 'pid_filename': 'httpserver.pid', 'extcron': False, 'runcron': False, 'run_system_tests': False, 'test': None, 'folder': '/home/shipra/Desktop/Semester 1.2/ITWS-2/web2py', 'config': '', 'minthreads': None, 'winservice': '', 'shell': None, 'run': '', 'log_filename': 'httpserver.log', 'debuglevel': 30, 'args': [''], 'socket_timeout': 5, 'ssl_ca_certificate': None, 'scheduler': None, 'profiler_filename': None, 'ssl_private_key': '', 'scheduler_groups': None, 'password': '<ask>', 'request_queue_size': 5, 'ssl_certificate': '', 'cronjob': False, 'numthreads': None, 'quiet': False, 'interfaces': None, 'import_models': False, 'timeout': 10, 'plain': False, 'nobanner': False}>"
p1139
asbasbasbag69
(g85
g71
NtRp1140
(dp1141
g74
(dp1142
sg83
g1045
sg76
(lp1143
g69
(g90
g71
NtRp1144
(dp1145
g74
(dp1146
g94
g95
ssg83
g1140
sg76
(lp1147
S'db_sessions'
p1148
asbag69
(g90
g71
NtRp1149
(dp1150
g74
(dp1151
g101
g102
ssg83
g1140
sg76
(lp1152
S':'
asbag69
(g90
g71
NtRp1153
(dp1154
g74
(dp1155
sg83
g1140
sg76
(lp1156
g69
(g70
g71
NtRp1157
(dp1158
g74
(dp1159
g82
I4
ssg83
g1153
sg76
(lp1160
S'set([])'
p1161
asbasbasbag69
(g85
g71
NtRp1162
(dp1163
g74
(dp1164
sg83
g1045
sg76
(lp1165
g69
(g90
g71
NtRp1166
(dp1167
g74
(dp1168
g94
g95
ssg83
g1162
sg76
(lp1169
S'debugging'
p1170
asbag69
(g90
g71
NtRp1171
(dp1172
g74
(dp1173
g101
g102
ssg83
g1162
sg76
(lp1174
S':'
asbag69
(g90
g71
NtRp1175
(dp1176
g74
(dp1177
sg83
g1162
sg76
(lp1178
g69
(g70
g71
NtRp1179
(dp1180
g74
(dp1181
g82
I4
ssg83
g1175
sg76
(lp1182
g112
asbasbasbag69
(g85
g71
NtRp1183
(dp1184
g74
(dp1185
sg83
g1045
sg76
(lp1186
g69
(g90
g71
NtRp1187
(dp1188
g74
(dp1189
g94
g95
ssg83
g1183
sg76
(lp1190
S'gluon_parent'
p1191
asbag69
(g90
g71
NtRp1192
(dp1193
g74
(dp1194
g101
g102
ssg83
g1183
sg76
(lp1195
S':'
asbag69
(g90
g71
NtRp1196
(dp1197
g74
(dp1198
sg83
g1183
sg76
(lp1199
g69
(g70
g71
NtRp1200
(dp1201
g74
(dp1202
g82
I4
ssg83
g1196
sg76
(lp1203
S'/home/shipra/Desktop/Semester 1.2/ITWS-2/web2py'
p1204
asbasbasbag69
(g85
g71
NtRp1205
(dp1206
g74
(dp1207
sg83
g1045
sg76
(lp1208
g69
(g90
g71
NtRp1209
(dp1210
g74
(dp1211
g94
g95
ssg83
g1205
sg76
(lp1212
S'http_accept'
p1213
asbag69
(g90
g71
NtRp1214
(dp1215
g74
(dp1216
g101
g102
ssg83
g1205
sg76
(lp1217
S':'
asbag69
(g90
g71
NtRp1218
(dp1219
g74
(dp1220
sg83
g1205
sg76
(lp1221
g69
(g70
g71
NtRp1222
(dp1223
g74
(dp1224
g82
I4
ssg83
g1218
sg76
(lp1225
S'text/html,application/xhtml+xml,application/xml;q=0.9,*/*;q=0.8'
p1226
asbasbasbag69
(g85
g71
NtRp1227
(dp1228
g74
(dp1229
sg83
g1045
sg76
(lp1230
g69
(g90
g71
NtRp1231
(dp1232
g74
(dp1233
g94
g95
ssg83
g1227
sg76
(lp1234
S'http_accept_encoding'
p1235
asbag69
(g90
g71
NtRp1236
(dp1237
g74
(dp1238
g101
g102
ssg83
g1227
sg76
(lp1239
S':'
asbag69
(g90
g71
NtRp1240
(dp1241
g74
(dp1242
sg83
g1227
sg76
(lp1243
g69
(g70
g71
NtRp1244
(dp1245
g74
(dp1246
g82
I4
ssg83
g1240
sg76
(lp1247
S'gzip, deflate'
p1248
asbasbasbag69
(g85
g71
NtRp1249
(dp1250
g74
(dp1251
sg83
g1045
sg76
(lp1252
g69
(g90
g71
NtRp1253
(dp1254
g74
(dp1255
g94
g95
ssg83
g1249
sg76
(lp1256
S'http_accept_language'
p1257
asbag69
(g90
g71
NtRp1258
(dp1259
g74
(dp1260
g101
g102
ssg83
g1249
sg76
(lp1261
S':'
asbag69
(g90
g71
NtRp1262
(dp1263
g74
(dp1264
sg83
g1249
sg76
(lp1265
g69
(g70
g71
NtRp1266
(dp1267
g74
(dp1268
g82
I4
ssg83
g1262
sg76
(lp1269
S'en-us,en;q=0.5'
p1270
asbasbasbag69
(g85
g71
NtRp1271
(dp1272
g74
(dp1273
sg83
g1045
sg76
(lp1274
g69
(g90
g71
NtRp1275
(dp1276
g74
(dp1277
g94
g95
ssg83
g1271
sg76
(lp1278
S'http_connection'
p1279
asbag69
(g90
g71
NtRp1280
(dp1281
g74
(dp1282
g101
g102
ssg83
g1271
sg76
(lp1283
S':'
asbag69
(g90
g71
NtRp1284
(dp1285
g74
(dp1286
sg83
g1271
sg76
(lp1287
g69
(g70
g71
NtRp1288
(dp1289
g74
(dp1290
g82
I4
ssg83
g1284
sg76
(lp1291
S'keep-alive'
p1292
asbasbasbag69
(g85
g71
NtRp1293
(dp1294
g74
(dp1295
sg83
g1045
sg76
(lp1296
g69
(g90
g71
NtRp1297
(dp1298
g74
(dp1299
g94
g95
ssg83
g1293
sg76
(lp1300
S'http_cookie'
p1301
asbag69
(g90
g71
NtRp1302
(dp1303
g74
(dp1304
g101
g102
ssg83
g1293
sg76
(lp1305
S':'
asbag69
(g90
g71
NtRp1306
(dp1307
g74
(dp1308
sg83
g1293
sg76
(lp1309
g69
(g70
g71
NtRp1310
(dp1311
g74
(dp1312
g82
I4
ssg83
g1306
sg76
(lp1313
S'__utma=96992031.1334412862.1364672878.1364672878.1364718243.2; __utmz=96992031.1364672878.1.1.utmcsr=(direct)|utmccn=(direct)|utmcmd=(none); __lc.visitor_id.1195381=S1364672235.4faffcf2d2; __ar_v4=OWHSPOGHTNEIPPPBMHVFTA%3A20130329%3A12%7CAMEDRHI4VZG4TIA2AZ565D%3A20130329%3A12%7CWAEQXC4B2NH3DDBR3TZM6I%3A20130329%3A12; mp_2093ad9ff9c5428a2228386de2f2b0e4_mixpanel=%7B%22distinct_id%22%3A%20%2262ffc2d0-7b9f-0130-efb0-22000a1cbb2a%22%2C%22is_registered_user%22%3A%20false%2C%22%24initial_referrer%22%3A%20%22%24direct%22%2C%22%24initial_referring_domain%22%3A%20%22%24direct%22%7D; session_id_welcome=127.0.0.1-71cc98c4-8380-49bc-bd8a-dc48450dcb05; session_id_shipra=127.0.0.1-7fa5acfe-848f-4c14-b600-f6d33f5c9539; session_id_admin=127.0.0.1-d05a66de-144d-4476-baca-ef5d2872972e'
p1314
asbasbasbag69
(g85
g71
NtRp1315
(dp1316
g74
(dp1317
sg83
g1045
sg76
(lp1318
g69
(g90
g71
NtRp1319
(dp1320
g74
(dp1321
g94
g95
ssg83
g1315
sg76
(lp1322
S'http_host'
p1323
asbag69
(g90
g71
NtRp1324
(dp1325
g74
(dp1326
g101
g102
ssg83
g1315
sg76
(lp1327
S':'
asbag69
(g90
g71
NtRp1328
(dp1329
g74
(dp1330
sg83
g1315
sg76
(lp1331
g69
(g70
g71
NtRp1332
(dp1333
g74
(dp1334
g82
I4
ssg83
g1328
sg76
(lp1335
S'127.0.0.1:8000'
p1336
asbasbasbag69
(g85
g71
NtRp1337
(dp1338
g74
(dp1339
sg83
g1045
sg76
(lp1340
g69
(g90
g71
NtRp1341
(dp1342
g74
(dp1343
g94
g95
ssg83
g1337
sg76
(lp1344
S'http_user_agent'
p1345
asbag69
(g90
g71
NtRp1346
(dp1347
g74
(dp1348
g101
g102
ssg83
g1337
sg76
(lp1349
S':'
asbag69
(g90
g71
NtRp1350
(dp1351
g74
(dp1352
sg83
g1337
sg76
(lp1353
g69
(g70
g71
NtRp1354
(dp1355
g74
(dp1356
g82
I4
ssg83
g1350
sg76
(lp1357
S'Mozilla/5.0 (X11; Linux x86_64; rv:12.0) Gecko/20100101 Firefox/12.0'
p1358
asbasbasbag69
(g85
g71
NtRp1359
(dp1360
g74
(dp1361
sg83
g1045
sg76
(lp1362
g69
(g90
g71
NtRp1363
(dp1364
g74
(dp1365
g94
g95
ssg83
g1359
sg76
(lp1366
S'is_jython'
p1367
asbag69
(g90
g71
NtRp1368
(dp1369
g74
(dp1370
g101
g102
ssg83
g1359
sg76
(lp1371
S':'
asbag69
(g90
g71
NtRp1372
(dp1373
g74
(dp1374
sg83
g1359
sg76
(lp1375
g69
(g70
g71
NtRp1376
(dp1377
g74
(dp1378
g82
I4
ssg83
g1372
sg76
(lp1379
g112
asbasbasbag69
(g85
g71
NtRp1380
(dp1381
g74
(dp1382
sg83
g1045
sg76
(lp1383
g69
(g90
g71
NtRp1384
(dp1385
g74
(dp1386
g94
g95
ssg83
g1380
sg76
(lp1387
S'is_pypy'
p1388
asbag69
(g90
g71
NtRp1389
(dp1390
g74
(dp1391
g101
g102
ssg83
g1380
sg76
(lp1392
S':'
asbag69
(g90
g71
NtRp1393
(dp1394
g74
(dp1395
sg83
g1380
sg76
(lp1396
g69
(g70
g71
NtRp1397
(dp1398
g74
(dp1399
g82
I4
ssg83
g1393
sg76
(lp1400
g112
asbasbasbag69
(g85
g71
NtRp1401
(dp1402
g74
(dp1403
sg83
g1045
sg76
(lp1404
g69
(g90
g71
NtRp1405
(dp1406
g74
(dp1407
g94
g95
ssg83
g1401
sg76
(lp1408
S'local_hosts'
p1409
asbag69
(g90
g71
NtRp1410
(dp1411
g74
(dp1412
g101
g102
ssg83
g1401
sg76
(lp1413
S':'
asbag69
(g90
g71
NtRp1414
(dp1415
g74
(dp1416
sg83
g1401
sg76
(lp1417
g69
(g70
g71
NtRp1418
(dp1419
g74
(dp1420
g82
I4
ssg83
g1414
sg76
(lp1421
g69
(g78
g71
NtRp1422
(dp1423
g74
(dp1424
g82
I3
ssg83
Nsg76
(lp1425
g69
(g85
g71
NtRp1426
(dp1427
g74
(dp1428
sg83
g1422
sg76
(lp1429
g69
(g90
g71
NtRp1430
(dp1431
g74
(dp1432
sg83
g1426
sg76
(lp1433
g69
(g70
g71
NtRp1434
(dp1435
g74
(dp1436
g82
I3
ssg83
g1430
sg76
(lp1437
S'10.42.0.99'
p1438
asbasbasbag69
(g85
g71
NtRp1439
(dp1440
g74
(dp1441
sg83
g1422
sg76
(lp1442
g69
(g90
g71
NtRp1443
(dp1444
g74
(dp1445
sg83
g1439
sg76
(lp1446
g69
(g70
g71
NtRp1447
(dp1448
g74
(dp1449
g82
I3
ssg83
g1443
sg76
(lp1450
S'::ffff:127.0.0.1'
p1451
asbasbasbag69
(g85
g71
NtRp1452
(dp1453
g74
(dp1454
sg83
g1422
sg76
(lp1455
g69
(g90
g71
NtRp1456
(dp1457
g74
(dp1458
sg83
g1452
sg76
(lp1459
g69
(g70
g71
NtRp1460
(dp1461
g74
(dp1462
g82
I3
ssg83
g1456
sg76
(lp1463
S'::1'
p1464
asbasbasbag69
(g85
g71
NtRp1465
(dp1466
g74
(dp1467
sg83
g1422
sg76
(lp1468
g69
(g90
g71
NtRp1469
(dp1470
g74
(dp1471
sg83
g1465
sg76
(lp1472
g69
(g70
g71
NtRp1473
(dp1474
g74
(dp1475
g82
I3
ssg83
g1469
sg76
(lp1476
S'fe80::8a53:2eff:fe7d:9d6c%wlan0'
p1477
asbasbasbag69
(g85
g71
NtRp1478
(dp1479
g74
(dp1480
sg83
g1422
sg76
(lp1481
g69
(g90
g71
NtRp1482
(dp1483
g74
(dp1484
sg83
g1478
sg76
(lp1485
g69
(g70
g71
NtRp1486
(dp1487
g74
(dp1488
g82
I3
ssg83
g1482
sg76
(lp1489
S'192.168.122.1'
p1490
asbasbasbag69
(g85
g71
NtRp1491
(dp1492
g74
(dp1493
sg83
g1422
sg76
(lp1494
g69
(g90
g71
NtRp1495
(dp1496
g74
(dp1497
sg83
g1491
sg76
(lp1498
g69
(g70
g71
NtRp1499
(dp1500
g74
(dp1501
g82
I3
ssg83
g1495
sg76
(lp1502
S'127.0.0.1'
p1503
asbasbasbag69
(g85
g71
NtRp1504
(dp1505
g74
(dp1506
sg83
g1422
sg76
(lp1507
g69
(g90
g71
NtRp1508
(dp1509
g74
(dp1510
sg83
g1504
sg76
(lp1511
g69
(g70
g71
NtRp1512
(dp1513
g74
(dp1514
g82
I3
ssg83
g1508
sg76
(lp1515
S'shipra'
p1516
asbasbasbasbasbasbasbag69
(g85
g71
NtRp1517
(dp1518
g74
(dp1519
sg83
g1045
sg76
(lp1520
g69
(g90
g71
NtRp1521
(dp1522
g74
(dp1523
g94
g95
ssg83
g1517
sg76
(lp1524
S'path_info'
p1525
asbag69
(g90
g71
NtRp1526
(dp1527
g74
(dp1528
g101
g102
ssg83
g1517
sg76
(lp1529
S':'
asbag69
(g90
g71
NtRp1530
(dp1531
g74
(dp1532
sg83
g1517
sg76
(lp1533
g69
(g70
g71
NtRp1534
(dp1535
g74
(dp1536
g82
I4
ssg83
g1530
sg76
(lp1537
S'/shipra/default/resume_search'
p1538
asbasbasbag69
(g85
g71
NtRp1539
(dp1540
g74
(dp1541
sg83
g1045
sg76
(lp1542
g69
(g90
g71
NtRp1543
(dp1544
g74
(dp1545
g94
g95
ssg83
g1539
sg76
(lp1546
S'query_string'
p1547
asbag69
(g90
g71
NtRp1548
(dp1549
g74
(dp1550
g101
g102
ssg83
g1539
sg76
(lp1551
S':'
asbag69
(g90
g71
NtRp1552
(dp1553
g74
(dp1554
sg83
g1539
sg76
(lp1555
g69
(g70
g71
NtRp1556
(dp1557
g74
(dp1558
g82
I4
ssg83
g1552
sg76
(lp1559
S''
asbasbasbag69
(g85
g71
NtRp1560
(dp1561
g74
(dp1562
sg83
g1045
sg76
(lp1563
g69
(g90
g71
NtRp1564
(dp1565
g74
(dp1566
g94
g95
ssg83
g1560
sg76
(lp1567
S'remote_addr'
p1568
asbag69
(g90
g71
NtRp1569
(dp1570
g74
(dp1571
g101
g102
ssg83
g1560
sg76
(lp1572
S':'
asbag69
(g90
g71
NtRp1573
(dp1574
g74
(dp1575
sg83
g1560
sg76
(lp1576
g69
(g70
g71
NtRp1577
(dp1578
g74
(dp1579
g82
I4
ssg83
g1573
sg76
(lp1580
g224
asbasbasbag69
(g85
g71
NtRp1581
(dp1582
g74
(dp1583
sg83
g1045
sg76
(lp1584
g69
(g90
g71
NtRp1585
(dp1586
g74
(dp1587
g94
g95
ssg83
g1581
sg76
(lp1588
S'remote_port'
p1589
asbag69
(g90
g71
NtRp1590
(dp1591
g74
(dp1592
g101
g102
ssg83
g1581
sg76
(lp1593
S':'
asbag69
(g90
g71
NtRp1594
(dp1595
g74
(dp1596
sg83
g1581
sg76
(lp1597
g69
(g70
g71
NtRp1598
(dp1599
g74
(dp1600
g82
I4
ssg83
g1594
sg76
(lp1601
S'45022'
p1602
asbasbasbag69
(g85
g71
NtRp1603
(dp1604
g74
(dp1605
sg83
g1045
sg76
(lp1606
g69
(g90
g71
NtRp1607
(dp1608
g74
(dp1609
g94
g95
ssg83
g1603
sg76
(lp1610
S'request_method'
p1611
asbag69
(g90
g71
NtRp1612
(dp1613
g74
(dp1614
g101
g102
ssg83
g1603
sg76
(lp1615
S':'
asbag69
(g90
g71
NtRp1616
(dp1617
g74
(dp1618
sg83
g1603
sg76
(lp1619
g69
(g70
g71
NtRp1620
(dp1621
g74
(dp1622
g82
I4
ssg83
g1616
sg76
(lp1623
S'GET'
p1624
asbasbasbag69
(g85
g71
NtRp1625
(dp1626
g74
(dp1627
sg83
g1045
sg76
(lp1628
g69
(g90
g71
NtRp1629
(dp1630
g74
(dp1631
g94
g95
ssg83
g1625
sg76
(lp1632
S'request_uri'
p1633
asbag69
(g90
g71
NtRp1634
(dp1635
g74
(dp1636
g101
g102
ssg83
g1625
sg76
(lp1637
S':'
asbag69
(g90
g71
NtRp1638
(dp1639
g74
(dp1640
sg83
g1625
sg76
(lp1641
g69
(g70
g71
NtRp1642
(dp1643
g74
(dp1644
g82
I4
ssg83
g1638
sg76
(lp1645
g1538
asbasbasbag69
(g85
g71
NtRp1646
(dp1647
g74
(dp1648
sg83
g1045
sg76
(lp1649
g69
(g90
g71
NtRp1650
(dp1651
g74
(dp1652
g94
g95
ssg83
g1646
sg76
(lp1653
S'script_name'
p1654
asbag69
(g90
g71
NtRp1655
(dp1656
g74
(dp1657
g101
g102
ssg83
g1646
sg76
(lp1658
S':'
asbag69
(g90
g71
NtRp1659
(dp1660
g74
(dp1661
sg83
g1646
sg76
(lp1662
g69
(g70
g71
NtRp1663
(dp1664
g74
(dp1665
g82
I4
ssg83
g1659
sg76
(lp1666
S''
asbasbasbag69
(g85
g71
NtRp1667
(dp1668
g74
(dp1669
sg83
g1045
sg76
(lp1670
g69
(g90
g71
NtRp1671
(dp1672
g74
(dp1673
g94
g95
ssg83
g1667
sg76
(lp1674
S'server_name'
p1675
asbag69
(g90
g71
NtRp1676
(dp1677
g74
(dp1678
g101
g102
ssg83
g1667
sg76
(lp1679
S':'
asbag69
(g90
g71
NtRp1680
(dp1681
g74
(dp1682
sg83
g1667
sg76
(lp1683
g69
(g70
g71
NtRp1684
(dp1685
g74
(dp1686
g82
I4
ssg83
g1680
sg76
(lp1687
S'shipra'
p1688
asbasbasbag69
(g85
g71
NtRp1689
(dp1690
g74
(dp1691
sg83
g1045
sg76
(lp1692
g69
(g90
g71
NtRp1693
(dp1694
g74
(dp1695
g94
g95
ssg83
g1689
sg76
(lp1696
S'server_port'
p1697
asbag69
(g90
g71
NtRp1698
(dp1699
g74
(dp1700
g101
g102
ssg83
g1689
sg76
(lp1701
S':'
asbag69
(g90
g71
NtRp1702
(dp1703
g74
(dp1704
sg83
g1689
sg76
(lp1705
g69
(g70
g71
NtRp1706
(dp1707
g74
(dp1708
g82
I4
ssg83
g1702
sg76
(lp1709
S'8000'
p1710
asbasbasbag69
(g85
g71
NtRp1711
(dp1712
g74
(dp1713
sg83
g1045
sg76
(lp1714
g69
(g90
g71
NtRp1715
(dp1716
g74
(dp1717
g94
g95
ssg83
g1711
sg76
(lp1718
S'server_protocol'
p1719
asbag69
(g90
g71
NtRp1720
(dp1721
g74
(dp1722
g101
g102
ssg83
g1711
sg76
(lp1723
S':'
asbag69
(g90
g71
NtRp1724
(dp1725
g74
(dp1726
sg83
g1711
sg76
(lp1727
g69
(g70
g71
NtRp1728
(dp1729
g74
(dp1730
g82
I4
ssg83
g1724
sg76
(lp1731
S'HTTP/1.1'
p1732
asbasbasbag69
(g85
g71
NtRp1733
(dp1734
g74
(dp1735
sg83
g1045
sg76
(lp1736
g69
(g90
g71
NtRp1737
(dp1738
g74
(dp1739
g94
g95
ssg83
g1733
sg76
(lp1740
S'server_software'
p1741
asbag69
(g90
g71
NtRp1742
(dp1743
g74
(dp1744
g101
g102
ssg83
g1733
sg76
(lp1745
S':'
asbag69
(g90
g71
NtRp1746
(dp1747
g74
(dp1748
sg83
g1733
sg76
(lp1749
g69
(g70
g71
NtRp1750
(dp1751
g74
(dp1752
g82
I4
ssg83
g1746
sg76
(lp1753
S'Rocket 1.2.6'
p1754
asbasbasbag69
(g85
g71
NtRp1755
(dp1756
g74
(dp1757
sg83
g1045
sg76
(lp1758
g69
(g90
g71
NtRp1759
(dp1760
g74
(dp1761
g94
g95
ssg83
g1755
sg76
(lp1762
S'web2py_path'
p1763
asbag69
(g90
g71
NtRp1764
(dp1765
g74
(dp1766
g101
g102
ssg83
g1755
sg76
(lp1767
S':'
asbag69
(g90
g71
NtRp1768
(dp1769
g74
(dp1770
sg83
g1755
sg76
(lp1771
g69
(g70
g71
NtRp1772
(dp1773
g74
(dp1774
g82
I4
ssg83
g1768
sg76
(lp1775
g1092
asbasbasbag69
(g85
g71
NtRp1776
(dp1777
g74
(dp1778
sg83
g1045
sg76
(lp1779
g69
(g90
g71
NtRp1780
(dp1781
g74
(dp1782
g94
g95
ssg83
g1776
sg76
(lp1783
S'web2py_version'
p1784
asbag69
(g90
g71
NtRp1785
(dp1786
g74
(dp1787
g101
g102
ssg83
g1776
sg76
(lp1788
S':'
asbag69
(g90
g71
NtRp1789
(dp1790
g74
(dp1791
sg83
g1776
sg76
(lp1792
g69
(g70
g71
NtRp1793
(dp1794
g74
(dp1795
g82
I4
ssg83
g1789
sg76
(lp1796
g69
(g78
g71
NtRp1797
(dp1798
g74
(dp1799
g82
I3
ssg83
Nsg76
(lp1800
g69
(g85
g71
NtRp1801
(dp1802
g74
(dp1803
sg83
g1797
sg76
(lp1804
g69
(g90
g71
NtRp1805
(dp1806
g74
(dp1807
sg83
g1801
sg76
(lp1808
g69
(g70
g71
NtRp1809
(dp1810
g74
(dp1811
g82
I3
ssg83
g1805
sg76
(lp1812
S'2'
asbasbasbag69
(g85
g71
NtRp1813
(dp1814
g74
(dp1815
sg83
g1797
sg76
(lp1816
g69
(g90
g71
NtRp1817
(dp1818
g74
(dp1819
sg83
g1813
sg76
(lp1820
g69
(g70
g71
NtRp1821
(dp1822
g74
(dp1823
g82
I3
ssg83
g1817
sg76
(lp1824
S'3'
asbasbasbag69
(g85
g71
NtRp1825
(dp1826
g74
(dp1827
sg83
g1797
sg76
(lp1828
g69
(g90
g71
NtRp1829
(dp1830
g74
(dp1831
sg83
g1825
sg76
(lp1832
g69
(g70
g71
NtRp1833
(dp1834
g74
(dp1835
g82
I3
ssg83
g1829
sg76
(lp1836
S'2'
asbasbasbag69
(g85
g71
NtRp1837
(dp1838
g74
(dp1839
sg83
g1797
sg76
(lp1840
g69
(g90
g71
NtRp1841
(dp1842
g74
(dp1843
sg83
g1837
sg76
(lp1844
g69
(g70
g71
NtRp1845
(dp1846
g74
(dp1847
g82
I3
ssg83
g1841
sg76
(lp1848
S'datetime.datetime(2012, 12, 17, 15, 3, 30)'
p1849
asbasbasbag69
(g85
g71
NtRp1850
(dp1851
g74
(dp1852
sg83
g1797
sg76
(lp1853
g69
(g90
g71
NtRp1854
(dp1855
g74
(dp1856
sg83
g1850
sg76
(lp1857
g69
(g70
g71
NtRp1858
(dp1859
g74
(dp1860
g82
I3
ssg83
g1854
sg76
(lp1861
S'stable'
p1862
asbasbasbasbasbasbasbag69
(g85
g71
NtRp1863
(dp1864
g74
(dp1865
sg83
g1045
sg76
(lp1866
g69
(g90
g71
NtRp1867
(dp1868
g74
(dp1869
g94
g95
ssg83
g1863
sg76
(lp1870
S'wsgi_errors'
p1871
asbag69
(g90
g71
NtRp1872
(dp1873
g74
(dp1874
g101
g102
ssg83
g1863
sg76
(lp1875
S':'
asbag69
(g90
g71
NtRp1876
(dp1877
g74
(dp1878
sg83
g1863
sg76
(lp1879
g69
(g70
g71
NtRp1880
(dp1881
g74
(dp1882
g82
I4
ssg83
g1876
sg76
(lp1883
S"<open file '<stderr>', mode 'w' at 0x7ffcdb781270>"
p1884
asbasbasbag69
(g85
g71
NtRp1885
(dp1886
g74
(dp1887
sg83
g1045
sg76
(lp1888
g69
(g90
g71
NtRp1889
(dp1890
g74
(dp1891
g94
g95
ssg83
g1885
sg76
(lp1892
S'wsgi_file_wrapper'
p1893
asbag69
(g90
g71
NtRp1894
(dp1895
g74
(dp1896
g101
g102
ssg83
g1885
sg76
(lp1897
S':'
asbag69
(g90
g71
NtRp1898
(dp1899
g74
(dp1900
sg83
g1885
sg76
(lp1901
g69
(g70
g71
NtRp1902
(dp1903
g74
(dp1904
g82
I4
ssg83
g1898
sg76
(lp1905
S'<class wsgiref.util.FileWrapper at 0x2736db8>'
p1906
asbasbasbag69
(g85
g71
NtRp1907
(dp1908
g74
(dp1909
sg83
g1045
sg76
(lp1910
g69
(g90
g71
NtRp1911
(dp1912
g74
(dp1913
g94
g95
ssg83
g1907
sg76
(lp1914
S'wsgi_input'
p1915
asbag69
(g90
g71
NtRp1916
(dp1917
g74
(dp1918
g101
g102
ssg83
g1907
sg76
(lp1919
S':'
asbag69
(g90
g71
NtRp1920
(dp1921
g74
(dp1922
sg83
g1907
sg76
(lp1923
g69
(g70
g71
NtRp1924
(dp1925
g74
(dp1926
g82
I4
ssg83
g1920
sg76
(lp1927
S'<socket._fileobject object at 0x7ffca00611d0>'
p1928
asbasbasbag69
(g85
g71
NtRp1929
(dp1930
g74
(dp1931
sg83
g1045
sg76
(lp1932
g69
(g90
g71
NtRp1933
(dp1934
g74
(dp1935
g94
g95
ssg83
g1929
sg76
(lp1936
S'wsgi_multiprocess'
p1937
asbag69
(g90
g71
NtRp1938
(dp1939
g74
(dp1940
g101
g102
ssg83
g1929
sg76
(lp1941
S':'
asbag69
(g90
g71
NtRp1942
(dp1943
g74
(dp1944
sg83
g1929
sg76
(lp1945
g69
(g70
g71
NtRp1946
(dp1947
g74
(dp1948
g82
I4
ssg83
g1942
sg76
(lp1949
g112
asbasbasbag69
(g85
g71
NtRp1950
(dp1951
g74
(dp1952
sg83
g1045
sg76
(lp1953
g69
(g90
g71
NtRp1954
(dp1955
g74
(dp1956
g94
g95
ssg83
g1950
sg76
(lp1957
S'wsgi_multithread'
p1958
asbag69
(g90
g71
NtRp1959
(dp1960
g74
(dp1961
g101
g102
ssg83
g1950
sg76
(lp1962
S':'
asbag69
(g90
g71
NtRp1963
(dp1964
g74
(dp1965
sg83
g1950
sg76
(lp1966
g69
(g70
g71
NtRp1967
(dp1968
g74
(dp1969
g82
I4
ssg83
g1963
sg76
(lp1970
S'True'
p1971
asbasbasbag69
(g85
g71
NtRp1972
(dp1973
g74
(dp1974
sg83
g1045
sg76
(lp1975
g69
(g90
g71
NtRp1976
(dp1977
g74
(dp1978
g94
g95
ssg83
g1972
sg76
(lp1979
S'wsgi_run_once'
p1980
asbag69
(g90
g71
NtRp1981
(dp1982
g74
(dp1983
g101
g102
ssg83
g1972
sg76
(lp1984
S':'
asbag69
(g90
g71
NtRp1985
(dp1986
g74
(dp1987
sg83
g1972
sg76
(lp1988
g69
(g70
g71
NtRp1989
(dp1990
g74
(dp1991
g82
I4
ssg83
g1985
sg76
(lp1992
g112
asbasbasbag69
(g85
g71
NtRp1993
(dp1994
g74
(dp1995
sg83
g1045
sg76
(lp1996
g69
(g90
g71
NtRp1997
(dp1998
g74
(dp1999
g94
g95
ssg83
g1993
sg76
(lp2000
S'wsgi_url_scheme'
p2001
asbag69
(g90
g71
NtRp2002
(dp2003
g74
(dp2004
g101
g102
ssg83
g1993
sg76
(lp2005
S':'
asbag69
(g90
g71
NtRp2006
(dp2007
g74
(dp2008
sg83
g1993
sg76
(lp2009
g69
(g70
g71
NtRp2010
(dp2011
g74
(dp2012
g82
I4
ssg83
g2006
sg76
(lp2013
S'http'
p2014
asbasbasbag69
(g85
g71
NtRp2015
(dp2016
g74
(dp2017
sg83
g1045
sg76
(lp2018
g69
(g90
g71
NtRp2019
(dp2020
g74
(dp2021
g94
g95
ssg83
g2015
sg76
(lp2022
S'wsgi_version'
p2023
asbag69
(g90
g71
NtRp2024
(dp2025
g74
(dp2026
g101
g102
ssg83
g2015
sg76
(lp2027
S':'
asbag69
(g90
g71
NtRp2028
(dp2029
g74
(dp2030
sg83
g2015
sg76
(lp2031
g69
(g70
g71
NtRp2032
(dp2033
g74
(dp2034
g82
I4
ssg83
g2028
sg76
(lp2035
g69
(g78
g71
NtRp2036
(dp2037
g74
(dp2038
g82
I3
ssg83
Nsg76
(lp2039
g69
(g85
g71
NtRp2040
(dp2041
g74
(dp2042
sg83
g2036
sg76
(lp2043
g69
(g90
g71
NtRp2044
(dp2045
g74
(dp2046
sg83
g2040
sg76
(lp2047
g69
(g70
g71
NtRp2048
(dp2049
g74
(dp2050
g82
I3
ssg83
g2044
sg76
(lp2051
S'1'
asbasbasbag69
(g85
g71
NtRp2052
(dp2053
g74
(dp2054
sg83
g2036
sg76
(lp2055
g69
(g90
g71
NtRp2056
(dp2057
g74
(dp2058
sg83
g2052
sg76
(lp2059
g69
(g70
g71
NtRp2060
(dp2061
g74
(dp2062
g82
I3
ssg83
g2056
sg76
(lp2063
S'0'
asbasbasbasbasbasbasbasbasbasbasbag69
(g85
g71
NtRp2064
(dp2065
g74
(dp2066
sg83
g79
sg76
(lp2067
g69
(g90
g71
NtRp2068
(dp2069
g74
(dp2070
g94
g95
ssg83
g2064
sg76
(lp2071
S'extension'
p2072
asbag69
(g90
g71
NtRp2073
(dp2074
g74
(dp2075
g101
g102
ssg83
g2064
sg76
(lp2076
S':'
asbag69
(g90
g71
NtRp2077
(dp2078
g74
(dp2079
sg83
g2064
sg76
(lp2080
g69
(g70
g71
NtRp2081
(dp2082
g74
(dp2083
g82
I5
ssg83
g2077
sg76
(lp2084
S'html'
p2085
asbasbasbag69
(g85
g71
NtRp2086
(dp2087
g74
(dp2088
sg83
g79
sg76
(lp2089
g69
(g90
g71
NtRp2090
(dp2091
g74
(dp2092
g94
g95
ssg83
g2086
sg76
(lp2093
S'folder'
p2094
asbag69
(g90
g71
NtRp2095
(dp2096
g74
(dp2097
g101
g102
ssg83
g2086
sg76
(lp2098
S':'
asbag69
(g90
g71
NtRp2099
(dp2100
g74
(dp2101
sg83
g2086
sg76
(lp2102
g69
(g70
g71
NtRp2103
(dp2104
g74
(dp2105
g82
I5
ssg83
g2099
sg76
(lp2106
S'/home/shipra/Desktop/Semester 1.2/ITWS-2/web2py/applications/shipra/'
p2107
asbasbasbag69
(g85
g71
NtRp2108
(dp2109
g74
(dp2110
sg83
g79
sg76
(lp2111
g69
(g90
g71
NtRp2112
(dp2113
g74
(dp2114
g94
g95
ssg83
g2108
sg76
(lp2115
S'function'
p2116
asbag69
(g90
g71
NtRp2117
(dp2118
g74
(dp2119
g101
g102
ssg83
g2108
sg76
(lp2120
S':'
asbag69
(g90
g71
NtRp2121
(dp2122
g74
(dp2123
sg83
g2108
sg76
(lp2124
g69
(g70
g71
NtRp2125
(dp2126
g74
(dp2127
g82
I5
ssg83
g2121
sg76
(lp2128
S'resume_search'
p2129
asbasbasbag69
(g85
g71
NtRp2130
(dp2131
g74
(dp2132
sg83
g79
sg76
(lp2133
g69
(g90
g71
NtRp2134
(dp2135
g74
(dp2136
g94
g95
ssg83
g2130
sg76
(lp2137
S'get_vars'
p2138
asbag69
(g90
g71
NtRp2139
(dp2140
g74
(dp2141
g101
g102
ssg83
g2130
sg76
(lp2142
S':'
asbag69
(g90
g71
NtRp2143
(dp2144
g74
(dp2145
sg83
g2130
sg76
(lp2146
g69
(g70
g71
NtRp2147
(dp2148
g74
(dp2149
g82
I5
ssg83
g2143
sg76
(lp2150
g69
(g78
g71
NtRp2151
(dp2152
g74
(dp2153
g82
I4
ssg83
Nsg76
(lp2154
sbasbasbasbag69
(g85
g71
NtRp2155
(dp2156
g74
(dp2157
sg83
g79
sg76
(lp2158
g69
(g90
g71
NtRp2159
(dp2160
g74
(dp2161
g94
g95
ssg83
g2155
sg76
(lp2162
S'global_settings'
p2163
asbag69
(g90
g71
NtRp2164
(dp2165
g74
(dp2166
g101
g102
ssg83
g2155
sg76
(lp2167
S':'
asbag69
(g90
g71
NtRp2168
(dp2169
g74
(dp2170
sg83
g2155
sg76
(lp2171
g69
(g70
g71
NtRp2172
(dp2173
g74
(dp2174
g82
I5
ssg83
g2168
sg76
(lp2175
g69
(g78
g71
NtRp2176
(dp2177
g74
(dp2178
g82
I4
ssg83
Nsg76
(lp2179
g69
(g85
g71
NtRp2180
(dp2181
g74
(dp2182
sg83
g2176
sg76
(lp2183
g69
(g90
g71
NtRp2184
(dp2185
g74
(dp2186
g94
g95
ssg83
g2180
sg76
(lp2187
g1057
asbag69
(g90
g71
NtRp2188
(dp2189
g74
(dp2190
g101
g102
ssg83
g2180
sg76
(lp2191
S':'
asbag69
(g90
g71
NtRp2192
(dp2193
g74
(dp2194
sg83
g2180
sg76
(lp2195
g69
(g70
g71
NtRp2196
(dp2197
g74
(dp2198
g82
I4
ssg83
g2192
sg76
(lp2199
S"set(['/home/shipra/Desktop/Semester 1.2/ITWS-2/web2py/applications/shipra/', '/home/shipra/Desktop/Semester 1.2/ITWS-2/web2py/applications/welcome/', '/home/shipra/Desktop/Semester 1.2/ITWS-2/web2py/applications/admin/'])"
p2200
asbasbasbag69
(g85
g71
NtRp2201
(dp2202
g74
(dp2203
sg83
g2176
sg76
(lp2204
g69
(g90
g71
NtRp2205
(dp2206
g74
(dp2207
g94
g95
ssg83
g2201
sg76
(lp2208
g1079
asbag69
(g90
g71
NtRp2209
(dp2210
g74
(dp2211
g101
g102
ssg83
g2201
sg76
(lp2212
S':'
asbag69
(g90
g71
NtRp2213
(dp2214
g74
(dp2215
sg83
g2201
sg76
(lp2216
g69
(g70
g71
NtRp2217
(dp2218
g74
(dp2219
g82
I4
ssg83
g2213
sg76
(lp2220
g1092
asbasbasbag69
(g85
g71
NtRp2221
(dp2222
g74
(dp2223
sg83
g2176
sg76
(lp2224
g69
(g90
g71
NtRp2225
(dp2226
g74
(dp2227
g94
g95
ssg83
g2221
sg76
(lp2228
g1101
asbag69
(g90
g71
NtRp2229
(dp2230
g74
(dp2231
g101
g102
ssg83
g2221
sg76
(lp2232
S':'
asbag69
(g90
g71
NtRp2233
(dp2234
g74
(dp2235
sg83
g2221
sg76
(lp2236
g69
(g70
g71
NtRp2237
(dp2238
g74
(dp2239
g82
I4
ssg83
g2233
sg76
(lp2240
g69
(g78
g71
NtRp2241
(dp2242
g74
(dp2243
g82
I3
ssg83
Nsg76
(lp2244
sbasbasbasbag69
(g85
g71
NtRp2245
(dp2246
g74
(dp2247
sg83
g2176
sg76
(lp2248
g69
(g90
g71
NtRp2249
(dp2250
g74
(dp2251
g94
g95
ssg83
g2245
sg76
(lp2252
g1126
asbag69
(g90
g71
NtRp2253
(dp2254
g74
(dp2255
g101
g102
ssg83
g2245
sg76
(lp2256
S':'
asbag69
(g90
g71
NtRp2257
(dp2258
g74
(dp2259
sg83
g2245
sg76
(lp2260
g69
(g70
g71
NtRp2261
(dp2262
g74
(dp2263
g82
I4
ssg83
g2257
sg76
(lp2264
S"<Values at 0x27ad248: {'verbose': False, 'ip': '127.0.0.1', 'with_scheduler': False, 'ips': ['192.168.122.1', 'fe80::8a53:2eff:fe7d:9d6c%wlan0', '10.42.0.99'], 'shutdown_timeout': 5, 'taskbar': False, 'port': 8000, 'maxthreads': None, 'softcron': False, 'server_name': 'shipra', 'bpython': False, 'nogui': False, 'pid_filename': 'httpserver.pid', 'extcron': False, 'runcron': False, 'run_system_tests': False, 'test': None, 'folder': '/home/shipra/Desktop/Semester 1.2/ITWS-2/web2py', 'config': '', 'minthreads': None, 'winservice': '', 'shell': None, 'run': '', 'log_filename': 'httpserver.log', 'debuglevel': 30, 'args': [''], 'socket_timeout': 5, 'ssl_ca_certificate': None, 'scheduler': None, 'profiler_filename': None, 'ssl_private_key': '', 'scheduler_groups': None, 'password': '<ask>', 'request_queue_size': 5, 'ssl_certificate': '', 'cronjob': False, 'numthreads': None, 'quiet': False, 'interfaces': None, 'import_models': False, 'timeout': 10, 'plain': False, 'nobanner': False}>"
p2265
asbasbasbag69
(g85
g71
NtRp2266
(dp2267
g74
(dp2268
sg83
g2176
sg76
(lp2269
g69
(g90
g71
NtRp2270
(dp2271
g74
(dp2272
g94
g95
ssg83
g2266
sg76
(lp2273
g1148
asbag69
(g90
g71
NtRp2274
(dp2275
g74
(dp2276
g101
g102
ssg83
g2266
sg76
(lp2277
S':'
asbag69
(g90
g71
NtRp2278
(dp2279
g74
(dp2280
sg83
g2266
sg76
(lp2281
g69
(g70
g71
NtRp2282
(dp2283
g74
(dp2284
g82
I4
ssg83
g2278
sg76
(lp2285
S'set([])'
p2286
asbasbasbag69
(g85
g71
NtRp2287
(dp2288
g74
(dp2289
sg83
g2176
sg76
(lp2290
g69
(g90
g71
NtRp2291
(dp2292
g74
(dp2293
g94
g95
ssg83
g2287
sg76
(lp2294
g1170
asbag69
(g90
g71
NtRp2295
(dp2296
g74
(dp2297
g101
g102
ssg83
g2287
sg76
(lp2298
S':'
asbag69
(g90
g71
NtRp2299
(dp2300
g74
(dp2301
sg83
g2287
sg76
(lp2302
g69
(g70
g71
NtRp2303
(dp2304
g74
(dp2305
g82
I4
ssg83
g2299
sg76
(lp2306
g112
asbasbasbag69
(g85
g71
NtRp2307
(dp2308
g74
(dp2309
sg83
g2176
sg76
(lp2310
g69
(g90
g71
NtRp2311
(dp2312
g74
(dp2313
g94
g95
ssg83
g2307
sg76
(lp2314
g1191
asbag69
(g90
g71
NtRp2315
(dp2316
g74
(dp2317
g101
g102
ssg83
g2307
sg76
(lp2318
S':'
asbag69
(g90
g71
NtRp2319
(dp2320
g74
(dp2321
sg83
g2307
sg76
(lp2322
g69
(g70
g71
NtRp2323
(dp2324
g74
(dp2325
g82
I4
ssg83
g2319
sg76
(lp2326
g1204
asbasbasbag69
(g85
g71
NtRp2327
(dp2328
g74
(dp2329
sg83
g2176
sg76
(lp2330
g69
(g90
g71
NtRp2331
(dp2332
g74
(dp2333
g94
g95
ssg83
g2327
sg76
(lp2334
g1367
asbag69
(g90
g71
NtRp2335
(dp2336
g74
(dp2337
g101
g102
ssg83
g2327
sg76
(lp2338
S':'
asbag69
(g90
g71
NtRp2339
(dp2340
g74
(dp2341
sg83
g2327
sg76
(lp2342
g69
(g70
g71
NtRp2343
(dp2344
g74
(dp2345
g82
I4
ssg83
g2339
sg76
(lp2346
g112
asbasbasbag69
(g85
g71
NtRp2347
(dp2348
g74
(dp2349
sg83
g2176
sg76
(lp2350
g69
(g90
g71
NtRp2351
(dp2352
g74
(dp2353
g94
g95
ssg83
g2347
sg76
(lp2354
g1388
asbag69
(g90
g71
NtRp2355
(dp2356
g74
(dp2357
g101
g102
ssg83
g2347
sg76
(lp2358
S':'
asbag69
(g90
g71
NtRp2359
(dp2360
g74
(dp2361
sg83
g2347
sg76
(lp2362
g69
(g70
g71
NtRp2363
(dp2364
g74
(dp2365
g82
I4
ssg83
g2359
sg76
(lp2366
g112
asbasbasbag69
(g85
g71
NtRp2367
(dp2368
g74
(dp2369
sg83
g2176
sg76
(lp2370
g69
(g90
g71
NtRp2371
(dp2372
g74
(dp2373
g94
g95
ssg83
g2367
sg76
(lp2374
g1409
asbag69
(g90
g71
NtRp2375
(dp2376
g74
(dp2377
g101
g102
ssg83
g2367
sg76
(lp2378
S':'
asbag69
(g90
g71
NtRp2379
(dp2380
g74
(dp2381
sg83
g2367
sg76
(lp2382
g69
(g70
g71
NtRp2383
(dp2384
g74
(dp2385
g82
I4
ssg83
g2379
sg76
(lp2386
g69
(g78
g71
NtRp2387
(dp2388
g74
(dp2389
g82
I3
ssg83
Nsg76
(lp2390
g69
(g85
g71
NtRp2391
(dp2392
g74
(dp2393
sg83
g2387
sg76
(lp2394
g69
(g90
g71
NtRp2395
(dp2396
g74
(dp2397
sg83
g2391
sg76
(lp2398
g69
(g70
g71
NtRp2399
(dp2400
g74
(dp2401
g82
I3
ssg83
g2395
sg76
(lp2402
g1438
asbasbasbag69
(g85
g71
NtRp2403
(dp2404
g74
(dp2405
sg83
g2387
sg76
(lp2406
g69
(g90
g71
NtRp2407
(dp2408
g74
(dp2409
sg83
g2403
sg76
(lp2410
g69
(g70
g71
NtRp2411
(dp2412
g74
(dp2413
g82
I3
ssg83
g2407
sg76
(lp2414
g1451
asbasbasbag69
(g85
g71
NtRp2415
(dp2416
g74
(dp2417
sg83
g2387
sg76
(lp2418
g69
(g90
g71
NtRp2419
(dp2420
g74
(dp2421
sg83
g2415
sg76
(lp2422
g69
(g70
g71
NtRp2423
(dp2424
g74
(dp2425
g82
I3
ssg83
g2419
sg76
(lp2426
g1464
asbasbasbag69
(g85
g71
NtRp2427
(dp2428
g74
(dp2429
sg83
g2387
sg76
(lp2430
g69
(g90
g71
NtRp2431
(dp2432
g74
(dp2433
sg83
g2427
sg76
(lp2434
g69
(g70
g71
NtRp2435
(dp2436
g74
(dp2437
g82
I3
ssg83
g2431
sg76
(lp2438
g1477
asbasbasbag69
(g85
g71
NtRp2439
(dp2440
g74
(dp2441
sg83
g2387
sg76
(lp2442
g69
(g90
g71
NtRp2443
(dp2444
g74
(dp2445
sg83
g2439
sg76
(lp2446
g69
(g70
g71
NtRp2447
(dp2448
g74
(dp2449
g82
I3
ssg83
g2443
sg76
(lp2450
g1490
asbasbasbag69
(g85
g71
NtRp2451
(dp2452
g74
(dp2453
sg83
g2387
sg76
(lp2454
g69
(g90
g71
NtRp2455
(dp2456
g74
(dp2457
sg83
g2451
sg76
(lp2458
g69
(g70
g71
NtRp2459
(dp2460
g74
(dp2461
g82
I3
ssg83
g2455
sg76
(lp2462
g1503
asbasbasbag69
(g85
g71
NtRp2463
(dp2464
g74
(dp2465
sg83
g2387
sg76
(lp2466
g69
(g90
g71
NtRp2467
(dp2468
g74
(dp2469
sg83
g2463
sg76
(lp2470
g69
(g70
g71
NtRp2471
(dp2472
g74
(dp2473
g82
I3
ssg83
g2467
sg76
(lp2474
g1516
asbasbasbasbasbasbasbag69
(g85
g71
NtRp2475
(dp2476
g74
(dp2477
sg83
g2176
sg76
(lp2478
g69
(g90
g71
NtRp2479
(dp2480
g74
(dp2481
g94
g95
ssg83
g2475
sg76
(lp2482
g1784
asbag69
(g90
g71
NtRp2483
(dp2484
g74
(dp2485
g101
g102
ssg83
g2475
sg76
(lp2486
S':'
asbag69
(g90
g71
NtRp2487
(dp2488
g74
(dp2489
sg83
g2475
sg76
(lp2490
g69
(g70
g71
NtRp2491
(dp2492
g74
(dp2493
g82
I4
ssg83
g2487
sg76
(lp2494
g69
(g78
g71
NtRp2495
(dp2496
g74
(dp2497
g82
I3
ssg83
Nsg76
(lp2498
g69
(g85
g71
NtRp2499
(dp2500
g74
(dp2501
sg83
g2495
sg76
(lp2502
g69
(g90
g71
NtRp2503
(dp2504
g74
(dp2505
sg83
g2499
sg76
(lp2506
g69
(g70
g71
NtRp2507
(dp2508
g74
(dp2509
g82
I3
ssg83
g2503
sg76
(lp2510
S'2'
asbasbasbag69
(g85
g71
NtRp2511
(dp2512
g74
(dp2513
sg83
g2495
sg76
(lp2514
g69
(g90
g71
NtRp2515
(dp2516
g74
(dp2517
sg83
g2511
sg76
(lp2518
g69
(g70
g71
NtRp2519
(dp2520
g74
(dp2521
g82
I3
ssg83
g2515
sg76
(lp2522
S'3'
asbasbasbag69
(g85
g71
NtRp2523
(dp2524
g74
(dp2525
sg83
g2495
sg76
(lp2526
g69
(g90
g71
NtRp2527
(dp2528
g74
(dp2529
sg83
g2523
sg76
(lp2530
g69
(g70
g71
NtRp2531
(dp2532
g74
(dp2533
g82
I3
ssg83
g2527
sg76
(lp2534
S'2'
asbasbasbag69
(g85
g71
NtRp2535
(dp2536
g74
(dp2537
sg83
g2495
sg76
(lp2538
g69
(g90
g71
NtRp2539
(dp2540
g74
(dp2541
sg83
g2535
sg76
(lp2542
g69
(g70
g71
NtRp2543
(dp2544
g74
(dp2545
g82
I3
ssg83
g2539
sg76
(lp2546
S'datetime.datetime(2012, 12, 17, 15, 3, 30)'
p2547
asbasbasbag69
(g85
g71
NtRp2548
(dp2549
g74
(dp2550
sg83
g2495
sg76
(lp2551
g69
(g90
g71
NtRp2552
(dp2553
g74
(dp2554
sg83
g2548
sg76
(lp2555
g69
(g70
g71
NtRp2556
(dp2557
g74
(dp2558
g82
I3
ssg83
g2552
sg76
(lp2559
g1862
asbasbasbasbasbasbasbasbasbasbasbag69
(g85
g71
NtRp2560
(dp2561
g74
(dp2562
sg83
g79
sg76
(lp2563
g69
(g90
g71
NtRp2564
(dp2565
g74
(dp2566
g94
g95
ssg83
g2560
sg76
(lp2567
S'is_https'
p2568
asbag69
(g90
g71
NtRp2569
(dp2570
g74
(dp2571
g101
g102
ssg83
g2560
sg76
(lp2572
S':'
asbag69
(g90
g71
NtRp2573
(dp2574
g74
(dp2575
sg83
g2560
sg76
(lp2576
g69
(g70
g71
NtRp2577
(dp2578
g74
(dp2579
g82
I5
ssg83
g2573
sg76
(lp2580
g112
asbasbasbag69
(g85
g71
NtRp2581
(dp2582
g74
(dp2583
sg83
g79
sg76
(lp2584
g69
(g90
g71
NtRp2585
(dp2586
g74
(dp2587
g94
g95
ssg83
g2581
sg76
(lp2588
S'is_local'
p2589
asbag69
(g90
g71
NtRp2590
(dp2591
g74
(dp2592
g101
g102
ssg83
g2581
sg76
(lp2593
S':'
asbag69
(g90
g71
NtRp2594
(dp2595
g74
(dp2596
sg83
g2581
sg76
(lp2597
g69
(g70
g71
NtRp2598
(dp2599
g74
(dp2600
g82
I5
ssg83
g2594
sg76
(lp2601
g1971
asbasbasbag69
(g85
g71
NtRp2602
(dp2603
g74
(dp2604
sg83
g79
sg76
(lp2605
g69
(g90
g71
NtRp2606
(dp2607
g74
(dp2608
g94
g95
ssg83
g2602
sg76
(lp2609
S'is_restful'
p2610
asbag69
(g90
g71
NtRp2611
(dp2612
g74
(dp2613
g101
g102
ssg83
g2602
sg76
(lp2614
S':'
asbag69
(g90
g71
NtRp2615
(dp2616
g74
(dp2617
sg83
g2602
sg76
(lp2618
g69
(g70
g71
NtRp2619
(dp2620
g74
(dp2621
g82
I5
ssg83
g2615
sg76
(lp2622
g112
asbasbasbag69
(g85
g71
NtRp2623
(dp2624
g74
(dp2625
sg83
g79
sg76
(lp2626
g69
(g90
g71
NtRp2627
(dp2628
g74
(dp2629
g94
g95
ssg83
g2623
sg76
(lp2630
S'now'
p2631
asbag69
(g90
g71
NtRp2632
(dp2633
g74
(dp2634
g101
g102
ssg83
g2623
sg76
(lp2635
S':'
asbag69
(g90
g71
NtRp2636
(dp2637
g74
(dp2638
sg83
g2623
sg76
(lp2639
g69
(g70
g71
NtRp2640
(dp2641
g74
(dp2642
g82
I5
ssg83
g2636
sg76
(lp2643
S'datetime.datetime(2013, 4, 14, 15, 18, 23, 607662)'
p2644
asbasbasbag69
(g85
g71
NtRp2645
(dp2646
g74
(dp2647
sg83
g79
sg76
(lp2648
g69
(g90
g71
NtRp2649
(dp2650
g74
(dp2651
g94
g95
ssg83
g2645
sg76
(lp2652
S'post_vars'
p2653
asbag69
(g90
g71
NtRp2654
(dp2655
g74
(dp2656
g101
g102
ssg83
g2645
sg76
(lp2657
S':'
asbag69
(g90
g71
NtRp2658
(dp2659
g74
(dp2660
sg83
g2645
sg76
(lp2661
g69
(g70
g71
NtRp2662
(dp2663
g74
(dp2664
g82
I5
ssg83
g2658
sg76
(lp2665
g69
(g78
g71
NtRp2666
(dp2667
g74
(dp2668
g82
I4
ssg83
Nsg76
(lp2669
sbasbasbasbag69
(g85
g71
NtRp2670
(dp2671
g74
(dp2672
sg83
g79
sg76
(lp2673
g69
(g90
g71
NtRp2674
(dp2675
g74
(dp2676
g94
g95
ssg83
g2670
sg76
(lp2677
S'raw_args'
p2678
asbag69
(g90
g71
NtRp2679
(dp2680
g74
(dp2681
g101
g102
ssg83
g2670
sg76
(lp2682
S':'
asbag69
(g90
g71
NtRp2683
(dp2684
g74
(dp2685
sg83
g2670
sg76
(lp2686
g69
(g70
g71
NtRp2687
(dp2688
g74
(dp2689
g82
I5
ssg83
g2683
sg76
(lp2690
S''
asbasbasbag69
(g85
g71
NtRp2691
(dp2692
g74
(dp2693
sg83
g79
sg76
(lp2694
g69
(g90
g71
NtRp2695
(dp2696
g74
(dp2697
g94
g95
ssg83
g2691
sg76
(lp2698
S'raw_extension'
p2699
asbag69
(g90
g71
NtRp2700
(dp2701
g74
(dp2702
g101
g102
ssg83
g2691
sg76
(lp2703
S':'
asbag69
(g90
g71
NtRp2704
(dp2705
g74
(dp2706
sg83
g2691
sg76
(lp2707
g69
(g70
g71
NtRp2708
(dp2709
g74
(dp2710
g82
I5
ssg83
g2704
sg76
(lp2711
S'None'
p2712
asbasbasbag69
(g85
g71
NtRp2713
(dp2714
g74
(dp2715
sg83
g79
sg76
(lp2716
g69
(g90
g71
NtRp2717
(dp2718
g74
(dp2719
g94
g95
ssg83
g2713
sg76
(lp2720
S'url'
p2721
asbag69
(g90
g71
NtRp2722
(dp2723
g74
(dp2724
g101
g102
ssg83
g2713
sg76
(lp2725
S':'
asbag69
(g90
g71
NtRp2726
(dp2727
g74
(dp2728
sg83
g2713
sg76
(lp2729
g69
(g70
g71
NtRp2730
(dp2731
g74
(dp2732
g82
I5
ssg83
g2726
sg76
(lp2733
g1538
asbasbasbag69
(g85
g71
NtRp2734
(dp2735
g74
(dp2736
sg83
g79
sg76
(lp2737
g69
(g90
g71
NtRp2738
(dp2739
g74
(dp2740
g94
g95
ssg83
g2734
sg76
(lp2741
S'utcnow'
p2742
asbag69
(g90
g71
NtRp2743
(dp2744
g74
(dp2745
g101
g102
ssg83
g2734
sg76
(lp2746
S':'
asbag69
(g90
g71
NtRp2747
(dp2748
g74
(dp2749
sg83
g2734
sg76
(lp2750
g69
(g70
g71
NtRp2751
(dp2752
g74
(dp2753
g82
I5
ssg83
g2747
sg76
(lp2754
S'datetime.datetime(2013, 4, 14, 9, 48, 23, 607698)'
p2755
asbasbasbag69
(g85
g71
NtRp2756
(dp2757
g74
(dp2758
sg83
g79
sg76
(lp2759
g69
(g90
g71
NtRp2760
(dp2761
g74
(dp2762
g94
g95
ssg83
g2756
sg76
(lp2763
S'uuid'
p2764
asbag69
(g90
g71
NtRp2765
(dp2766
g74
(dp2767
g101
g102
ssg83
g2756
sg76
(lp2768
S':'
asbag69
(g90
g71
NtRp2769
(dp2770
g74
(dp2771
sg83
g2756
sg76
(lp2772
g69
(g70
g71
NtRp2773
(dp2774
g74
(dp2775
g82
I5
ssg83
g2769
sg76
(lp2776
S'shipra/127.0.0.1.2013-04-14.15-18-23.2cdadf10-b237-4f9a-abc5-70055af68e9f'
p2777
asbasbasbag69
(g85
g71
NtRp2778
(dp2779
g74
(dp2780
sg83
g79
sg76
(lp2781
g69
(g90
g71
NtRp2782
(dp2783
g74
(dp2784
g94
g95
ssg83
g2778
sg76
(lp2785
S'vars'
p2786
asbag69
(g90
g71
NtRp2787
(dp2788
g74
(dp2789
g101
g102
ssg83
g2778
sg76
(lp2790
S':'
asbag69
(g90
g71
NtRp2791
(dp2792
g74
(dp2793
sg83
g2778
sg76
(lp2794
g69
(g70
g71
NtRp2795
(dp2796
g74
(dp2797
g82
I5
ssg83
g2791
sg76
(lp2798
g69
(g78
g71
NtRp2799
(dp2800
g74
(dp2801
g82
I4
ssg83
Nsg76
(lp2802
sbasbasbasbag69
(g85
g71
NtRp2803
(dp2804
g74
(dp2805
sg83
g79
sg76
(lp2806
g69
(g90
g71
NtRp2807
(dp2808
g74
(dp2809
g94
g95
ssg83
g2803
sg76
(lp2810
S'wsgi'
p2811
asbag69
(g90
g71
NtRp2812
(dp2813
g74
(dp2814
g101
g102
ssg83
g2803
sg76
(lp2815
S':'
asbag69
(g90
g71
NtRp2816
(dp2817
g74
(dp2818
sg83
g2803
sg76
(lp2819
g69
(g70
g71
NtRp2820
(dp2821
g74
(dp2822
g82
I5
ssg83
g2816
sg76
(lp2823
g69
(g78
g71
NtRp2824
(dp2825
g74
(dp2826
g82
I4
ssg83
Nsg76
(lp2827
g69
(g85
g71
NtRp2828
(dp2829
g74
(dp2830
sg83
g2824
sg76
(lp2831
g69
(g90
g71
NtRp2832
(dp2833
g74
(dp2834
g94
g95
ssg83
g2828
sg76
(lp2835
S'environ'
p2836
asbag69
(g90
g71
NtRp2837
(dp2838
g74
(dp2839
g101
g102
ssg83
g2828
sg76
(lp2840
S':'
asbag69
(g90
g71
NtRp2841
(dp2842
g74
(dp2843
sg83
g2828
sg76
(lp2844
g69
(g70
g71
NtRp2845
(dp2846
g74
(dp2847
g82
I4
ssg83
g2841
sg76
(lp2848
g69
(g78
g71
NtRp2849
(dp2850
g74
(dp2851
g82
I3
ssg83
Nsg76
(lp2852
g69
(g85
g71
NtRp2853
(dp2854
g74
(dp2855
sg83
g2849
sg76
(lp2856
g69
(g90
g71
NtRp2857
(dp2858
g74
(dp2859
g94
g95
ssg83
g2853
sg76
(lp2860
S'HTTP_ACCEPT'
p2861
asbag69
(g90
g71
NtRp2862
(dp2863
g74
(dp2864
g101
g102
ssg83
g2853
sg76
(lp2865
S':'
asbag69
(g90
g71
NtRp2866
(dp2867
g74
(dp2868
sg83
g2853
sg76
(lp2869
g69
(g70
g71
NtRp2870
(dp2871
g74
(dp2872
g82
I3
ssg83
g2866
sg76
(lp2873
g1226
asbasbasbag69
(g85
g71
NtRp2874
(dp2875
g74
(dp2876
sg83
g2849
sg76
(lp2877
g69
(g90
g71
NtRp2878
(dp2879
g74
(dp2880
g94
g95
ssg83
g2874
sg76
(lp2881
S'HTTP_ACCEPT_ENCODING'
p2882
asbag69
(g90
g71
NtRp2883
(dp2884
g74
(dp2885
g101
g102
ssg83
g2874
sg76
(lp2886
S':'
asbag69
(g90
g71
NtRp2887
(dp2888
g74
(dp2889
sg83
g2874
sg76
(lp2890
g69
(g70
g71
NtRp2891
(dp2892
g74
(dp2893
g82
I3
ssg83
g2887
sg76
(lp2894
g1248
asbasbasbag69
(g85
g71
NtRp2895
(dp2896
g74
(dp2897
sg83
g2849
sg76
(lp2898
g69
(g90
g71
NtRp2899
(dp2900
g74
(dp2901
g94
g95
ssg83
g2895
sg76
(lp2902
S'HTTP_ACCEPT_LANGUAGE'
p2903
asbag69
(g90
g71
NtRp2904
(dp2905
g74
(dp2906
g101
g102
ssg83
g2895
sg76
(lp2907
S':'
asbag69
(g90
g71
NtRp2908
(dp2909
g74
(dp2910
sg83
g2895
sg76
(lp2911
g69
(g70
g71
NtRp2912
(dp2913
g74
(dp2914
g82
I3
ssg83
g2908
sg76
(lp2915
g1270
asbasbasbag69
(g85
g71
NtRp2916
(dp2917
g74
(dp2918
sg83
g2849
sg76
(lp2919
g69
(g90
g71
NtRp2920
(dp2921
g74
(dp2922
g94
g95
ssg83
g2916
sg76
(lp2923
S'HTTP_CONNECTION'
p2924
asbag69
(g90
g71
NtRp2925
(dp2926
g74
(dp2927
g101
g102
ssg83
g2916
sg76
(lp2928
S':'
asbag69
(g90
g71
NtRp2929
(dp2930
g74
(dp2931
sg83
g2916
sg76
(lp2932
g69
(g70
g71
NtRp2933
(dp2934
g74
(dp2935
g82
I3
ssg83
g2929
sg76
(lp2936
g1292
asbasbasbag69
(g85
g71
NtRp2937
(dp2938
g74
(dp2939
sg83
g2849
sg76
(lp2940
g69
(g90
g71
NtRp2941
(dp2942
g74
(dp2943
g94
g95
ssg83
g2937
sg76
(lp2944
S'HTTP_COOKIE'
p2945
asbag69
(g90
g71
NtRp2946
(dp2947
g74
(dp2948
g101
g102
ssg83
g2937
sg76
(lp2949
S':'
asbag69
(g90
g71
NtRp2950
(dp2951
g74
(dp2952
sg83
g2937
sg76
(lp2953
g69
(g70
g71
NtRp2954
(dp2955
g74
(dp2956
g82
I3
ssg83
g2950
sg76
(lp2957
g1314
asbasbasbag69
(g85
g71
NtRp2958
(dp2959
g74
(dp2960
sg83
g2849
sg76
(lp2961
g69
(g90
g71
NtRp2962
(dp2963
g74
(dp2964
g94
g95
ssg83
g2958
sg76
(lp2965
S'HTTP_HOST'
p2966
asbag69
(g90
g71
NtRp2967
(dp2968
g74
(dp2969
g101
g102
ssg83
g2958
sg76
(lp2970
S':'
asbag69
(g90
g71
NtRp2971
(dp2972
g74
(dp2973
sg83
g2958
sg76
(lp2974
g69
(g70
g71
NtRp2975
(dp2976
g74
(dp2977
g82
I3
ssg83
g2971
sg76
(lp2978
g1336
asbasbasbag69
(g85
g71
NtRp2979
(dp2980
g74
(dp2981
sg83
g2849
sg76
(lp2982
g69
(g90
g71
NtRp2983
(dp2984
g74
(dp2985
g94
g95
ssg83
g2979
sg76
(lp2986
S'HTTP_USER_AGENT'
p2987
asbag69
(g90
g71
NtRp2988
(dp2989
g74
(dp2990
g101
g102
ssg83
g2979
sg76
(lp2991
S':'
asbag69
(g90
g71
NtRp2992
(dp2993
g74
(dp2994
sg83
g2979
sg76
(lp2995
g69
(g70
g71
NtRp2996
(dp2997
g74
(dp2998
g82
I3
ssg83
g2992
sg76
(lp2999
g1358
asbasbasbag69
(g85
g71
NtRp3000
(dp3001
g74
(dp3002
sg83
g2849
sg76
(lp3003
g69
(g90
g71
NtRp3004
(dp3005
g74
(dp3006
g94
g95
ssg83
g3000
sg76
(lp3007
S'PATH_INFO'
p3008
asbag69
(g90
g71
NtRp3009
(dp3010
g74
(dp3011
g101
g102
ssg83
g3000
sg76
(lp3012
S':'
asbag69
(g90
g71
NtRp3013
(dp3014
g74
(dp3015
sg83
g3000
sg76
(lp3016
g69
(g70
g71
NtRp3017
(dp3018
g74
(dp3019
g82
I3
ssg83
g3013
sg76
(lp3020
g1538
asbasbasbag69
(g85
g71
NtRp3021
(dp3022
g74
(dp3023
sg83
g2849
sg76
(lp3024
g69
(g90
g71
NtRp3025
(dp3026
g74
(dp3027
g94
g95
ssg83
g3021
sg76
(lp3028
S'QUERY_STRING'
p3029
asbag69
(g90
g71
NtRp3030
(dp3031
g74
(dp3032
g101
g102
ssg83
g3021
sg76
(lp3033
S':'
asbag69
(g90
g71
NtRp3034
(dp3035
g74
(dp3036
sg83
g3021
sg76
(lp3037
g69
(g70
g71
NtRp3038
(dp3039
g74
(dp3040
g82
I3
ssg83
g3034
sg76
(lp3041
S''
asbasbasbag69
(g85
g71
NtRp3042
(dp3043
g74
(dp3044
sg83
g2849
sg76
(lp3045
g69
(g90
g71
NtRp3046
(dp3047
g74
(dp3048
g94
g95
ssg83
g3042
sg76
(lp3049
S'REMOTE_ADDR'
p3050
asbag69
(g90
g71
NtRp3051
(dp3052
g74
(dp3053
g101
g102
ssg83
g3042
sg76
(lp3054
S':'
asbag69
(g90
g71
NtRp3055
(dp3056
g74
(dp3057
sg83
g3042
sg76
(lp3058
g69
(g70
g71
NtRp3059
(dp3060
g74
(dp3061
g82
I3
ssg83
g3055
sg76
(lp3062
g224
asbasbasbag69
(g85
g71
NtRp3063
(dp3064
g74
(dp3065
sg83
g2849
sg76
(lp3066
g69
(g90
g71
NtRp3067
(dp3068
g74
(dp3069
g94
g95
ssg83
g3063
sg76
(lp3070
S'REMOTE_PORT'
p3071
asbag69
(g90
g71
NtRp3072
(dp3073
g74
(dp3074
g101
g102
ssg83
g3063
sg76
(lp3075
S':'
asbag69
(g90
g71
NtRp3076
(dp3077
g74
(dp3078
sg83
g3063
sg76
(lp3079
g69
(g70
g71
NtRp3080
(dp3081
g74
(dp3082
g82
I3
ssg83
g3076
sg76
(lp3083
g1602
asbasbasbag69
(g85
g71
NtRp3084
(dp3085
g74
(dp3086
sg83
g2849
sg76
(lp3087
g69
(g90
g71
NtRp3088
(dp3089
g74
(dp3090
g94
g95
ssg83
g3084
sg76
(lp3091
S'REQUEST_METHOD'
p3092
asbag69
(g90
g71
NtRp3093
(dp3094
g74
(dp3095
g101
g102
ssg83
g3084
sg76
(lp3096
S':'
asbag69
(g90
g71
NtRp3097
(dp3098
g74
(dp3099
sg83
g3084
sg76
(lp3100
g69
(g70
g71
NtRp3101
(dp3102
g74
(dp3103
g82
I3
ssg83
g3097
sg76
(lp3104
g1624
asbasbasbag69
(g85
g71
NtRp3105
(dp3106
g74
(dp3107
sg83
g2849
sg76
(lp3108
g69
(g90
g71
NtRp3109
(dp3110
g74
(dp3111
g94
g95
ssg83
g3105
sg76
(lp3112
S'REQUEST_URI'
p3113
asbag69
(g90
g71
NtRp3114
(dp3115
g74
(dp3116
g101
g102
ssg83
g3105
sg76
(lp3117
S':'
asbag69
(g90
g71
NtRp3118
(dp3119
g74
(dp3120
sg83
g3105
sg76
(lp3121
g69
(g70
g71
NtRp3122
(dp3123
g74
(dp3124
g82
I3
ssg83
g3118
sg76
(lp3125
g1538
asbasbasbag69
(g85
g71
NtRp3126
(dp3127
g74
(dp3128
sg83
g2849
sg76
(lp3129
g69
(g90
g71
NtRp3130
(dp3131
g74
(dp3132
g94
g95
ssg83
g3126
sg76
(lp3133
S'SCRIPT_NAME'
p3134
asbag69
(g90
g71
NtRp3135
(dp3136
g74
(dp3137
g101
g102
ssg83
g3126
sg76
(lp3138
S':'
asbag69
(g90
g71
NtRp3139
(dp3140
g74
(dp3141
sg83
g3126
sg76
(lp3142
g69
(g70
g71
NtRp3143
(dp3144
g74
(dp3145
g82
I3
ssg83
g3139
sg76
(lp3146
S''
asbasbasbag69
(g85
g71
NtRp3147
(dp3148
g74
(dp3149
sg83
g2849
sg76
(lp3150
g69
(g90
g71
NtRp3151
(dp3152
g74
(dp3153
g94
g95
ssg83
g3147
sg76
(lp3154
S'SERVER_NAME'
p3155
asbag69
(g90
g71
NtRp3156
(dp3157
g74
(dp3158
g101
g102
ssg83
g3147
sg76
(lp3159
S':'
asbag69
(g90
g71
NtRp3160
(dp3161
g74
(dp3162
sg83
g3147
sg76
(lp3163
g69
(g70
g71
NtRp3164
(dp3165
g74
(dp3166
g82
I3
ssg83
g3160
sg76
(lp3167
g1688
asbasbasbag69
(g85
g71
NtRp3168
(dp3169
g74
(dp3170
sg83
g2849
sg76
(lp3171
g69
(g90
g71
NtRp3172
(dp3173
g74
(dp3174
g94
g95
ssg83
g3168
sg76
(lp3175
S'SERVER_PORT'
p3176
asbag69
(g90
g71
NtRp3177
(dp3178
g74
(dp3179
g101
g102
ssg83
g3168
sg76
(lp3180
S':'
asbag69
(g90
g71
NtRp3181
(dp3182
g74
(dp3183
sg83
g3168
sg76
(lp3184
g69
(g70
g71
NtRp3185
(dp3186
g74
(dp3187
g82
I3
ssg83
g3181
sg76
(lp3188
g1710
asbasbasbag69
(g85
g71
NtRp3189
(dp3190
g74
(dp3191
sg83
g2849
sg76
(lp3192
g69
(g90
g71
NtRp3193
(dp3194
g74
(dp3195
g94
g95
ssg83
g3189
sg76
(lp3196
S'SERVER_PROTOCOL'
p3197
asbag69
(g90
g71
NtRp3198
(dp3199
g74
(dp3200
g101
g102
ssg83
g3189
sg76
(lp3201
S':'
asbag69
(g90
g71
NtRp3202
(dp3203
g74
(dp3204
sg83
g3189
sg76
(lp3205
g69
(g70
g71
NtRp3206
(dp3207
g74
(dp3208
g82
I3
ssg83
g3202
sg76
(lp3209
g1732
asbasbasbag69
(g85
g71
NtRp3210
(dp3211
g74
(dp3212
sg83
g2849
sg76
(lp3213
g69
(g90
g71
NtRp3214
(dp3215
g74
(dp3216
g94
g95
ssg83
g3210
sg76
(lp3217
S'SERVER_SOFTWARE'
p3218
asbag69
(g90
g71
NtRp3219
(dp3220
g74
(dp3221
g101
g102
ssg83
g3210
sg76
(lp3222
S':'
asbag69
(g90
g71
NtRp3223
(dp3224
g74
(dp3225
sg83
g3210
sg76
(lp3226
g69
(g70
g71
NtRp3227
(dp3228
g74
(dp3229
g82
I3
ssg83
g3223
sg76
(lp3230
g1754
asbasbasbag69
(g85
g71
NtRp3231
(dp3232
g74
(dp3233
sg83
g2849
sg76
(lp3234
g69
(g90
g71
NtRp3235
(dp3236
g74
(dp3237
g94
g95
ssg83
g3231
sg76
(lp3238
S'wsgi.errors'
p3239
asbag69
(g90
g71
NtRp3240
(dp3241
g74
(dp3242
g101
g102
ssg83
g3231
sg76
(lp3243
S':'
asbag69
(g90
g71
NtRp3244
(dp3245
g74
(dp3246
sg83
g3231
sg76
(lp3247
g69
(g70
g71
NtRp3248
(dp3249
g74
(dp3250
g82
I3
ssg83
g3244
sg76
(lp3251
S"<open file '<stderr>', mode 'w' at 0x7ffcdb781270>"
p3252
asbasbasbag69
(g85
g71
NtRp3253
(dp3254
g74
(dp3255
sg83
g2849
sg76
(lp3256
g69
(g90
g71
NtRp3257
(dp3258
g74
(dp3259
g94
g95
ssg83
g3253
sg76
(lp3260
S'wsgi.file_wrapper'
p3261
asbag69
(g90
g71
NtRp3262
(dp3263
g74
(dp3264
g101
g102
ssg83
g3253
sg76
(lp3265
S':'
asbag69
(g90
g71
NtRp3266
(dp3267
g74
(dp3268
sg83
g3253
sg76
(lp3269
g69
(g70
g71
NtRp3270
(dp3271
g74
(dp3272
g82
I3
ssg83
g3266
sg76
(lp3273
S'<class wsgiref.util.FileWrapper at 0x2736db8>'
p3274
asbasbasbag69
(g85
g71
NtRp3275
(dp3276
g74
(dp3277
sg83
g2849
sg76
(lp3278
g69
(g90
g71
NtRp3279
(dp3280
g74
(dp3281
g94
g95
ssg83
g3275
sg76
(lp3282
S'wsgi.input'
p3283
asbag69
(g90
g71
NtRp3284
(dp3285
g74
(dp3286
g101
g102
ssg83
g3275
sg76
(lp3287
S':'
asbag69
(g90
g71
NtRp3288
(dp3289
g74
(dp3290
sg83
g3275
sg76
(lp3291
g69
(g70
g71
NtRp3292
(dp3293
g74
(dp3294
g82
I3
ssg83
g3288
sg76
(lp3295
S'<cStringIO.StringO object at 0x7ffc9c0d8308>'
p3296
asbasbasbag69
(g85
g71
NtRp3297
(dp3298
g74
(dp3299
sg83
g2849
sg76
(lp3300
g69
(g90
g71
NtRp3301
(dp3302
g74
(dp3303
g94
g95
ssg83
g3297
sg76
(lp3304
S'wsgi.multiprocess'
p3305
asbag69
(g90
g71
NtRp3306
(dp3307
g74
(dp3308
g101
g102
ssg83
g3297
sg76
(lp3309
S':'
asbag69
(g90
g71
NtRp3310
(dp3311
g74
(dp3312
sg83
g3297
sg76
(lp3313
g69
(g70
g71
NtRp3314
(dp3315
g74
(dp3316
g82
I3
ssg83
g3310
sg76
(lp3317
g112
asbasbasbag69
(g85
g71
NtRp3318
(dp3319
g74
(dp3320
sg83
g2849
sg76
(lp3321
g69
(g90
g71
NtRp3322
(dp3323
g74
(dp3324
g94
g95
ssg83
g3318
sg76
(lp3325
S'wsgi.multithread'
p3326
asbag69
(g90
g71
NtRp3327
(dp3328
g74
(dp3329
g101
g102
ssg83
g3318
sg76
(lp3330
S':'
asbag69
(g90
g71
NtRp3331
(dp3332
g74
(dp3333
sg83
g3318
sg76
(lp3334
g69
(g70
g71
NtRp3335
(dp3336
g74
(dp3337
g82
I3
ssg83
g3331
sg76
(lp3338
g1971
asbasbasbag69
(g85
g71
NtRp3339
(dp3340
g74
(dp3341
sg83
g2849
sg76
(lp3342
g69
(g90
g71
NtRp3343
(dp3344
g74
(dp3345
g94
g95
ssg83
g3339
sg76
(lp3346
S'wsgi.run_once'
p3347
asbag69
(g90
g71
NtRp3348
(dp3349
g74
(dp3350
g101
g102
ssg83
g3339
sg76
(lp3351
S':'
asbag69
(g90
g71
NtRp3352
(dp3353
g74
(dp3354
sg83
g3339
sg76
(lp3355
g69
(g70
g71
NtRp3356
(dp3357
g74
(dp3358
g82
I3
ssg83
g3352
sg76
(lp3359
g112
asbasbasbag69
(g85
g71
NtRp3360
(dp3361
g74
(dp3362
sg83
g2849
sg76
(lp3363
g69
(g90
g71
NtRp3364
(dp3365
g74
(dp3366
g94
g95
ssg83
g3360
sg76
(lp3367
S'wsgi.url_scheme'
p3368
asbag69
(g90
g71
NtRp3369
(dp3370
g74
(dp3371
g101
g102
ssg83
g3360
sg76
(lp3372
S':'
asbag69
(g90
g71
NtRp3373
(dp3374
g74
(dp3375
sg83
g3360
sg76
(lp3376
g69
(g70
g71
NtRp3377
(dp3378
g74
(dp3379
g82
I3
ssg83
g3373
sg76
(lp3380
g2014
asbasbasbag69
(g85
g71
NtRp3381
(dp3382
g74
(dp3383
sg83
g2849
sg76
(lp3384
g69
(g90
g71
NtRp3385
(dp3386
g74
(dp3387
g94
g95
ssg83
g3381
sg76
(lp3388
S'wsgi.version'
p3389
asbag69
(g90
g71
NtRp3390
(dp3391
g74
(dp3392
g101
g102
ssg83
g3381
sg76
(lp3393
S':'
asbag69
(g90
g71
NtRp3394
(dp3395
g74
(dp3396
sg83
g3381
sg76
(lp3397
g69
(g70
g71
NtRp3398
(dp3399
g74
(dp3400
g82
I3
ssg83
g3394
sg76
(lp3401
S'1'
asbasbasbasbasbasbasbasbasbasbasbasbasbsS'frames'
p3402
(lp3403
(dp3404
S'file'
p3405
S'/home/shipra/Desktop/Semester 1.2/ITWS-2/web2py/gluon/restricted.py'
p3406
sS'dump'
p3407
(dp3408
S'code'
p3409
S"'# -*- coding: utf-8 -*-\\n# this file is released ...\\n\\nresponse._vars=response._caller(resume_search)\\n'"
p3410
sS'layer'
p3411
S"'/home/shipra/Desktop/Semester 1.2/ITWS-2/web2py/applications/shipra/controllers/default.py'"
p3412
sS'global compile2'
p3413
S'<function compile2>'
p3414
sS'ccode'
p3415
S'undefined'
p3416
ssS'lnum'
p3417
I211
sS'lines'
p3418
(dp3419
I206
S"    environment['__name__'] = '__restricted__'"
p3420
sI207
S'    try:'
p3421
sI208
S'        if isinstance(code, types.CodeType):'
p3422
sI209
S'            ccode = code'
p3423
sI210
S'        else:'
p3424
sI211
S'            ccode = compile2(code, layer)'
p3425
sI212
S'        exec ccode in environment'
p3426
sI213
S'    except HTTP:'
p3427
sI214
S'        raise'
p3428
sI215
S'    except RestrictedError:'
p3429
ssS'call'
p3430
S"(code='# -*- coding: utf-8 -*-\\n# this file is released ...\\n\\nresponse._vars=response._caller(resume_search)\\n', environment={'A': <class 'gluon.html.A'>, 'Auth': <class 'gluon.tools.Auth'>, 'B': <class 'gluon.html.B'>, 'BEAUTIFY': <class 'gluon.html.BEAUTIFY'>, 'BODY': <class 'gluon.html.BODY'>, 'BR': <class 'gluon.html.BR'>, 'BUTTON': <class 'gluon.html.BUTTON'>, 'CAT': <class 'gluon.html.CAT'>, 'CENTER': <class 'gluon.html.CENTER'>, 'CLEANUP': <class 'gluon.validators.CLEANUP'>, ...}, layer='/home/shipra/Desktop/Semester 1.2/ITWS-2/web2py/applications/shipra/controllers/default.py')"
p3431
sS'func'
p3432
S'restricted'
p3433
sa(dp3434
g3405
S'/home/shipra/Desktop/Semester 1.2/ITWS-2/web2py/gluon/restricted.py'
p3435
sg3407
(dp3436
S'builtincompile'
p3437
S'<built-in function compile>'
p3438
sS'code'
p3439
S"'# -*- coding: utf-8 -*-\\n# this file is released ...\\n\\nresponse._vars=response._caller(resume_search)\\n'"
p3440
sS'code.rstrip'
p3441
S'<built-in method rstrip of str object>'
p3442
sS').replace'
p3443
g3416
sS'layer'
p3444
S"'/home/shipra/Desktop/Semester 1.2/ITWS-2/web2py/applications/shipra/controllers/default.py'"
p3445
ssg3417
I194
sg3418
(dp3446
I192
S"    The +'\\n' is necessary else compile fails when code ends in a comment."
p3447
sI193
S'    """'
p3448
sI194
S"    return compile(code.rstrip().replace('\\r\\n', '\\n') + '\\n', layer, 'exec')"
p3449
sI195
S''
sI196
S''
sI197
S"def restricted(code, environment=None, layer='Unknown'):"
p3450
sI198
S'    """'
p3451
sI189
S''
sI190
S'def compile2(code, layer):'
p3452
sI191
S'    """'
p3453
ssg3430
S"(code='# -*- coding: utf-8 -*-\\n# this file is released ...\\n\\nresponse._vars=response._caller(resume_search)\\n', layer='/home/shipra/Desktop/Semester 1.2/ITWS-2/web2py/applications/shipra/controllers/default.py')"
p3454
sg3432
S'compile2'
p3455
sasS'pyver'
p3456
S'Python 2.7.3: /usr/bin/python'
p3457
sS'session'
p3458
g69
(g70
g71
NtRp3459
(dp3460
g74
(dp3461
sg76
(lp3462
g69
(g78
g71
NtRp3463
(dp3464
g74
(dp3465
g82
I5
ssg83
Nsg76
(lp3466
g69
(g85
g71
NtRp3467
(dp3468
g74
(dp3469
sg83
g3463
sg76
(lp3470
g69
(g90
g71
NtRp3471
(dp3472
g74
(dp3473
g94
g95
ssg83
g3467
sg76
(lp3474
S'last_orderby'
p3475
asbag69
(g90
g71
NtRp3476
(dp3477
g74
(dp3478
g101
g102
ssg83
g3467
sg76
(lp3479
S':'
asbag69
(g90
g71
NtRp3480
(dp3481
g74
(dp3482
sg83
g3467
sg76
(lp3483
g69
(g70
g71
NtRp3484
(dp3485
g74
(dp3486
g82
I5
ssg83
g3480
sg76
(lp3487
S'None'
p3488
asbasbasbag69
(g85
g71
NtRp3489
(dp3490
g74
(dp3491
sg83
g3463
sg76
(lp3492
g69
(g90
g71
NtRp3493
(dp3494
g74
(dp3495
g94
g95
ssg83
g3489
sg76
(lp3496
S'last_query'
p3497
asbag69
(g90
g71
NtRp3498
(dp3499
g74
(dp3500
g101
g102
ssg83
g3489
sg76
(lp3501
S':'
asbag69
(g90
g71
NtRp3502
(dp3503
g74
(dp3504
sg83
g3489
sg76
(lp3505
g69
(g70
g71
NtRp3506
(dp3507
g74
(dp3508
g82
I5
ssg83
g3502
sg76
(lp3509
S'db.auth_user.id>0'
p3510
asbasbasbasbasbsS'etype'
p3511
S"<type 'exceptions.SyntaxError'>"
p3512
sS'date'
p3513
S'Sun Apr 14 15:18:23 2013'
p3514
sS'response'
p3515
g69
(g70
g71
NtRp3516
(dp3517
g74
(dp3518
sg76
(lp3519
g69
(g78
g71
NtRp3520
(dp3521
g74
(dp3522
g82
I5
ssg83
Nsg76
(lp3523
g69
(g85
g71
NtRp3524
(dp3525
g74
(dp3526
sg83
g3520
sg76
(lp3527
g69
(g90
g71
NtRp3528
(dp3529
g74
(dp3530
g94
g95
ssg83
g3524
sg76
(lp3531
g167
asbag69
(g90
g71
NtRp3532
(dp3533
g74
(dp3534
g101
g102
ssg83
g3524
sg76
(lp3535
S':'
asbag69
(g90
g71
NtRp3536
(dp3537
g74
(dp3538
sg83
g3524
sg76
(lp3539
g69
(g70
g71
NtRp3540
(dp3541
g74
(dp3542
g82
I5
ssg83
g3536
sg76
(lp3543
S'<cStringIO.StringO object at 0x7ffc9c0d2b90>'
p3544
asbasbasbag69
(g85
g71
NtRp3545
(dp3546
g74
(dp3547
sg83
g3520
sg76
(lp3548
g69
(g90
g71
NtRp3549
(dp3550
g74
(dp3551
g94
g95
ssg83
g3545
sg76
(lp3552
g255
asbag69
(g90
g71
NtRp3553
(dp3554
g74
(dp3555
g101
g102
ssg83
g3545
sg76
(lp3556
S':'
asbag69
(g90
g71
NtRp3557
(dp3558
g74
(dp3559
sg83
g3545
sg76
(lp3560
g69
(g70
g71
NtRp3561
(dp3562
g74
(dp3563
g82
I5
ssg83
g3557
sg76
(lp3564
g69
(g78
g71
NtRp3565
(dp3566
g74
(dp3567
g82
I4
ssg83
Nsg76
(lp3568
g69
(g85
g71
NtRp3569
(dp3570
g74
(dp3571
sg83
g3565
sg76
(lp3572
g69
(g90
g71
NtRp3573
(dp3574
g74
(dp3575
g94
g95
ssg83
g3569
sg76
(lp3576
S'session_id_shipra'
p3577
asbag69
(g90
g71
NtRp3578
(dp3579
g74
(dp3580
g101
g102
ssg83
g3569
sg76
(lp3581
S':'
asbag69
(g90
g71
NtRp3582
(dp3583
g74
(dp3584
sg83
g3569
sg76
(lp3585
g69
(g70
g71
NtRp3586
(dp3587
g74
(dp3588
g82
I4
ssg83
g3582
sg76
(lp3589
g673
ag69
(g78
g71
NtRp3590
(dp3591
g74
(dp3592
g82
I3
ssg83
Nsg76
(lp3593
g69
(g85
g71
NtRp3594
(dp3595
g74
(dp3596
sg83
g3590
sg76
(lp3597
g69
(g90
g71
NtRp3598
(dp3599
g74
(dp3600
g94
g95
ssg83
g3594
sg76
(lp3601
g306
asbag69
(g90
g71
NtRp3602
(dp3603
g74
(dp3604
g101
g102
ssg83
g3594
sg76
(lp3605
S':'
asbag69
(g90
g71
NtRp3606
(dp3607
g74
(dp3608
sg83
g3594
sg76
(lp3609
g69
(g70
g71
NtRp3610
(dp3611
g74
(dp3612
g82
I3
ssg83
g3606
sg76
(lp3613
S''
asbasbasbag69
(g85
g71
NtRp3614
(dp3615
g74
(dp3616
sg83
g3590
sg76
(lp3617
g69
(g90
g71
NtRp3618
(dp3619
g74
(dp3620
g94
g95
ssg83
g3614
sg76
(lp3621
g327
asbag69
(g90
g71
NtRp3622
(dp3623
g74
(dp3624
g101
g102
ssg83
g3614
sg76
(lp3625
S':'
asbag69
(g90
g71
NtRp3626
(dp3627
g74
(dp3628
sg83
g3614
sg76
(lp3629
g69
(g70
g71
NtRp3630
(dp3631
g74
(dp3632
g82
I3
ssg83
g3626
sg76
(lp3633
S''
asbasbasbag69
(g85
g71
NtRp3634
(dp3635
g74
(dp3636
sg83
g3590
sg76
(lp3637
g69
(g90
g71
NtRp3638
(dp3639
g74
(dp3640
g94
g95
ssg83
g3634
sg76
(lp3641
g348
asbag69
(g90
g71
NtRp3642
(dp3643
g74
(dp3644
g101
g102
ssg83
g3634
sg76
(lp3645
S':'
asbag69
(g90
g71
NtRp3646
(dp3647
g74
(dp3648
sg83
g3634
sg76
(lp3649
g69
(g70
g71
NtRp3650
(dp3651
g74
(dp3652
g82
I3
ssg83
g3646
sg76
(lp3653
S''
asbasbasbag69
(g85
g71
NtRp3654
(dp3655
g74
(dp3656
sg83
g3590
sg76
(lp3657
g69
(g90
g71
NtRp3658
(dp3659
g74
(dp3660
g94
g95
ssg83
g3654
sg76
(lp3661
g369
asbag69
(g90
g71
NtRp3662
(dp3663
g74
(dp3664
g101
g102
ssg83
g3654
sg76
(lp3665
S':'
asbag69
(g90
g71
NtRp3666
(dp3667
g74
(dp3668
sg83
g3654
sg76
(lp3669
g69
(g70
g71
NtRp3670
(dp3671
g74
(dp3672
g82
I3
ssg83
g3666
sg76
(lp3673
S''
asbasbasbag69
(g85
g71
NtRp3674
(dp3675
g74
(dp3676
sg83
g3590
sg76
(lp3677
g69
(g90
g71
NtRp3678
(dp3679
g74
(dp3680
g94
g95
ssg83
g3674
sg76
(lp3681
g390
asbag69
(g90
g71
NtRp3682
(dp3683
g74
(dp3684
g101
g102
ssg83
g3674
sg76
(lp3685
S':'
asbag69
(g90
g71
NtRp3686
(dp3687
g74
(dp3688
sg83
g3674
sg76
(lp3689
g69
(g70
g71
NtRp3690
(dp3691
g74
(dp3692
g82
I3
ssg83
g3686
sg76
(lp3693
S''
asbasbasbag69
(g85
g71
NtRp3694
(dp3695
g74
(dp3696
sg83
g3590
sg76
(lp3697
g69
(g90
g71
NtRp3698
(dp3699
g74
(dp3700
g94
g95
ssg83
g3694
sg76
(lp3701
g411
asbag69
(g90
g71
NtRp3702
(dp3703
g74
(dp3704
g101
g102
ssg83
g3694
sg76
(lp3705
S':'
asbag69
(g90
g71
NtRp3706
(dp3707
g74
(dp3708
sg83
g3694
sg76
(lp3709
g69
(g70
g71
NtRp3710
(dp3711
g74
(dp3712
g82
I3
ssg83
g3706
sg76
(lp3713
S'/'
asbasbasbag69
(g85
g71
NtRp3714
(dp3715
g74
(dp3716
sg83
g3590
sg76
(lp3717
g69
(g90
g71
NtRp3718
(dp3719
g74
(dp3720
g94
g95
ssg83
g3714
sg76
(lp3721
g432
asbag69
(g90
g71
NtRp3722
(dp3723
g74
(dp3724
g101
g102
ssg83
g3714
sg76
(lp3725
S':'
asbag69
(g90
g71
NtRp3726
(dp3727
g74
(dp3728
sg83
g3714
sg76
(lp3729
g69
(g70
g71
NtRp3730
(dp3731
g74
(dp3732
g82
I3
ssg83
g3726
sg76
(lp3733
S''
asbasbasbag69
(g85
g71
NtRp3734
(dp3735
g74
(dp3736
sg83
g3590
sg76
(lp3737
g69
(g90
g71
NtRp3738
(dp3739
g74
(dp3740
g94
g95
ssg83
g3734
sg76
(lp3741
g453
asbag69
(g90
g71
NtRp3742
(dp3743
g74
(dp3744
g101
g102
ssg83
g3734
sg76
(lp3745
S':'
asbag69
(g90
g71
NtRp3746
(dp3747
g74
(dp3748
sg83
g3734
sg76
(lp3749
g69
(g70
g71
NtRp3750
(dp3751
g74
(dp3752
g82
I3
ssg83
g3746
sg76
(lp3753
S''
asbasbasbasbasbasbasbasbasbasbasbag69
(g85
g71
NtRp3754
(dp3755
g74
(dp3756
sg83
g3520
sg76
(lp3757
g69
(g90
g71
NtRp3758
(dp3759
g74
(dp3760
g94
g95
ssg83
g3754
sg76
(lp3761
S'delimiters'
p3762
asbag69
(g90
g71
NtRp3763
(dp3764
g74
(dp3765
g101
g102
ssg83
g3754
sg76
(lp3766
S':'
asbag69
(g90
g71
NtRp3767
(dp3768
g74
(dp3769
sg83
g3754
sg76
(lp3770
g69
(g70
g71
NtRp3771
(dp3772
g74
(dp3773
g82
I5
ssg83
g3767
sg76
(lp3774
g69
(g78
g71
NtRp3775
(dp3776
g74
(dp3777
g82
I4
ssg83
Nsg76
(lp3778
g69
(g85
g71
NtRp3779
(dp3780
g74
(dp3781
sg83
g3775
sg76
(lp3782
g69
(g90
g71
NtRp3783
(dp3784
g74
(dp3785
sg83
g3779
sg76
(lp3786
g69
(g70
g71
NtRp3787
(dp3788
g74
(dp3789
g82
I4
ssg83
g3783
sg76
(lp3790
S'{{'
p3791
asbasbasbag69
(g85
g71
NtRp3792
(dp3793
g74
(dp3794
sg83
g3775
sg76
(lp3795
g69
(g90
g71
NtRp3796
(dp3797
g74
(dp3798
sg83
g3792
sg76
(lp3799
g69
(g70
g71
NtRp3800
(dp3801
g74
(dp3802
g82
I4
ssg83
g3796
sg76
(lp3803
S'}}'
p3804
asbasbasbasbasbasbasbag69
(g85
g71
NtRp3805
(dp3806
g74
(dp3807
sg83
g3520
sg76
(lp3808
g69
(g90
g71
NtRp3809
(dp3810
g74
(dp3811
g94
g95
ssg83
g3805
sg76
(lp3812
S'files'
p3813
asbag69
(g90
g71
NtRp3814
(dp3815
g74
(dp3816
g101
g102
ssg83
g3805
sg76
(lp3817
S':'
asbag69
(g90
g71
NtRp3818
(dp3819
g74
(dp3820
sg83
g3805
sg76
(lp3821
g69
(g70
g71
NtRp3822
(dp3823
g74
(dp3824
g82
I5
ssg83
g3818
sg76
(lp3825
g69
(g78
g71
NtRp3826
(dp3827
g74
(dp3828
g82
I4
ssg83
Nsg76
(lp3829
sbasbasbasbag69
(g85
g71
NtRp3830
(dp3831
g74
(dp3832
sg83
g3520
sg76
(lp3833
g69
(g90
g71
NtRp3834
(dp3835
g74
(dp3836
g94
g95
ssg83
g3830
sg76
(lp3837
S'flash'
p3838
asbag69
(g90
g71
NtRp3839
(dp3840
g74
(dp3841
g101
g102
ssg83
g3830
sg76
(lp3842
S':'
asbag69
(g90
g71
NtRp3843
(dp3844
g74
(dp3845
sg83
g3830
sg76
(lp3846
g69
(g70
g71
NtRp3847
(dp3848
g74
(dp3849
g82
I5
ssg83
g3843
sg76
(lp3850
S''
asbasbasbag69
(g85
g71
NtRp3851
(dp3852
g74
(dp3853
sg83
g3520
sg76
(lp3854
g69
(g90
g71
NtRp3855
(dp3856
g74
(dp3857
g94
g95
ssg83
g3851
sg76
(lp3858
S'generic_patterns'
p3859
asbag69
(g90
g71
NtRp3860
(dp3861
g74
(dp3862
g101
g102
ssg83
g3851
sg76
(lp3863
S':'
asbag69
(g90
g71
NtRp3864
(dp3865
g74
(dp3866
sg83
g3851
sg76
(lp3867
g69
(g70
g71
NtRp3868
(dp3869
g74
(dp3870
g82
I5
ssg83
g3864
sg76
(lp3871
g69
(g78
g71
NtRp3872
(dp3873
g74
(dp3874
g82
I4
ssg83
Nsg76
(lp3875
g69
(g85
g71
NtRp3876
(dp3877
g74
(dp3878
sg83
g3872
sg76
(lp3879
g69
(g90
g71
NtRp3880
(dp3881
g74
(dp3882
sg83
g3876
sg76
(lp3883
g69
(g70
g71
NtRp3884
(dp3885
g74
(dp3886
g82
I4
ssg83
g3880
sg76
(lp3887
S'*'
asbasbasbasbasbasbasbag69
(g85
g71
NtRp3888
(dp3889
g74
(dp3890
sg83
g3520
sg76
(lp3891
g69
(g90
g71
NtRp3892
(dp3893
g74
(dp3894
g94
g95
ssg83
g3888
sg76
(lp3895
S'google_analytics_id'
p3896
asbag69
(g90
g71
NtRp3897
(dp3898
g74
(dp3899
g101
g102
ssg83
g3888
sg76
(lp3900
S':'
asbag69
(g90
g71
NtRp3901
(dp3902
g74
(dp3903
sg83
g3888
sg76
(lp3904
g69
(g70
g71
NtRp3905
(dp3906
g74
(dp3907
g82
I5
ssg83
g3901
sg76
(lp3908
S'None'
p3909
asbasbasbag69
(g85
g71
NtRp3910
(dp3911
g74
(dp3912
sg83
g3520
sg76
(lp3913
g69
(g90
g71
NtRp3914
(dp3915
g74
(dp3916
g94
g95
ssg83
g3910
sg76
(lp3917
S'headers'
p3918
asbag69
(g90
g71
NtRp3919
(dp3920
g74
(dp3921
g101
g102
ssg83
g3910
sg76
(lp3922
S':'
asbag69
(g90
g71
NtRp3923
(dp3924
g74
(dp3925
sg83
g3910
sg76
(lp3926
g69
(g70
g71
NtRp3927
(dp3928
g74
(dp3929
g82
I5
ssg83
g3923
sg76
(lp3930
g69
(g78
g71
NtRp3931
(dp3932
g74
(dp3933
g82
I4
ssg83
Nsg76
(lp3934
g69
(g85
g71
NtRp3935
(dp3936
g74
(dp3937
sg83
g3931
sg76
(lp3938
g69
(g90
g71
NtRp3939
(dp3940
g74
(dp3941
g94
g95
ssg83
g3935
sg76
(lp3942
S'X-Powered-By'
p3943
asbag69
(g90
g71
NtRp3944
(dp3945
g74
(dp3946
g101
g102
ssg83
g3935
sg76
(lp3947
S':'
asbag69
(g90
g71
NtRp3948
(dp3949
g74
(dp3950
sg83
g3935
sg76
(lp3951
g69
(g70
g71
NtRp3952
(dp3953
g74
(dp3954
g82
I4
ssg83
g3948
sg76
(lp3955
S'web2py'
p3956
asbasbasbasbasbasbasbag69
(g85
g71
NtRp3957
(dp3958
g74
(dp3959
sg83
g3520
sg76
(lp3960
g69
(g90
g71
NtRp3961
(dp3962
g74
(dp3963
g94
g95
ssg83
g3957
sg76
(lp3964
S'logo'
p3965
asbag69
(g90
g71
NtRp3966
(dp3967
g74
(dp3968
g101
g102
ssg83
g3957
sg76
(lp3969
S':'
asbag69
(g90
g71
NtRp3970
(dp3971
g74
(dp3972
sg83
g3957
sg76
(lp3973
g69
(g70
g71
NtRp3974
(dp3975
g74
(dp3976
g82
I5
ssg83
g3970
sg76
(lp3977
g69
(cgluon.html
A
p3978
g71
NtRp3979
(dp3980
g74
(dp3981
S'_class'
p3982
S'brand'
p3983
sS'_href'
p3984
S'http://www.web2py.com/'
p3985
ssg83
Nsg76
(lp3986
g69
(cgluon.html
B
p3987
g71
NtRp3988
(dp3989
g74
(dp3990
sg83
g3979
sg76
(lp3991
S'web'
p3992
ag69
(cgluon.html
SPAN
p3993
g71
NtRp3994
(dp3995
g74
(dp3996
sg83
g3988
sg76
(lp3997
I2
asbaS'py'
p3998
asbacgluon.html
XML_unpickle
p3999
(S's\r\x00\x00\x00&trade;&nbsp;'
tRp4000
asbasbasbasbag69
(g85
g71
NtRp4001
(dp4002
g74
(dp4003
sg83
g3520
sg76
(lp4004
g69
(g90
g71
NtRp4005
(dp4006
g74
(dp4007
g94
g95
ssg83
g4001
sg76
(lp4008
S'menu'
p4009
asbag69
(g90
g71
NtRp4010
(dp4011
g74
(dp4012
g101
g102
ssg83
g4001
sg76
(lp4013
S':'
asbag69
(g90
g71
NtRp4014
(dp4015
g74
(dp4016
sg83
g4001
sg76
(lp4017
g69
(g70
g71
NtRp4018
(dp4019
g74
(dp4020
g82
I5
ssg83
g4014
sg76
(lp4021
g69
(g78
g71
NtRp4022
(dp4023
g74
(dp4024
g82
I4
ssg83
Nsg76
(lp4025
g69
(g85
g71
NtRp4026
(dp4027
g74
(dp4028
sg83
g4022
sg76
(lp4029
g69
(g90
g71
NtRp4030
(dp4031
g74
(dp4032
sg83
g4026
sg76
(lp4033
g69
(g70
g71
NtRp4034
(dp4035
g74
(dp4036
g82
I4
ssg83
g4030
sg76
(lp4037
g69
(g78
g71
NtRp4038
(dp4039
g74
(dp4040
g82
I3
ssg83
Nsg76
(lp4041
g69
(g85
g71
NtRp4042
(dp4043
g74
(dp4044
sg83
g4038
sg76
(lp4045
g69
(g90
g71
NtRp4046
(dp4047
g74
(dp4048
sg83
g4042
sg76
(lp4049
g69
(g70
g71
NtRp4050
(dp4051
g74
(dp4052
g82
I3
ssg83
g4046
sg76
(lp4053
cgluon.languages
lazyT_unpickle
p4054
(S's\x04\x00\x00\x00Home'
tRp4055
asbasbasbag69
(g85
g71
NtRp4056
(dp4057
g74
(dp4058
sg83
g4038
sg76
(lp4059
g69
(g90
g71
NtRp4060
(dp4061
g74
(dp4062
sg83
g4056
sg76
(lp4063
g69
(g70
g71
NtRp4064
(dp4065
g74
(dp4066
g82
I3
ssg83
g4060
sg76
(lp4067
g112
asbasbasbag69
(g85
g71
NtRp4068
(dp4069
g74
(dp4070
sg83
g4038
sg76
(lp4071
g69
(g90
g71
NtRp4072
(dp4073
g74
(dp4074
sg83
g4068
sg76
(lp4075
g69
(g70
g71
NtRp4076
(dp4077
g74
(dp4078
g82
I3
ssg83
g4072
sg76
(lp4079
S'/shipra/default/index'
p4080
asbasbasbag69
(g85
g71
NtRp4081
(dp4082
g74
(dp4083
sg83
g4038
sg76
(lp4084
g69
(g90
g71
NtRp4085
(dp4086
g74
(dp4087
sg83
g4081
sg76
(lp4088
g69
(g70
g71
NtRp4089
(dp4090
g74
(dp4091
g82
I3
ssg83
g4085
sg76
(lp4092
g69
(g78
g71
NtRp4093
(dp4094
g74
(dp4095
g82
I2
ssg83
Nsg76
(lp4096
sbasbasbasbasbasbasbasbag69
(g85
g71
NtRp4097
(dp4098
g74
(dp4099
sg83
g4022
sg76
(lp4100
g69
(g90
g71
NtRp4101
(dp4102
g74
(dp4103
sg83
g4097
sg76
(lp4104
g69
(g70
g71
NtRp4105
(dp4106
g74
(dp4107
g82
I4
ssg83
g4101
sg76
(lp4108
g69
(g78
g71
NtRp4109
(dp4110
g74
(dp4111
g82
I3
ssg83
Nsg76
(lp4112
g69
(g85
g71
NtRp4113
(dp4114
g74
(dp4115
sg83
g4109
sg76
(lp4116
g69
(g90
g71
NtRp4117
(dp4118
g74
(dp4119
sg83
g4113
sg76
(lp4120
g69
(g70
g71
NtRp4121
(dp4122
g74
(dp4123
g82
I3
ssg83
g4117
sg76
(lp4124
g69
(g3993
g71
NtRp4125
(dp4126
g74
(dp4127
g3982
S'highlighted'
p4128
ssg83
Nsg76
(lp4129
g3956
asbasbasbasbag69
(g85
g71
NtRp4130
(dp4131
g74
(dp4132
sg83
g4109
sg76
(lp4133
g69
(g90
g71
NtRp4134
(dp4135
g74
(dp4136
sg83
g4130
sg76
(lp4137
g69
(g70
g71
NtRp4138
(dp4139
g74
(dp4140
g82
I3
ssg83
g4134
sg76
(lp4141
g112
asbasbasbag69
(g85
g71
NtRp4142
(dp4143
g74
(dp4144
sg83
g4109
sg76
(lp4145
g69
(g90
g71
NtRp4146
(dp4147
g74
(dp4148
sg83
g4142
sg76
(lp4149
g69
(g70
g71
NtRp4150
(dp4151
g74
(dp4152
g82
I3
ssg83
g4146
sg76
(lp4153
S'http://web2py.com'
p4154
asbasbasbag69
(g85
g71
NtRp4155
(dp4156
g74
(dp4157
sg83
g4109
sg76
(lp4158
g69
(g90
g71
NtRp4159
(dp4160
g74
(dp4161
sg83
g4155
sg76
(lp4162
g69
(g70
g71
NtRp4163
(dp4164
g74
(dp4165
g82
I3
ssg83
g4159
sg76
(lp4166
g69
(g78
g71
NtRp4167
(dp4168
g74
(dp4169
g82
I2
ssg83
Nsg76
(lp4170
g69
(g85
g71
NtRp4171
(dp4172
g74
(dp4173
sg83
g4167
sg76
(lp4174
g69
(g90
g71
NtRp4175
(dp4176
g74
(dp4177
sg83
g4171
sg76
(lp4178
g69
(g70
g71
NtRp4179
(dp4180
g74
(dp4181
g82
I2
ssg83
g4175
sg76
(lp4182
g69
(g78
g71
NtRp4183
(dp4184
g74
(dp4185
g82
I1
ssg83
Nsg76
(lp4186
g69
(g85
g71
NtRp4187
(dp4188
g74
(dp4189
sg83
g4183
sg76
(lp4190
g69
(g90
g71
NtRp4191
(dp4192
g74
(dp4193
sg83
g4187
sg76
(lp4194
g69
(g70
g71
NtRp4195
(dp4196
g74
(dp4197
g82
I1
ssg83
g4191
sg76
(lp4198
g4054
(S's\x08\x00\x00\x00My Sites'
tRp4199
asbasbasbag69
(g85
g71
NtRp4200
(dp4201
g74
(dp4202
sg83
g4183
sg76
(lp4203
g69
(g90
g71
NtRp4204
(dp4205
g74
(dp4206
sg83
g4200
sg76
(lp4207
g69
(g70
g71
NtRp4208
(dp4209
g74
(dp4210
g82
I1
ssg83
g4204
sg76
(lp4211
I00
asbasbasbag69
(g85
g71
NtRp4212
(dp4213
g74
(dp4214
sg83
g4183
sg76
(lp4215
g69
(g90
g71
NtRp4216
(dp4217
g74
(dp4218
sg83
g4212
sg76
(lp4219
g69
(g70
g71
NtRp4220
(dp4221
g74
(dp4222
g82
I1
ssg83
g4216
sg76
(lp4223
S'/admin/default/site'
p4224
asbasbasbasbasbasbasbag69
(g85
g71
NtRp4225
(dp4226
g74
(dp4227
sg83
g4167
sg76
(lp4228
g69
(g90
g71
NtRp4229
(dp4230
g74
(dp4231
sg83
g4225
sg76
(lp4232
g69
(g70
g71
NtRp4233
(dp4234
g74
(dp4235
g82
I2
ssg83
g4229
sg76
(lp4236
g69
(g78
g71
NtRp4237
(dp4238
g74
(dp4239
g82
I1
ssg83
Nsg76
(lp4240
g69
(g85
g71
NtRp4241
(dp4242
g74
(dp4243
sg83
g4237
sg76
(lp4244
g69
(g90
g71
NtRp4245
(dp4246
g74
(dp4247
sg83
g4241
sg76
(lp4248
g69
(g70
g71
NtRp4249
(dp4250
g74
(dp4251
g82
I1
ssg83
g4245
sg76
(lp4252
g4054
(S's\x08\x00\x00\x00This App'
tRp4253
asbasbasbag69
(g85
g71
NtRp4254
(dp4255
g74
(dp4256
sg83
g4237
sg76
(lp4257
g69
(g90
g71
NtRp4258
(dp4259
g74
(dp4260
sg83
g4254
sg76
(lp4261
g69
(g70
g71
NtRp4262
(dp4263
g74
(dp4264
g82
I1
ssg83
g4258
sg76
(lp4265
I00
asbasbasbag69
(g85
g71
NtRp4266
(dp4267
g74
(dp4268
sg83
g4237
sg76
(lp4269
g69
(g90
g71
NtRp4270
(dp4271
g74
(dp4272
sg83
g4266
sg76
(lp4273
g69
(g70
g71
NtRp4274
(dp4275
g74
(dp4276
g82
I1
ssg83
g4270
sg76
(lp4277
S'/admin/default/design/shipra'
p4278
asbasbasbag69
(g85
g71
NtRp4279
(dp4280
g74
(dp4281
sg83
g4237
sg76
(lp4282
g69
(g90
g71
NtRp4283
(dp4284
g74
(dp4285
sg83
g4279
sg76
(lp4286
g69
(g70
g71
NtRp4287
(dp4288
g74
(dp4289
g82
I1
ssg83
g4283
sg76
(lp4290
(lp4291
(g4054
(S's\n\x00\x00\x00Controller'
tRp4292
I00
S'/admin/default/edit/shipra/controllers/default.py'
tp4293
a(g4054
(S's\x04\x00\x00\x00View'
tRp4294
I00
S'/admin/default/edit/shipra/views/default/resume_search.html'
tp4295
a(g4054
(S's\x06\x00\x00\x00Layout'
tRp4296
I00
S'/admin/default/edit/shipra/views/layout.html'
tp4297
a(g4054
(S's\n\x00\x00\x00Stylesheet'
tRp4298
I00
S'/admin/default/edit/shipra/static/css/web2py.css'
tp4299
a(g4054
(S's\x08\x00\x00\x00DB Model'
tRp4300
I00
S'/admin/default/edit/shipra/models/db.py'
tp4301
a(g4054
(S's\n\x00\x00\x00Menu Model'
tRp4302
I00
S'/admin/default/edit/shipra/models/menu.py'
tp4303
a(g4054
(S's\x08\x00\x00\x00Database'
tRp4304
I00
S'/shipra/appadmin/index'
tp4305
a(g4054
(S's\x06\x00\x00\x00Errors'
tRp4306
I00
S'/admin/default/errors/shipra'
tp4307
a(g4054
(S's\x05\x00\x00\x00About'
tRp4308
I00
S'/admin/default/about/shipra'
tp4309
aasbasbasbasbasbasbasbag69
(g85
g71
NtRp4310
(dp4311
g74
(dp4312
sg83
g4167
sg76
(lp4313
g69
(g90
g71
NtRp4314
(dp4315
g74
(dp4316
sg83
g4310
sg76
(lp4317
g69
(g70
g71
NtRp4318
(dp4319
g74
(dp4320
g82
I2
ssg83
g4314
sg76
(lp4321
g69
(g78
g71
NtRp4322
(dp4323
g74
(dp4324
g82
I1
ssg83
Nsg76
(lp4325
g69
(g85
g71
NtRp4326
(dp4327
g74
(dp4328
sg83
g4322
sg76
(lp4329
g69
(g90
g71
NtRp4330
(dp4331
g74
(dp4332
sg83
g4326
sg76
(lp4333
g69
(g70
g71
NtRp4334
(dp4335
g74
(dp4336
g82
I1
ssg83
g4330
sg76
(lp4337
S'web2py.com'
p4338
asbasbasbag69
(g85
g71
NtRp4339
(dp4340
g74
(dp4341
sg83
g4322
sg76
(lp4342
g69
(g90
g71
NtRp4343
(dp4344
g74
(dp4345
sg83
g4339
sg76
(lp4346
g69
(g70
g71
NtRp4347
(dp4348
g74
(dp4349
g82
I1
ssg83
g4343
sg76
(lp4350
I00
asbasbasbag69
(g85
g71
NtRp4351
(dp4352
g74
(dp4353
sg83
g4322
sg76
(lp4354
g69
(g90
g71
NtRp4355
(dp4356
g74
(dp4357
sg83
g4351
sg76
(lp4358
g69
(g70
g71
NtRp4359
(dp4360
g74
(dp4361
g82
I1
ssg83
g4355
sg76
(lp4362
S'http://www.web2py.com'
p4363
asbasbasbag69
(g85
g71
NtRp4364
(dp4365
g74
(dp4366
sg83
g4322
sg76
(lp4367
g69
(g90
g71
NtRp4368
(dp4369
g74
(dp4370
sg83
g4364
sg76
(lp4371
g69
(g70
g71
NtRp4372
(dp4373
g74
(dp4374
g82
I1
ssg83
g4368
sg76
(lp4375
(lp4376
(g4054
(S's\x08\x00\x00\x00Download'
tRp4377
I00
S'http://www.web2py.com/examples/default/download'
p4378
tp4379
a(g4054
(S's\x07\x00\x00\x00Support'
tRp4380
I00
S'http://www.web2py.com/examples/default/support'
p4381
tp4382
a(g4054
(S's\x04\x00\x00\x00Demo'
tRp4383
I00
S'http://web2py.com/demo_admin'
p4384
tp4385
a(g4054
(S's\x0e\x00\x00\x00Quick Examples'
tRp4386
I00
S'http://web2py.com/examples/default/examples'
p4387
tp4388
a(g4054
(S's\x03\x00\x00\x00FAQ'
tRp4389
I00
S'http://web2py.com/AlterEgo'
p4390
tp4391
a(g4054
(S's\x06\x00\x00\x00Videos'
tRp4392
I00
S'http://www.web2py.com/examples/default/videos/'
p4393
tp4394
a(g4054
(S's\x11\x00\x00\x00Free Applications'
tRp4395
I00
S'http://web2py.com/appliances'
p4396
tp4397
a(g4054
(S's\x07\x00\x00\x00Plugins'
tRp4398
I00
S'http://web2py.com/plugins'
p4399
tp4400
a(g4054
(S's\x07\x00\x00\x00Layouts'
tRp4401
I00
S'http://web2py.com/layouts'
p4402
tp4403
a(g4054
(S's\x07\x00\x00\x00Recipes'
tRp4404
I00
S'http://web2pyslices.com/'
p4405
tp4406
a(g4054
(S's\x08\x00\x00\x00Semantic'
tRp4407
I00
S'http://web2py.com/semantic'
p4408
tp4409
aasbasbasbasbasbasbasbag69
(g85
g71
NtRp4410
(dp4411
g74
(dp4412
sg83
g4167
sg76
(lp4413
g69
(g90
g71
NtRp4414
(dp4415
g74
(dp4416
sg83
g4410
sg76
(lp4417
g69
(g70
g71
NtRp4418
(dp4419
g74
(dp4420
g82
I2
ssg83
g4414
sg76
(lp4421
g69
(g78
g71
NtRp4422
(dp4423
g74
(dp4424
g82
I1
ssg83
Nsg76
(lp4425
g69
(g85
g71
NtRp4426
(dp4427
g74
(dp4428
sg83
g4422
sg76
(lp4429
g69
(g90
g71
NtRp4430
(dp4431
g74
(dp4432
sg83
g4426
sg76
(lp4433
g69
(g70
g71
NtRp4434
(dp4435
g74
(dp4436
g82
I1
ssg83
g4430
sg76
(lp4437
g4054
(S's\r\x00\x00\x00Documentation'
tRp4438
asbasbasbag69
(g85
g71
NtRp4439
(dp4440
g74
(dp4441
sg83
g4422
sg76
(lp4442
g69
(g90
g71
NtRp4443
(dp4444
g74
(dp4445
sg83
g4439
sg76
(lp4446
g69
(g70
g71
NtRp4447
(dp4448
g74
(dp4449
g82
I1
ssg83
g4443
sg76
(lp4450
I00
asbasbasbag69
(g85
g71
NtRp4451
(dp4452
g74
(dp4453
sg83
g4422
sg76
(lp4454
g69
(g90
g71
NtRp4455
(dp4456
g74
(dp4457
sg83
g4451
sg76
(lp4458
g69
(g70
g71
NtRp4459
(dp4460
g74
(dp4461
g82
I1
ssg83
g4455
sg76
(lp4462
S'http://www.web2py.com/book'
p4463
asbasbasbag69
(g85
g71
NtRp4464
(dp4465
g74
(dp4466
sg83
g4422
sg76
(lp4467
g69
(g90
g71
NtRp4468
(dp4469
g74
(dp4470
sg83
g4464
sg76
(lp4471
g69
(g70
g71
NtRp4472
(dp4473
g74
(dp4474
g82
I1
ssg83
g4468
sg76
(lp4475
(lp4476
(g4054
(S's\x07\x00\x00\x00Preface'
tRp4477
I00
S'http://www.web2py.com/book/default/chapter/00'
p4478
tp4479
a(g4054
(S's\x0c\x00\x00\x00Introduction'
tRp4480
I00
S'http://www.web2py.com/book/default/chapter/01'
p4481
tp4482
a(g4054
(S's\x06\x00\x00\x00Python'
tRp4483
I00
S'http://www.web2py.com/book/default/chapter/02'
p4484
tp4485
a(g4054
(S's\x08\x00\x00\x00Overview'
tRp4486
I00
S'http://www.web2py.com/book/default/chapter/03'
p4487
tp4488
a(g4054
(S's\x08\x00\x00\x00The Core'
tRp4489
I00
S'http://www.web2py.com/book/default/chapter/04'
p4490
tp4491
a(g4054
(S's\t\x00\x00\x00The Views'
tRp4492
I00
S'http://www.web2py.com/book/default/chapter/05'
p4493
tp4494
a(g4054
(S's\x08\x00\x00\x00Database'
tRp4495
I00
S'http://www.web2py.com/book/default/chapter/06'
p4496
tp4497
a(g4054
(S's\x14\x00\x00\x00Forms and Validators'
tRp4498
I00
S'http://www.web2py.com/book/default/chapter/07'
p4499
tp4500
a(g4054
(S's\r\x00\x00\x00Email and SMS'
tRp4501
I00
S'http://www.web2py.com/book/default/chapter/08'
p4502
tp4503
a(g4054
(S's\x0e\x00\x00\x00Access Control'
tRp4504
I00
S'http://www.web2py.com/book/default/chapter/09'
p4505
tp4506
a(g4054
(S's\x08\x00\x00\x00Services'
tRp4507
I00
S'http://www.web2py.com/book/default/chapter/10'
p4508
tp4509
a(g4054
(S's\x0c\x00\x00\x00Ajax Recipes'
tRp4510
I00
S'http://www.web2py.com/book/default/chapter/11'
p4511
tp4512
a(g4054
(S's\x16\x00\x00\x00Components and Plugins'
tRp4513
I00
S'http://www.web2py.com/book/default/chapter/12'
p4514
tp4515
a(g4054
(S's\x12\x00\x00\x00Deployment Recipes'
tRp4516
I00
S'http://www.web2py.com/book/default/chapter/13'
p4517
tp4518
a(g4054
(S's\r\x00\x00\x00Other Recipes'
tRp4519
I00
S'http://www.web2py.com/book/default/chapter/14'
p4520
tp4521
a(g4054
(S's\r\x00\x00\x00Buy this book'
tRp4522
I00
S'http://stores.lulu.com/web2py'
p4523
tp4524
aasbasbasbasbasbasbasbag69
(g85
g71
NtRp4525
(dp4526
g74
(dp4527
sg83
g4167
sg76
(lp4528
g69
(g90
g71
NtRp4529
(dp4530
g74
(dp4531
sg83
g4525
sg76
(lp4532
g69
(g70
g71
NtRp4533
(dp4534
g74
(dp4535
g82
I2
ssg83
g4529
sg76
(lp4536
g69
(g78
g71
NtRp4537
(dp4538
g74
(dp4539
g82
I1
ssg83
Nsg76
(lp4540
g69
(g85
g71
NtRp4541
(dp4542
g74
(dp4543
sg83
g4537
sg76
(lp4544
g69
(g90
g71
NtRp4545
(dp4546
g74
(dp4547
sg83
g4541
sg76
(lp4548
g69
(g70
g71
NtRp4549
(dp4550
g74
(dp4551
g82
I1
ssg83
g4545
sg76
(lp4552
g4054
(S's\t\x00\x00\x00Community'
tRp4553
asbasbasbag69
(g85
g71
NtRp4554
(dp4555
g74
(dp4556
sg83
g4537
sg76
(lp4557
g69
(g90
g71
NtRp4558
(dp4559
g74
(dp4560
sg83
g4554
sg76
(lp4561
g69
(g70
g71
NtRp4562
(dp4563
g74
(dp4564
g82
I1
ssg83
g4558
sg76
(lp4565
I00
asbasbasbag69
(g85
g71
NtRp4566
(dp4567
g74
(dp4568
sg83
g4537
sg76
(lp4569
g69
(g90
g71
NtRp4570
(dp4571
g74
(dp4572
sg83
g4566
sg76
(lp4573
g69
(g70
g71
NtRp4574
(dp4575
g74
(dp4576
g82
I1
ssg83
g4570
sg76
(lp4577
Nasbasbasbag69
(g85
g71
NtRp4578
(dp4579
g74
(dp4580
sg83
g4537
sg76
(lp4581
g69
(g90
g71
NtRp4582
(dp4583
g74
(dp4584
sg83
g4578
sg76
(lp4585
g69
(g70
g71
NtRp4586
(dp4587
g74
(dp4588
g82
I1
ssg83
g4582
sg76
(lp4589
(lp4590
(g4054
(S's\x06\x00\x00\x00Groups'
tRp4591
I00
S'http://www.web2py.com/examples/default/usergroups'
p4592
tp4593
a(g4054
(S's\x07\x00\x00\x00Twitter'
tRp4594
I00
S'http://twitter.com/web2py'
p4595
tp4596
a(g4054
(S's\t\x00\x00\x00Live Chat'
tRp4597
I00
S'http://webchat.freenode.net/?channels=web2py'
p4598
tp4599
aasbasbasbasbasbasbasbag69
(g85
g71
NtRp4600
(dp4601
g74
(dp4602
sg83
g4167
sg76
(lp4603
g69
(g90
g71
NtRp4604
(dp4605
g74
(dp4606
sg83
g4600
sg76
(lp4607
g69
(g70
g71
NtRp4608
(dp4609
g74
(dp4610
g82
I2
ssg83
g4604
sg76
(lp4611
g69
(g78
g71
NtRp4612
(dp4613
g74
(dp4614
g82
I1
ssg83
Nsg76
(lp4615
g69
(g85
g71
NtRp4616
(dp4617
g74
(dp4618
sg83
g4612
sg76
(lp4619
g69
(g90
g71
NtRp4620
(dp4621
g74
(dp4622
sg83
g4616
sg76
(lp4623
g69
(g70
g71
NtRp4624
(dp4625
g74
(dp4626
g82
I1
ssg83
g4620
sg76
(lp4627
g4054
(S's\x07\x00\x00\x00Plugins'
tRp4628
asbasbasbag69
(g85
g71
NtRp4629
(dp4630
g74
(dp4631
sg83
g4612
sg76
(lp4632
g69
(g90
g71
NtRp4633
(dp4634
g74
(dp4635
sg83
g4629
sg76
(lp4636
g69
(g70
g71
NtRp4637
(dp4638
g74
(dp4639
g82
I1
ssg83
g4633
sg76
(lp4640
I00
asbasbasbag69
(g85
g71
NtRp4641
(dp4642
g74
(dp4643
sg83
g4612
sg76
(lp4644
g69
(g90
g71
NtRp4645
(dp4646
g74
(dp4647
sg83
g4641
sg76
(lp4648
g69
(g70
g71
NtRp4649
(dp4650
g74
(dp4651
g82
I1
ssg83
g4645
sg76
(lp4652
Nasbasbasbag69
(g85
g71
NtRp4653
(dp4654
g74
(dp4655
sg83
g4612
sg76
(lp4656
g69
(g90
g71
NtRp4657
(dp4658
g74
(dp4659
sg83
g4653
sg76
(lp4660
g69
(g70
g71
NtRp4661
(dp4662
g74
(dp4663
g82
I1
ssg83
g4657
sg76
(lp4664
(lp4665
(S'plugin_wiki'
p4666
I00
S'http://web2py.com/examples/default/download'
p4667
tp4668
a(g4054
(S's\r\x00\x00\x00Other Plugins'
tRp4669
I00
g4399
tp4670
a(g4054
(S's\x0e\x00\x00\x00Layout Plugins'
tRp4671
I00
g4402
tp4672
aasbasbasbasbasbasbasbasbasbasbasbasbasbasbasbasbasbasbasbag69
(g85
g71
NtRp4673
(dp4674
g74
(dp4675
sg83
g3520
sg76
(lp4676
g69
(g90
g71
NtRp4677
(dp4678
g74
(dp4679
g94
g95
ssg83
g4673
sg76
(lp4680
S'meta'
p4681
asbag69
(g90
g71
NtRp4682
(dp4683
g74
(dp4684
g101
g102
ssg83
g4673
sg76
(lp4685
S':'
asbag69
(g90
g71
NtRp4686
(dp4687
g74
(dp4688
sg83
g4673
sg76
(lp4689
g69
(g70
g71
NtRp4690
(dp4691
g74
(dp4692
g82
I5
ssg83
g4686
sg76
(lp4693
g69
(g78
g71
NtRp4694
(dp4695
g74
(dp4696
g82
I4
ssg83
Nsg76
(lp4697
g69
(g85
g71
NtRp4698
(dp4699
g74
(dp4700
sg83
g4694
sg76
(lp4701
g69
(g90
g71
NtRp4702
(dp4703
g74
(dp4704
g94
g95
ssg83
g4698
sg76
(lp4705
S'author'
p4706
asbag69
(g90
g71
NtRp4707
(dp4708
g74
(dp4709
g101
g102
ssg83
g4698
sg76
(lp4710
S':'
asbag69
(g90
g71
NtRp4711
(dp4712
g74
(dp4713
sg83
g4698
sg76
(lp4714
g69
(g70
g71
NtRp4715
(dp4716
g74
(dp4717
g82
I4
ssg83
g4711
sg76
(lp4718
S'Your Name <you@example.com>'
p4719
asbasbasbag69
(g85
g71
NtRp4720
(dp4721
g74
(dp4722
sg83
g4694
sg76
(lp4723
g69
(g90
g71
NtRp4724
(dp4725
g74
(dp4726
g94
g95
ssg83
g4720
sg76
(lp4727
S'description'
p4728
asbag69
(g90
g71
NtRp4729
(dp4730
g74
(dp4731
g101
g102
ssg83
g4720
sg76
(lp4732
S':'
asbag69
(g90
g71
NtRp4733
(dp4734
g74
(dp4735
sg83
g4720
sg76
(lp4736
g69
(g70
g71
NtRp4737
(dp4738
g74
(dp4739
g82
I4
ssg83
g4733
sg76
(lp4740
S'a cool new app'
p4741
asbasbasbag69
(g85
g71
NtRp4742
(dp4743
g74
(dp4744
sg83
g4694
sg76
(lp4745
g69
(g90
g71
NtRp4746
(dp4747
g74
(dp4748
g94
g95
ssg83
g4742
sg76
(lp4749
S'generator'
p4750
asbag69
(g90
g71
NtRp4751
(dp4752
g74
(dp4753
g101
g102
ssg83
g4742
sg76
(lp4754
S':'
asbag69
(g90
g71
NtRp4755
(dp4756
g74
(dp4757
sg83
g4742
sg76
(lp4758
g69
(g70
g71
NtRp4759
(dp4760
g74
(dp4761
g82
I4
ssg83
g4755
sg76
(lp4762
S'Web2py Web Framework'
p4763
asbasbasbag69
(g85
g71
NtRp4764
(dp4765
g74
(dp4766
sg83
g4694
sg76
(lp4767
g69
(g90
g71
NtRp4768
(dp4769
g74
(dp4770
g94
g95
ssg83
g4764
sg76
(lp4771
S'keywords'
p4772
asbag69
(g90
g71
NtRp4773
(dp4774
g74
(dp4775
g101
g102
ssg83
g4764
sg76
(lp4776
S':'
asbag69
(g90
g71
NtRp4777
(dp4778
g74
(dp4779
sg83
g4764
sg76
(lp4780
g69
(g70
g71
NtRp4781
(dp4782
g74
(dp4783
g82
I4
ssg83
g4777
sg76
(lp4784
S'web2py, python, framework'
p4785
asbasbasbasbasbasbasbag69
(g85
g71
NtRp4786
(dp4787
g74
(dp4788
sg83
g3520
sg76
(lp4789
g69
(g90
g71
NtRp4790
(dp4791
g74
(dp4792
g94
g95
ssg83
g4786
sg76
(lp4793
S'models_to_run'
p4794
asbag69
(g90
g71
NtRp4795
(dp4796
g74
(dp4797
g101
g102
ssg83
g4786
sg76
(lp4798
S':'
asbag69
(g90
g71
NtRp4799
(dp4800
g74
(dp4801
sg83
g4786
sg76
(lp4802
g69
(g70
g71
NtRp4803
(dp4804
g74
(dp4805
g82
I5
ssg83
g4799
sg76
(lp4806
g69
(g78
g71
NtRp4807
(dp4808
g74
(dp4809
g82
I4
ssg83
Nsg76
(lp4810
g69
(g85
g71
NtRp4811
(dp4812
g74
(dp4813
sg83
g4807
sg76
(lp4814
g69
(g90
g71
NtRp4815
(dp4816
g74
(dp4817
sg83
g4811
sg76
(lp4818
g69
(g70
g71
NtRp4819
(dp4820
g74
(dp4821
g82
I4
ssg83
g4815
sg76
(lp4822
S'^\\w+\\.py$'
p4823
asbasbasbag69
(g85
g71
NtRp4824
(dp4825
g74
(dp4826
sg83
g4807
sg76
(lp4827
g69
(g90
g71
NtRp4828
(dp4829
g74
(dp4830
sg83
g4824
sg76
(lp4831
g69
(g70
g71
NtRp4832
(dp4833
g74
(dp4834
g82
I4
ssg83
g4828
sg76
(lp4835
S'^default/\\w+\\.py$'
p4836
asbasbasbag69
(g85
g71
NtRp4837
(dp4838
g74
(dp4839
sg83
g4807
sg76
(lp4840
g69
(g90
g71
NtRp4841
(dp4842
g74
(dp4843
sg83
g4837
sg76
(lp4844
g69
(g70
g71
NtRp4845
(dp4846
g74
(dp4847
g82
I4
ssg83
g4841
sg76
(lp4848
S'^default/resume_search/\\w+\\.py$'
p4849
asbasbasbasbasbasbasbag69
(g85
g71
NtRp4850
(dp4851
g74
(dp4852
sg83
g3520
sg76
(lp4853
g69
(g90
g71
NtRp4854
(dp4855
g74
(dp4856
g94
g95
ssg83
g4850
sg76
(lp4857
S'postprocessing'
p4858
asbag69
(g90
g71
NtRp4859
(dp4860
g74
(dp4861
g101
g102
ssg83
g4850
sg76
(lp4862
S':'
asbag69
(g90
g71
NtRp4863
(dp4864
g74
(dp4865
sg83
g4850
sg76
(lp4866
g69
(g70
g71
NtRp4867
(dp4868
g74
(dp4869
g82
I5
ssg83
g4863
sg76
(lp4870
g69
(g78
g71
NtRp4871
(dp4872
g74
(dp4873
g82
I4
ssg83
Nsg76
(lp4874
sbasbasbasbag69
(g85
g71
NtRp4875
(dp4876
g74
(dp4877
sg83
g3520
sg76
(lp4878
g69
(g90
g71
NtRp4879
(dp4880
g74
(dp4881
g94
g95
ssg83
g4875
sg76
(lp4882
S'session_cookie_expires'
p4883
asbag69
(g90
g71
NtRp4884
(dp4885
g74
(dp4886
g101
g102
ssg83
g4875
sg76
(lp4887
S':'
asbag69
(g90
g71
NtRp4888
(dp4889
g74
(dp4890
sg83
g4875
sg76
(lp4891
g69
(g70
g71
NtRp4892
(dp4893
g74
(dp4894
g82
I5
ssg83
g4888
sg76
(lp4895
S'None'
p4896
asbasbasbag69
(g85
g71
NtRp4897
(dp4898
g74
(dp4899
sg83
g3520
sg76
(lp4900
g69
(g90
g71
NtRp4901
(dp4902
g74
(dp4903
g94
g95
ssg83
g4897
sg76
(lp4904
S'session_data_name'
p4905
asbag69
(g90
g71
NtRp4906
(dp4907
g74
(dp4908
g101
g102
ssg83
g4897
sg76
(lp4909
S':'
asbag69
(g90
g71
NtRp4910
(dp4911
g74
(dp4912
sg83
g4897
sg76
(lp4913
g69
(g70
g71
NtRp4914
(dp4915
g74
(dp4916
g82
I5
ssg83
g4910
sg76
(lp4917
S'session_data_shipra'
p4918
asbasbasbag69
(g85
g71
NtRp4919
(dp4920
g74
(dp4921
sg83
g3520
sg76
(lp4922
g69
(g90
g71
NtRp4923
(dp4924
g74
(dp4925
g94
g95
ssg83
g4919
sg76
(lp4926
S'session_file'
p4927
asbag69
(g90
g71
NtRp4928
(dp4929
g74
(dp4930
g101
g102
ssg83
g4919
sg76
(lp4931
S':'
asbag69
(g90
g71
NtRp4932
(dp4933
g74
(dp4934
sg83
g4919
sg76
(lp4935
g69
(g70
g71
NtRp4936
(dp4937
g74
(dp4938
g82
I5
ssg83
g4932
sg76
(lp4939
S"<open file '/home/shipra/Desktop/Semester 1.2/ITWS-2/web2py/applications/shipra/sessions/127.0.0.1-7fa5acfe-848f-4c14-b600-f6d33f5c9539', mode 'rb+' at 0x7ffcac60ab70>"
p4940
asbasbasbag69
(g85
g71
NtRp4941
(dp4942
g74
(dp4943
sg83
g3520
sg76
(lp4944
g69
(g90
g71
NtRp4945
(dp4946
g74
(dp4947
g94
g95
ssg83
g4941
sg76
(lp4948
S'session_filename'
p4949
asbag69
(g90
g71
NtRp4950
(dp4951
g74
(dp4952
g101
g102
ssg83
g4941
sg76
(lp4953
S':'
asbag69
(g90
g71
NtRp4954
(dp4955
g74
(dp4956
sg83
g4941
sg76
(lp4957
g69
(g70
g71
NtRp4958
(dp4959
g74
(dp4960
g82
I5
ssg83
g4954
sg76
(lp4961
S'/home/shipra/Desktop/Semester 1.2/ITWS-2/web2py/applications/shipra/sessions/127.0.0.1-7fa5acfe-848f-4c14-b600-f6d33f5c9539'
p4962
asbasbasbag69
(g85
g71
NtRp4963
(dp4964
g74
(dp4965
sg83
g3520
sg76
(lp4966
g69
(g90
g71
NtRp4967
(dp4968
g74
(dp4969
g94
g95
ssg83
g4963
sg76
(lp4970
S'session_id'
p4971
asbag69
(g90
g71
NtRp4972
(dp4973
g74
(dp4974
g101
g102
ssg83
g4963
sg76
(lp4975
S':'
asbag69
(g90
g71
NtRp4976
(dp4977
g74
(dp4978
sg83
g4963
sg76
(lp4979
g69
(g70
g71
NtRp4980
(dp4981
g74
(dp4982
g82
I5
ssg83
g4976
sg76
(lp4983
g673
asbasbasbag69
(g85
g71
NtRp4984
(dp4985
g74
(dp4986
sg83
g3520
sg76
(lp4987
g69
(g90
g71
NtRp4988
(dp4989
g74
(dp4990
g94
g95
ssg83
g4984
sg76
(lp4991
S'session_id_name'
p4992
asbag69
(g90
g71
NtRp4993
(dp4994
g74
(dp4995
g101
g102
ssg83
g4984
sg76
(lp4996
S':'
asbag69
(g90
g71
NtRp4997
(dp4998
g74
(dp4999
sg83
g4984
sg76
(lp5000
g69
(g70
g71
NtRp5001
(dp5002
g74
(dp5003
g82
I5
ssg83
g4997
sg76
(lp5004
g3577
asbasbasbag69
(g85
g71
NtRp5005
(dp5006
g74
(dp5007
sg83
g3520
sg76
(lp5008
g69
(g90
g71
NtRp5009
(dp5010
g74
(dp5011
g94
g95
ssg83
g5005
sg76
(lp5012
S'session_locked'
p5013
asbag69
(g90
g71
NtRp5014
(dp5015
g74
(dp5016
g101
g102
ssg83
g5005
sg76
(lp5017
S':'
asbag69
(g90
g71
NtRp5018
(dp5019
g74
(dp5020
sg83
g5005
sg76
(lp5021
g69
(g70
g71
NtRp5022
(dp5023
g74
(dp5024
g82
I5
ssg83
g5018
sg76
(lp5025
g1971
asbasbasbag69
(g85
g71
NtRp5026
(dp5027
g74
(dp5028
sg83
g3520
sg76
(lp5029
g69
(g90
g71
NtRp5030
(dp5031
g74
(dp5032
g94
g95
ssg83
g5026
sg76
(lp5033
S'session_new'
p5034
asbag69
(g90
g71
NtRp5035
(dp5036
g74
(dp5037
g101
g102
ssg83
g5026
sg76
(lp5038
S':'
asbag69
(g90
g71
NtRp5039
(dp5040
g74
(dp5041
sg83
g5026
sg76
(lp5042
g69
(g70
g71
NtRp5043
(dp5044
g74
(dp5045
g82
I5
ssg83
g5039
sg76
(lp5046
g112
asbasbasbag69
(g85
g71
NtRp5047
(dp5048
g74
(dp5049
sg83
g3520
sg76
(lp5050
g69
(g90
g71
NtRp5051
(dp5052
g74
(dp5053
g94
g95
ssg83
g5047
sg76
(lp5054
S'session_storage_type'
p5055
asbag69
(g90
g71
NtRp5056
(dp5057
g74
(dp5058
g101
g102
ssg83
g5047
sg76
(lp5059
S':'
asbag69
(g90
g71
NtRp5060
(dp5061
g74
(dp5062
sg83
g5047
sg76
(lp5063
g69
(g70
g71
NtRp5064
(dp5065
g74
(dp5066
g82
I5
ssg83
g5060
sg76
(lp5067
g3405
asbasbasbag69
(g85
g71
NtRp5068
(dp5069
g74
(dp5070
sg83
g3520
sg76
(lp5071
g69
(g90
g71
NtRp5072
(dp5073
g74
(dp5074
g94
g95
ssg83
g5068
sg76
(lp5075
S'status'
p5076
asbag69
(g90
g71
NtRp5077
(dp5078
g74
(dp5079
g101
g102
ssg83
g5068
sg76
(lp5080
S':'
asbag69
(g90
g71
NtRp5081
(dp5082
g74
(dp5083
sg83
g5068
sg76
(lp5084
g69
(g70
g71
NtRp5085
(dp5086
g74
(dp5087
g82
I5
ssg83
g5081
sg76
(lp5088
S'200'
p5089
asbasbasbag69
(g85
g71
NtRp5090
(dp5091
g74
(dp5092
sg83
g3520
sg76
(lp5093
g69
(g90
g71
NtRp5094
(dp5095
g74
(dp5096
g94
g95
ssg83
g5090
sg76
(lp5097
S'subtitle'
p5098
asbag69
(g90
g71
NtRp5099
(dp5100
g74
(dp5101
g101
g102
ssg83
g5090
sg76
(lp5102
S':'
asbag69
(g90
g71
NtRp5103
(dp5104
g74
(dp5105
sg83
g5090
sg76
(lp5106
g69
(g70
g71
NtRp5107
(dp5108
g74
(dp5109
g82
I5
ssg83
g5103
sg76
(lp5110
g4054
(S's\r\x00\x00\x00customize me!'
tRp5111
asbasbasbag69
(g85
g71
NtRp5112
(dp5113
g74
(dp5114
sg83
g3520
sg76
(lp5115
g69
(g90
g71
NtRp5116
(dp5117
g74
(dp5118
g94
g95
ssg83
g5112
sg76
(lp5119
S'title'
p5120
asbag69
(g90
g71
NtRp5121
(dp5122
g74
(dp5123
g101
g102
ssg83
g5112
sg76
(lp5124
S':'
asbag69
(g90
g71
NtRp5125
(dp5126
g74
(dp5127
sg83
g5112
sg76
(lp5128
g69
(g70
g71
NtRp5129
(dp5130
g74
(dp5131
g82
I5
ssg83
g5125
sg76
(lp5132
S'Shipra'
p5133
asbasbasbag69
(g85
g71
NtRp5134
(dp5135
g74
(dp5136
sg83
g3520
sg76
(lp5137
g69
(g90
g71
NtRp5138
(dp5139
g74
(dp5140
g94
g95
ssg83
g5134
sg76
(lp5141
S'view'
p5142
asbag69
(g90
g71
NtRp5143
(dp5144
g74
(dp5145
g101
g102
ssg83
g5134
sg76
(lp5146
S':'
asbag69
(g90
g71
NtRp5147
(dp5148
g74
(dp5149
sg83
g5134
sg76
(lp5150
g69
(g70
g71
NtRp5151
(dp5152
g74
(dp5153
g82
I5
ssg83
g5147
sg76
(lp5154
S'default/resume_search.html'
p5155
asbasbasbasbasbsS'locals'
p5156
(dp5157
g4
S"'/home/shipra/Desktop/Semester 1.2/ITWS-2/web2py/applications/shipra/controllers/default.py'"
p5158
sg6
S"'# -*- coding: utf-8 -*-\\n# this file is released ...\\n\\nresponse._vars=response._caller(resume_search)\\n'"
p5159
sssS'traceback'
p5160
S'Traceback (most recent call last):\n  File "/home/shipra/Desktop/Semester 1.2/ITWS-2/web2py/gluon/restricted.py", line 211, in restricted\n    ccode = compile2(code, layer)\n  File "/home/shipra/Desktop/Semester 1.2/ITWS-2/web2py/gluon/restricted.py", line 194, in compile2\n    return compile(code.rstrip().replace(\'\\r\\n\', \'\\n\') + \'\\n\', layer, \'exec\')\n  File "/home/shipra/Desktop/Semester 1.2/ITWS-2/web2py/applications/shipra/controllers/default.py", line 60\n    return locals()\nSyntaxError: \'return\' outside function\n'
p5161
s.